
cnc.elf:     file format elf32-littlenios2
cnc.elf
architecture: nios2, flags 0x00000112:
EXEC_P, HAS_SYMS, D_PAGED
start address 0x01000000

Program Header:
    LOAD off    0x00001020 vaddr 0x00000020 paddr 0x00000020 align 2**12
         filesz 0x00000164 memsz 0x00000164 flags r-x
    LOAD off    0x00002000 vaddr 0x00081000 paddr 0x00081000 align 2**12
         filesz 0x00000000 memsz 0x00000000 flags r-x
    LOAD off    0x00002000 vaddr 0x01000000 paddr 0x01000000 align 2**12
         filesz 0x0000a320 memsz 0x0000a814 flags rwx

Sections:
Idx Name          Size      VMA       LMA       File off  Algn
  0 .entry        00000000  00081000  00081000  00002000  2**5
                  CONTENTS, ALLOC, LOAD, READONLY, CODE
  1 .exceptions   00000164  00000020  00000020  00001020  2**2
                  CONTENTS, ALLOC, LOAD, READONLY, CODE
  2 .text         000081e0  01000000  01000000  00002000  2**2
                  CONTENTS, ALLOC, LOAD, READONLY, CODE
  3 .rodata       00000334  010081e0  010081e0  0000a1e0  2**2
                  CONTENTS, ALLOC, LOAD, READONLY, DATA
  4 .rwdata       00001e0c  01008514  01008514  0000a514  2**2
                  CONTENTS, ALLOC, LOAD, DATA, SMALL_DATA
  5 .bss          000004f4  0100a320  0100a320  0000c320  2**2
                  ALLOC, SMALL_DATA
  6 .comment      00000026  00000000  00000000  0000c320  2**0
                  CONTENTS, READONLY
  7 .debug_aranges 00000ad0  00000000  00000000  0000c348  2**3
                  CONTENTS, READONLY, DEBUGGING
  8 .debug_pubnames 0000155c  00000000  00000000  0000ce18  2**0
                  CONTENTS, READONLY, DEBUGGING
  9 .debug_info   0001bd95  00000000  00000000  0000e374  2**0
                  CONTENTS, READONLY, DEBUGGING
 10 .debug_abbrev 00006af7  00000000  00000000  0002a109  2**0
                  CONTENTS, READONLY, DEBUGGING
 11 .debug_line   000116c2  00000000  00000000  00030c00  2**0
                  CONTENTS, READONLY, DEBUGGING
 12 .debug_frame  0000154c  00000000  00000000  000422c4  2**2
                  CONTENTS, READONLY, DEBUGGING
 13 .debug_str    00003159  00000000  00000000  00043810  2**0
                  CONTENTS, READONLY, DEBUGGING
 14 .debug_loc    0000767f  00000000  00000000  00046969  2**0
                  CONTENTS, READONLY, DEBUGGING
 15 .debug_alt_sim_info 00000040  00000000  00000000  0004dfe8  2**2
                  CONTENTS, READONLY, DEBUGGING
 16 .debug_ranges 00000a58  00000000  00000000  0004e028  2**3
                  CONTENTS, READONLY, DEBUGGING
 17 .thread_model 00000003  00000000  00000000  00051e6b  2**0
                  CONTENTS, READONLY
 18 .cpu          00000005  00000000  00000000  00051e6e  2**0
                  CONTENTS, READONLY
 19 .qsys         00000001  00000000  00000000  00051e73  2**0
                  CONTENTS, READONLY
 20 .simulation_enabled 00000001  00000000  00000000  00051e74  2**0
                  CONTENTS, READONLY
 21 .sysid_hash   00000004  00000000  00000000  00051e75  2**0
                  CONTENTS, READONLY
 22 .sysid_base   00000004  00000000  00000000  00051e79  2**0
                  CONTENTS, READONLY
 23 .sysid_time   00000004  00000000  00000000  00051e7d  2**0
                  CONTENTS, READONLY
 24 .stderr_dev   0000000b  00000000  00000000  00051e81  2**0
                  CONTENTS, READONLY
 25 .stdin_dev    0000000b  00000000  00000000  00051e8c  2**0
                  CONTENTS, READONLY
 26 .stdout_dev   0000000b  00000000  00000000  00051e97  2**0
                  CONTENTS, READONLY
 27 .sopc_system_name 00000008  00000000  00000000  00051ea2  2**0
                  CONTENTS, READONLY
 28 .quartus_project_dir 00000013  00000000  00000000  00051eaa  2**0
                  CONTENTS, READONLY
 29 .jdi          000048a9  00000000  00000000  00051ebd  2**0
                  CONTENTS, READONLY
 30 .sopcinfo     000aeb98  00000000  00000000  00056766  2**0
                  CONTENTS, READONLY
SYMBOL TABLE:
00081000 l    d  .entry	00000000 .entry
00000020 l    d  .exceptions	00000000 .exceptions
01000000 l    d  .text	00000000 .text
010081e0 l    d  .rodata	00000000 .rodata
01008514 l    d  .rwdata	00000000 .rwdata
0100a320 l    d  .bss	00000000 .bss
00000000 l    d  .comment	00000000 .comment
00000000 l    d  .debug_aranges	00000000 .debug_aranges
00000000 l    d  .debug_pubnames	00000000 .debug_pubnames
00000000 l    d  .debug_info	00000000 .debug_info
00000000 l    d  .debug_abbrev	00000000 .debug_abbrev
00000000 l    d  .debug_line	00000000 .debug_line
00000000 l    d  .debug_frame	00000000 .debug_frame
00000000 l    d  .debug_str	00000000 .debug_str
00000000 l    d  .debug_loc	00000000 .debug_loc
00000000 l    d  .debug_alt_sim_info	00000000 .debug_alt_sim_info
00000000 l    d  .debug_ranges	00000000 .debug_ranges
01000034 l       .text	00000000 alt_after_alt_main
00000000 l    df *ABS*	00000000 alt_irq_handler.c
00000000 l    df *ABS*	00000000 LCD.c
00000000 l    df *ABS*	00000000 Test.c
00000000 l    df *ABS*	00000000 hello_led.c
00000000 l    df *ABS*	00000000 lib2-mul.c
00000000 l    df *ABS*	00000000 puts.c
00000000 l    df *ABS*	00000000 strlen.c
00000000 l    df *ABS*	00000000 fvwrite.c
00000000 l    df *ABS*	00000000 impure.c
0100853c l     O .rwdata	00000400 impure_data
00000000 l    df *ABS*	00000000 mallocr.c
00000000 l    df *ABS*	00000000 memchr.c
00000000 l    df *ABS*	00000000 memcpy.c
00000000 l    df *ABS*	00000000 memmove.c
00000000 l    df *ABS*	00000000 mallocr.c
00000000 l    df *ABS*	00000000 sbrkr.c
00000000 l    df *ABS*	00000000 wsetup.c
00000000 l    df *ABS*	00000000 fflush.c
00000000 l    df *ABS*	00000000 findfp.c
01002634 l     F .text	00000058 std
01002740 l     F .text	00000008 __fp_lock
01002748 l     F .text	00000008 __fp_unlock
00000000 l    df *ABS*	00000000 mallocr.c
00000000 l    df *ABS*	00000000 fwalk.c
00000000 l    df *ABS*	00000000 int_errno.c
00000000 l    df *ABS*	00000000 makebuf.c
00000000 l    df *ABS*	00000000 memset.c
00000000 l    df *ABS*	00000000 stdio.c
00000000 l    df *ABS*	00000000 writer.c
00000000 l    df *ABS*	00000000 closer.c
00000000 l    df *ABS*	00000000 fclose.c
00000000 l    df *ABS*	00000000 fstatr.c
00000000 l    df *ABS*	00000000 isattyr.c
00000000 l    df *ABS*	00000000 lseekr.c
00000000 l    df *ABS*	00000000 readr.c
00000000 l    df *ABS*	00000000 alt_close.c
00000000 l    df *ABS*	00000000 alt_dev.c
01003734 l     F .text	00000008 alt_dev_null_write
00000000 l    df *ABS*	00000000 alt_errno.c
00000000 l    df *ABS*	00000000 alt_fstat.c
00000000 l    df *ABS*	00000000 alt_irq_register.c
00000000 l    df *ABS*	00000000 alt_irq_vars.c
00000000 l    df *ABS*	00000000 alt_isatty.c
00000000 l    df *ABS*	00000000 alt_lseek.c
00000000 l    df *ABS*	00000000 alt_main.c
00000000 l    df *ABS*	00000000 alt_malloc_lock.c
00000000 l    df *ABS*	00000000 alt_read.c
00000000 l    df *ABS*	00000000 alt_release_fd.c
00000000 l    df *ABS*	00000000 alt_sbrk.c
0100a304 l     O .rwdata	00000004 heap_end
00000000 l    df *ABS*	00000000 alt_usleep.c
00000000 l    df *ABS*	00000000 alt_write.c
00000000 l    df *ABS*	00000000 alt_sys_init.c
01008eec l     O .rwdata	000000d8 cfi_flash_0
01008fc4 l     O .rwdata	000000c8 epcs_controller
0100908c l     O .rwdata	00001060 jtag_uart_0
0100a0ec l     O .rwdata	00000120 lcd_16207_0
0100a20c l     O .rwdata	000000c4 uart_0
00000000 l    df *ABS*	00000000 altera_avalon_cfi_flash.c
00000000 l    df *ABS*	00000000 altera_avalon_cfi_flash_table.c
010044e8 l     F .text	00000060 alt_read_16bit_query_entry
00000000 l    df *ABS*	00000000 altera_avalon_epcs_flash_controller.c
00000000 l    df *ABS*	00000000 altera_avalon_jtag_uart_fd.c
00000000 l    df *ABS*	00000000 altera_avalon_jtag_uart_init.c
010053f4 l     F .text	00000058 altera_avalon_jtag_uart_timeout
010054cc l     F .text	00000108 altera_avalon_jtag_uart_irq
00000000 l    df *ABS*	00000000 altera_avalon_jtag_uart_ioctl.c
00000000 l    df *ABS*	00000000 altera_avalon_jtag_uart_read.c
00000000 l    df *ABS*	00000000 altera_avalon_jtag_uart_write.c
00000000 l    df *ABS*	00000000 altera_avalon_lcd_16207.c
01005944 l     F .text	00000084 lcd_write_command
010059c8 l     F .text	0000019c lcd_repaint_screen
0100a308 l     O .rwdata	00000004 colstart
01005b64 l     F .text	00000078 alt_lcd_16207_timeout
01005bdc l     F .text	000000a0 lcd_clear_screen
01005d60 l     F .text	00000080 lcd_scroll_up
00000000 l    df *ABS*	00000000 altera_avalon_lcd_16207_fd.c
00000000 l    df *ABS*	00000000 altera_avalon_timer_sc.c
0100630c l     F .text	0000003c alt_avalon_timer_sc_irq
00000000 l    df *ABS*	00000000 altera_avalon_uart_fd.c
00000000 l    df *ABS*	00000000 altera_avalon_uart_init.c
010063a0 l     F .text	00000144 altera_avalon_uart_irq
00000000 l    df *ABS*	00000000 altera_avalon_uart_read.c
00000000 l    df *ABS*	00000000 altera_avalon_uart_write.c
00000000 l    df *ABS*	00000000 epcs_commands.c
00000000 l    df *ABS*	00000000 alt_alarm_start.c
00000000 l    df *ABS*	00000000 alt_busy_sleep.c
00000000 l    df *ABS*	00000000 alt_dcache_flush.c
00000000 l    df *ABS*	00000000 alt_dev_llist_insert.c
00000000 l    df *ABS*	00000000 alt_do_ctors.c
00000000 l    df *ABS*	00000000 alt_do_dtors.c
00000000 l    df *ABS*	00000000 alt_flash_dev.c
00000000 l    df *ABS*	00000000 alt_iic.c
00000000 l    df *ABS*	00000000 alt_iic_isr_register.c
00000000 l    df *ABS*	00000000 alt_io_redirect.c
01007054 l     F .text	00000088 alt_open_fd
00000000 l    df *ABS*	00000000 alt_open.c
00000000 l    df *ABS*	00000000 alt_tick.c
00000000 l    df *ABS*	00000000 altera_nios2_qsys_irq.c
00000000 l    df *ABS*	00000000 altera_avalon_cfi_flash_amd.c
0100758c l     F .text	00000150 alt_write_word_amd
00000000 l    df *ABS*	00000000 altera_avalon_cfi_flash_intel.c
010076dc l     F .text	00000108 alt_unlock_block_intel
0100796c l     F .text	000000a0 alt_write_word_intel
00000000 l    df *ABS*	00000000 altera_avalon_spi.c
00000000 l    df *ABS*	00000000 alt_find_dev.c
00000000 l    df *ABS*	00000000 alt_find_file.c
00000000 l    df *ABS*	00000000 alt_get_fd.c
00000000 l    df *ABS*	00000000 atexit.c
00000000 l    df *ABS*	00000000 ctype_.c
01008391 l     O .rodata	00000180 _ctype_b
00000000 l    df *ABS*	00000000 exit.c
00000000 l    df *ABS*	00000000 memcmp.c
00000000 l    df *ABS*	00000000 __atexit.c
00000000 l    df *ABS*	00000000 __call_atexit.c
01007ec8 l     F .text	00000004 register_fini
00000000 l    df *ABS*	00000000 lib2-divmod.c
0100807c l     F .text	0000007c udivmodsi4
00000000 l    df *ABS*	00000000 alt_exit.c
01004e04 g     F .text	00000038 alt_epcs_flash_get_info
010034e0 g     F .text	00000070 _isatty_r
01003a08 g     F .text	00000060 alt_main
01000cfc g     F .text	000000a0 _puts_r
01004910 g     F .text	0000001c alt_read_query_entry_32bit
0100a584 g     O .bss	00000100 alt_irq
01003550 g     F .text	00000078 _lseek_r
01004150 g     F .text	00000190 alt_flash_cfi_write
0100a814 g       *ABS*	00000000 __alt_heap_start
0100a2d0 g     O .rwdata	00000006 ether_addr
0100311c g     F .text	00000068 __sseek
0100269c g     F .text	000000a4 __sinit
0100279c g     F .text	0000009c __sfmoreglue
01003a6c g     F .text	00000004 __malloc_unlock
010003ec g     F .text	000001c4 ReceivePacket
01001b84 g     F .text	000000e0 memmove
0100278c g     F .text	00000010 _cleanup
01000130 g     F .text	00000104 LCD_Test
00000000  w      *UND*	00000000 __errno
0100696c g     F .text	000000d0 epcs_sector_erase
01004958 g     F .text	00000018 alt_write_flash_command_32bit_device_16bit_mode
00081000 g     F .entry	00000000 __reset
0100346c g     F .text	00000074 _fstat_r
01003eb4 g     F .text	000001d8 alt_flash_program_block
0100a340 g     O .bss	00000004 errno
01000a44 g     F .text	0000021c DM9000_init
0100a34c g     O .bss	00000004 alt_argv
010122d0 g       *ABS*	00000000 _gp
01003c60 g     F .text	00000004 usleep
00081000 g       *ABS*	00000000 __alt_mem_epcs_controller
0100a384 g     O .bss	00000200 RXT
01008d6c g     O .rwdata	00000180 alt_fd_list
01006c28 g     F .text	00000058 epcs_write_status_register
01007b30 g     F .text	00000094 alt_find_dev
01001ae4 g     F .text	000000a0 memcpy
01002780 g     F .text	0000000c _cleanup_r
010070dc g     F .text	0000008c alt_io_redirect
010081e0 g       *ABS*	00000000 __DTOR_END__
01000320 g     F .text	0000001c iow
01000d9c g     F .text	00000014 puts
01004ebc g     F .text	000000d0 alt_epcs_flash_write_block
0100565c g     F .text	0000016c altera_avalon_jtag_uart_read
00000000  w      *UND*	00000000 malloc
010081b8 g     F .text	00000008 __udivsi3
010038a8 g     F .text	000000a4 isatty
0100a334 g     O .bss	00000004 __malloc_top_pad
01000e24 g     F .text	0000049c __sfvwrite_r
01002258 g     F .text	00000070 _sbrk_r
010078e8 g     F .text	00000084 alt_program_intel
010035c8 g     F .text	00000078 _read_r
01006db8 g     F .text	00000004 alt_dcache_flush
0100a2f8 g     O .rwdata	00000004 alt_max_fd
010048e4 g     F .text	00000014 alt_read_query_entry_8bit
01003348 g     F .text	00000110 _fclose_r
010077e4 g     F .text	00000104 alt_erase_block_intel
01002600 g     F .text	00000034 fflush
0100a338 g     O .bss	00000004 __malloc_max_sbrked_mem
010037e8 g     F .text	000000c0 alt_irq_register
01005330 g     F .text	00000054 alt_epcs_flash_erase_block
0100394c g     F .text	000000bc lseek
0100a2dc g     O .rwdata	00000004 _global_impure_ptr
0100688c g     F .text	0000004c epcs_exit_4_bytes_mode
0100a324 g     O .bss	00000004 aaa
01001c64 g     F .text	000005f4 _realloc_r
0100a814 g       *ABS*	00000000 __bss_end
01006fcc g     F .text	00000088 alt_iic_isr_register
01007328 g     F .text	000000c0 alt_tick
010064e4 g     F .text	00000040 altera_avalon_uart_init
0100a31c g     O .rwdata	00000004 __ctype_ptr
01002768 g     F .text	00000018 __fp_lock_all
01006f30 g     F .text	00000018 alt_ic_irq_enabled
010072f4 g     F .text	00000034 alt_alarm_stop
0100a344 g     O .bss	00000004 alt_irq_active
000000ec g     F .exceptions	00000098 alt_irq_handler
01008d44 g     O .rwdata	00000028 alt_dev_null
01004478 g     F .text	00000070 alt_set_flash_algorithm_func
0100a328 g     O .bss	00000004 packet_num
010049d0 g     F .text	00000010 alt_write_flash_command_8bit_device_8bit_mode
0100a2f0 g     O .rwdata	00000008 alt_dev_list
01003c64 g     F .text	0000013c write
010002bc g     F .text	00000064 basic_test
0100373c g     F .text	000000ac fstat
01004548 g     F .text	0000009c alt_check_primary_table
0100a320 g     O .bss	00000004 to_send
010081c0 g     F .text	00000008 __umodsi3
01004124 g     F .text	0000002c alt_flash_cfi_read
01004984 g     F .text	0000000c alt_write_native_8bit
01006800 g     F .text	00000054 epcs_read_electronic_signature
0100a814 g       *ABS*	00000000 end
010049a8 g     F .text	00000028 alt_write_flash_command_16bit_device_8bit_mode
01005de0 g     F .text	000004cc altera_avalon_lcd_16207_write
01006664 g     F .text	00000138 altera_avalon_uart_write
010045e4 g     F .text	00000300 alt_read_cfi_table
0100544c g     F .text	00000080 altera_avalon_jtag_uart_init
0100a32c g     O .bss	00000004 i
010081dc g       *ABS*	00000000 __CTOR_LIST__
01800000 g       *ABS*	00000000 __alt_stack_pointer
010062bc g     F .text	00000050 alt_avalon_timer_sc_init
01006358 g     F .text	00000010 altera_avalon_uart_write_fd
01006348 g     F .text	00000010 altera_avalon_uart_close_fd
010057c8 g     F .text	0000017c altera_avalon_jtag_uart_write
010042e0 g     F .text	00000068 alt_flash_cfi_init
0100268c g     F .text	00000004 __sfp_lock_acquire
01001a00 g     F .text	000000e4 memchr
01800000 g       *ABS*	00000000 __alt_mem_cfi_flash_0
01002a54 g     F .text	00000314 _free_r
01007ecc g     F .text	000001b0 __call_exitprocs
0100a2e4 g     O .rwdata	00000004 __malloc_sbrk_base
01000000 g     F .text	00000038 _start
0100a354 g     O .bss	00000004 _alt_tick_rate
01007a0c g     F .text	00000124 alt_avalon_spi_command
0100a358 g     O .bss	00000004 _alt_nticks
01003a70 g     F .text	00000140 read
01003dc0 g     F .text	000000bc alt_sys_init
01007d94 g     F .text	00000134 __register_exitproc
0100033c g     F .text	0000001c ior
010048f8 g     F .text	00000018 alt_read_query_entry_16bit
010053c0 g     F .text	00000034 altera_avalon_jtag_uart_close
01000cc4 g     F .text	00000038 __mulsi3
0100a35c g     O .bss	00000028 __malloc_current_mallinfo
01004348 g     F .text	00000130 alt_set_flash_width_func
01006924 g     F .text	00000048 epcs_read_status_register
010006c0 g     F .text	00000384 ethernet_interrupts
010053b0 g     F .text	00000010 altera_avalon_jtag_uart_read_fd
01007c74 g     F .text	00000060 alt_get_fd
01006d14 g     F .text	000000a4 alt_busy_sleep
010032d8 g     F .text	00000070 _close_r
010073f0 g     F .text	0000017c alt_erase_block_amd
0100679c g     F .text	00000064 epcs_read_device_id
01007d20 g     F .text	00000074 memcmp
01005390 g     F .text	00000010 altera_avalon_jtag_uart_close_fd
0100a814 g       *ABS*	00000000 __alt_stack_base
01005384 g     F .text	0000000c altera_avalon_jtag_uart_ioctl_fd
010022c8 g     F .text	0000013c __swsetup_r
010049e0 g     F .text	00000424 alt_read_cfi_width
01002838 g     F .text	000000f0 __sfp
0100893c g     O .rwdata	00000408 __malloc_av_
01002698 g     F .text	00000004 __sinit_lock_release
01003200 g     F .text	00000060 __sread
01007bc4 g     F .text	000000b0 alt_find_file
01006dbc g     F .text	0000007c alt_dev_llist_insert
01003a68 g     F .text	00000004 __malloc_lock
01003c0c g     F .text	00000054 sbrk
01002404 g     F .text	000001fc _fflush_r
0100a30c g     O .rwdata	00000008 alt_flash_dev_list
01004970 g     F .text	00000014 alt_write_flash_command_16bit_device_16bit_mode
0100a320 g       *ABS*	00000000 __bss_start
01000050 g     F .text	0000007c LCD_Init
0100307c g     F .text	00000098 memset
01000c60 g     F .text	00000064 main
0100a350 g     O .bss	00000004 alt_envp
0100a33c g     O .bss	00000004 __malloc_max_total_mem
010053a0 g     F .text	00000010 altera_avalon_jtag_uart_write_fd
01005c7c g     F .text	000000e4 altera_avalon_lcd_16207_init
01000038 g     F .text	00000018 LCD_Line2
01003114 g     F .text	00000008 __sclose
01800000 g       *ABS*	00000000 __alt_heap_limit
01003458 g     F .text	00000014 fclose
0100a684 g     O .bss	00000190 _atexit0
010012c0 g     F .text	00000740 _malloc_r
0100a2fc g     O .rwdata	00000004 alt_errno
01004934 g     F .text	00000018 alt_write_flash_command_32bit_device_32bit_mode
01002e30 g     F .text	000000b8 _fwalk
0100408c g     F .text	00000098 alt_write_value_to_flash
0100494c g     F .text	0000000c alt_write_native_16bit
010080f8 g     F .text	00000060 __divsi3
01002928 g     F .text	0000012c _malloc_trim_r
010081e0 g       *ABS*	00000000 __CTOR_END__
01004f8c g     F .text	000001d0 alt_epcs_flash_write
010081e0 g       *ABS*	00000000 __DTOR_LIST__
00000000 g       *ABS*	00000000 __alt_mem_sram_0
01003da0 g     F .text	00000020 alt_irq_init
010000cc g     F .text	00000064 LCD_Show_Text
01000358 g     F .text	00000094 phy_write
010005b0 g     F .text	00000110 TransmitPacket
01003bb0 g     F .text	0000005c alt_release_fd
01000234 g     F .text	00000030 init_button_irq
01007cd4 g     F .text	00000014 atexit
01003260 g     F .text	00000078 _write_r
0100a2d8 g     O .rwdata	00000004 _impure_ptr
0100a348 g     O .bss	00000004 alt_argc
01006e84 g     F .text	0000004c _do_dtors
01000000 g       *ABS*	00000000 __alt_mem_sdram_0
00000020 g       .exceptions	00000000 alt_irq_entry
01002750 g     F .text	00000018 __fp_unlock_all
010062ac g     F .text	00000010 altera_avalon_lcd_16207_write_fd
0100a2e8 g     O .rwdata	00000008 alt_fs_list
01004990 g     F .text	00000018 alt_write_flash_command_32bit_device_8bit_mode
01006b48 g     F .text	000000e0 epcs_read_buffer
0100515c g     F .text	000001d4 alt_epcs_flash_init
01006fc8 g     F .text	00000004 alt_ic_isr_register
0100a320 g       *ABS*	00000000 _edata
01006368 g     F .text	00000010 altera_avalon_uart_read_fd
0100a814 g       *ABS*	00000000 _end
01006ee4 g     F .text	0000004c alt_flash_open_dev
010055d4 g     F .text	00000088 altera_avalon_jtag_uart_ioctl
01006f88 g     F .text	00000040 alt_ic_irq_disable
010068d8 g     F .text	0000004c epcs_enter_4_bytes_mode
01003184 g     F .text	0000007c __swrite
0100a2e0 g     O .rwdata	00000004 __malloc_trim_threshold
010073e8 g     F .text	00000008 altera_nios2_qsys_irq_init
01007ce8 g     F .text	00000038 exit
01002d68 g     F .text	000000c8 _fwalk_reent
01006ed0 g     F .text	00000014 alt_flash_close_dev
01008158 g     F .text	00000060 __modsi3
01800000 g       *ABS*	00000000 __alt_data_end
00000020 g     F .exceptions	00000000 alt_exception
01002690 g     F .text	00000004 __sfp_lock_release
01008290 g     O .rodata	00000101 _ctype_
01006378 g     F .text	00000028 altera_avalon_uart_close
0100a330 g     O .bss	00000004 rx_len
010081c8 g     F .text	00000014 _exit
01006c80 g     F .text	00000094 alt_alarm_start
01008514 g     O .rwdata	00000028 TXT
01002ee8 g     F .text	00000194 __smakebuf_r
0100492c g     F .text	00000008 alt_write_native_32bit
01000db0 g     F .text	00000074 strlen
01006854 g     F .text	00000038 epcs_write_enable
01007168 g     F .text	0000018c open
01003e7c g     F .text	00000038 alt_flash_cfi_get_info
0100a300 g     O .rwdata	00000004 alt_priority_mask
01006f48 g     F .text	00000040 alt_ic_irq_enable
01006524 g     F .text	00000140 altera_avalon_uart_read
01004e3c g     F .text	00000080 alt_epcs_flash_read
0100a314 g     O .rwdata	00000008 alt_alarm_list
01006e38 g     F .text	0000004c _do_ctors
01000264 g     F .text	00000058 handle_button_interrupts
01003640 g     F .text	000000f4 close
0100756c g     F .text	00000020 alt_program_amd
00000000  w      *UND*	00000000 free
01002694 g     F .text	00000004 __sinit_lock_acquire
01006a3c g     F .text	0000010c epcs_write_buffer



Disassembly of section .exceptions:

00000020 <alt_exception>:
         * Process an exception.  For all exceptions we must preserve all
         * caller saved registers on the stack (See the Nios2 ABI
         * documentation for details).
         */

        addi  sp, sp, -76
  20:	deffed04 	addi	sp,sp,-76

#endif

#endif

        stw   ra,  0(sp)
  24:	dfc00015 	stw	ra,0(sp)
        /*
         * Leave a gap in the stack frame at 4(sp) for the muldiv handler to
         * store zero into.
         */

        stw   r1,   8(sp)
  28:	d8400215 	stw	at,8(sp)
        stw   r2,  12(sp)
  2c:	d8800315 	stw	r2,12(sp)
        stw   r3,  16(sp)
  30:	d8c00415 	stw	r3,16(sp)
        stw   r4,  20(sp)
  34:	d9000515 	stw	r4,20(sp)
        stw   r5,  24(sp)
  38:	d9400615 	stw	r5,24(sp)
        stw   r6,  28(sp)
  3c:	d9800715 	stw	r6,28(sp)
        stw   r7,  32(sp)
  40:	d9c00815 	stw	r7,32(sp)

        rdctl r5, estatus
  44:	000b307a 	rdctl	r5,estatus

        stw   r8,  36(sp)
  48:	da000915 	stw	r8,36(sp)
        stw   r9,  40(sp)
  4c:	da400a15 	stw	r9,40(sp)
        stw   r10, 44(sp)
  50:	da800b15 	stw	r10,44(sp)
        stw   r11, 48(sp)
  54:	dac00c15 	stw	r11,48(sp)
        stw   r12, 52(sp)
  58:	db000d15 	stw	r12,52(sp)
        stw   r13, 56(sp)
  5c:	db400e15 	stw	r13,56(sp)
        stw   r14, 60(sp)
  60:	db800f15 	stw	r14,60(sp)
        stw   r15, 64(sp)
  64:	dbc01015 	stw	r15,64(sp)
        /*
         * ea-4 contains the address of the instruction being executed
         * when the exception occured. For interrupt exceptions, we will
         * will be re-issue the isntruction. Store it in 72(sp)
         */
        stw   r5,  68(sp)  /* estatus */
  68:	d9401115 	stw	r5,68(sp)
        addi  r15, ea, -4  /* instruction that caused exception */
  6c:	ebffff04 	addi	r15,ea,-4
        stw   r15,  72(sp)
  70:	dbc01215 	stw	r15,72(sp)
#else
        /*
         * Test to see if the exception was a software exception or caused 
         * by an external interrupt, and vector accordingly.
         */
        rdctl r4, ipending
  74:	0009313a 	rdctl	r4,ipending
        andi  r2, r5, 1
  78:	2880004c 	andi	r2,r5,1
        beq   r2, zero, .Lnot_irq
  7c:	10000326 	beq	r2,zero,8c <alt_exception+0x6c>
        beq   r4, zero, .Lnot_irq
  80:	20000226 	beq	r4,zero,8c <alt_exception+0x6c>
        /*
         * Now that all necessary registers have been preserved, call 
         * alt_irq_handler() to process the interrupts.
         */

        call alt_irq_handler
  84:	00000ec0 	call	ec <alt_irq_handler>

        .section .exceptions.irqreturn, "xa"

        br    .Lexception_exit
  88:	00000306 	br	98 <alt_exception+0x78>
         * upon completion, so we write ea (address of instruction *after*
         * the one where the exception occured) into 72(sp). The actual
         * instruction that caused the exception is written in r2, which these
         * handlers will utilize.
         */
        stw   ea,  72(sp)  /* Don't re-issue */
  8c:	df401215 	stw	ea,72(sp)
        ldw   r2, -4(ea)   /* Instruction that caused exception */
  90:	e8bfff17 	ldw	r2,-4(ea)
#ifdef NIOS2_HAS_DEBUG_STUB
       /*
        *  Either tell the user now (if there is a debugger attached) or go into
        *  the debug monitor which will loop until a debugger is attached.
        */
        break
  94:	003da03a 	break	0
        /* 
         * Restore the saved registers, so that all general purpose registers 
         * have been restored to their state at the time the interrupt occured.
         */

        ldw   r5,  68(sp)
  98:	d9401117 	ldw	r5,68(sp)
        ldw   ea,  72(sp)  /* This becomes the PC once eret is executed */
  9c:	df401217 	ldw	ea,72(sp)
        ldw   ra,   0(sp)
  a0:	dfc00017 	ldw	ra,0(sp)

        wrctl estatus, r5
  a4:	2801707a 	wrctl	estatus,r5

        ldw   r1,   8(sp)
  a8:	d8400217 	ldw	at,8(sp)
        ldw   r2,  12(sp)
  ac:	d8800317 	ldw	r2,12(sp)
        ldw   r3,  16(sp)
  b0:	d8c00417 	ldw	r3,16(sp)
        ldw   r4,  20(sp)
  b4:	d9000517 	ldw	r4,20(sp)
        ldw   r5,  24(sp)
  b8:	d9400617 	ldw	r5,24(sp)
        ldw   r6,  28(sp)
  bc:	d9800717 	ldw	r6,28(sp)
        ldw   r7,  32(sp)
  c0:	d9c00817 	ldw	r7,32(sp)
#ifdef ALT_STACK_CHECK
        ldw   et, %gprel(alt_exception_old_stack_limit)(gp)
#endif
#endif

        ldw   r8,  36(sp)
  c4:	da000917 	ldw	r8,36(sp)
        ldw   r9,  40(sp)
  c8:	da400a17 	ldw	r9,40(sp)
        ldw   r10, 44(sp)
  cc:	da800b17 	ldw	r10,44(sp)
        ldw   r11, 48(sp)
  d0:	dac00c17 	ldw	r11,48(sp)
        ldw   r12, 52(sp)
  d4:	db000d17 	ldw	r12,52(sp)
        ldw   r13, 56(sp)
  d8:	db400e17 	ldw	r13,56(sp)
        ldw   r14, 60(sp)
  dc:	db800f17 	ldw	r14,60(sp)
        ldw   r15, 64(sp)
  e0:	dbc01017 	ldw	r15,64(sp)
#endif

        ldw   sp,  76(sp)

#else
        addi  sp, sp, 76
  e4:	dec01304 	addi	sp,sp,76

        /*
         * Return to the interrupted instruction.
         */

        eret
  e8:	ef80083a 	eret

000000ec <alt_irq_handler>:
 * instruction is present if the macro ALT_CI_INTERRUPT_VECTOR defined.
 */

void alt_irq_handler (void) __attribute__ ((section (".exceptions")));
void alt_irq_handler (void)
{
  ec:	defffe04 	addi	sp,sp,-8
  f0:	dfc00115 	stw	ra,4(sp)
  f4:	dc000015 	stw	r16,0(sp)
#ifndef NIOS2_EIC_PRESENT
static ALT_INLINE alt_u32 ALT_ALWAYS_INLINE alt_irq_pending (void)
{
  alt_u32 active;

  NIOS2_READ_IPENDING (active);
  f8:	000b313a 	rdctl	r5,ipending
     * called to clear the interrupt condition.
     */

    do
    {
      if (active & mask)
  fc:	2880004c 	andi	r2,r5,1
 100:	1005003a 	cmpeq	r2,r2,zero
 104:	04004074 	movhi	r16,257
 108:	84296104 	addi	r16,r16,-23164
 10c:	10001126 	beq	r2,zero,154 <alt_irq_handler+0x68>
 110:	00c00044 	movi	r3,1
 114:	0009883a 	mov	r4,zero
#else
        alt_irq[i].handler(alt_irq[i].context, i); 
#endif
        break;
      }
      mask <<= 1;
 118:	18c7883a 	add	r3,r3,r3
     * called to clear the interrupt condition.
     */

    do
    {
      if (active & mask)
 11c:	28c4703a 	and	r2,r5,r3
        alt_irq[i].handler(alt_irq[i].context, i); 
#endif
        break;
      }
      mask <<= 1;
      i++;
 120:	21000044 	addi	r4,r4,1
     * called to clear the interrupt condition.
     */

    do
    {
      if (active & mask)
 124:	103ffc26 	beq	r2,zero,118 <alt_irq_handler+0x2c>
      { 
#ifdef ALT_ENHANCED_INTERRUPT_API_PRESENT
        alt_irq[i].handler(alt_irq[i].context); 
 128:	200490fa 	slli	r2,r4,3
 12c:	1405883a 	add	r2,r2,r16
 130:	11000117 	ldw	r4,4(r2)
 134:	10c00017 	ldw	r3,0(r2)
 138:	183ee83a 	callr	r3
 13c:	0005313a 	rdctl	r2,ipending

    } while (1);

    active = alt_irq_pending ();
    
  } while (active);
 140:	10000c26 	beq	r2,zero,174 <alt_irq_handler+0x88>
 144:	100b883a 	mov	r5,r2
     * called to clear the interrupt condition.
     */

    do
    {
      if (active & mask)
 148:	2880004c 	andi	r2,r5,1
 14c:	1005003a 	cmpeq	r2,r2,zero
 150:	103fef1e 	bne	r2,zero,110 <alt_irq_handler+0x24>
 154:	0009883a 	mov	r4,zero
      { 
#ifdef ALT_ENHANCED_INTERRUPT_API_PRESENT
        alt_irq[i].handler(alt_irq[i].context); 
 158:	200490fa 	slli	r2,r4,3
 15c:	1405883a 	add	r2,r2,r16
 160:	11000117 	ldw	r4,4(r2)
 164:	10c00017 	ldw	r3,0(r2)
 168:	183ee83a 	callr	r3
 16c:	0005313a 	rdctl	r2,ipending

    } while (1);

    active = alt_irq_pending ();
    
  } while (active);
 170:	103ff41e 	bne	r2,zero,144 <alt_irq_handler+0x58>
  /*
   * Notify the operating system that interrupt processing is complete.
   */ 

  ALT_OS_INT_EXIT();
}
 174:	dfc00117 	ldw	ra,4(sp)
 178:	dc000017 	ldw	r16,0(sp)
 17c:	dec00204 	addi	sp,sp,8
 180:	f800283a 	ret

Disassembly of section .text:

01000000 <_start>:
#if (NIOS2_NUM_OF_SHADOW_REG_SETS == 0)    
    /*
     * Now that the caches are initialized, set up the stack pointer.
     * The value provided by the linker is assumed to be correctly aligned.
     */
    movhi sp, %hi(__alt_stack_pointer)
 1000000:	06c06034 	movhi	sp,384
    ori sp, sp, %lo(__alt_stack_pointer)
 1000004:	dec00014 	ori	sp,sp,0

    /* Set up the global pointer. */
    movhi gp, %hi(_gp)
 1000008:	06804074 	movhi	gp,257
    ori gp, gp, %lo(_gp)
 100000c:	d688b414 	ori	gp,gp,8912
 */
#ifndef ALT_SIM_OPTIMIZE
    /* Log that the BSS is about to be cleared. */
    ALT_LOG_PUTS(alt_log_msg_bss)

    movhi r2, %hi(__bss_start)
 1000010:	00804034 	movhi	r2,256
    ori r2, r2, %lo(__bss_start)
 1000014:	10a8c814 	ori	r2,r2,41760

    movhi r3, %hi(__bss_end)
 1000018:	00c04034 	movhi	r3,256
    ori r3, r3, %lo(__bss_end)
 100001c:	18ea0514 	ori	r3,r3,43028

    beq r2, r3, 1f
 1000020:	10c00326 	beq	r2,r3,1000030 <_start+0x30>

0:
    stw zero, (r2)
 1000024:	10000015 	stw	zero,0(r2)
    addi r2, r2, 4
 1000028:	10800104 	addi	r2,r2,4
    bltu r2, r3, 0b
 100002c:	10fffd36 	bltu	r2,r3,1000024 <_start+0x24>

    /* Log that alt_main is about to be called. */
    ALT_LOG_PUTS(alt_log_msg_alt_main)

    /* Call the C entry point. It should never return. */
    call alt_main
 1000030:	1003a080 	call	1003a08 <alt_main>

01000034 <alt_after_alt_main>:

    /* Wait in infinite loop in case alt_main does return. */
alt_after_alt_main:
    br alt_after_alt_main
 1000034:	003fff06 	br	1000034 <alt_after_alt_main>

01000038 <LCD_Line2>:
 1000038:	00c03004 	movi	r3,192
 100003c:	00800234 	movhi	r2,8
 1000040:	10887404 	addi	r2,r2,8656
 1000044:	10c00035 	stwio	r3,0(r2)
 1000048:	0101f404 	movi	r4,2000
 100004c:	1003c601 	jmpi	1003c60 <usleep>

01000050 <LCD_Init>:
 1000050:	defffd04 	addi	sp,sp,-12
 1000054:	dc800115 	stw	r18,4(sp)
 1000058:	00800e04 	movi	r2,56
 100005c:	04800234 	movhi	r18,8
 1000060:	94887404 	addi	r18,r18,8656
 1000064:	dfc00215 	stw	ra,8(sp)
 1000068:	dc400015 	stw	r17,0(sp)
 100006c:	90800035 	stwio	r2,0(r18)
 1000070:	0441f404 	movi	r17,2000
 1000074:	8809883a 	mov	r4,r17
 1000078:	1003c600 	call	1003c60 <usleep>
 100007c:	00c00304 	movi	r3,12
 1000080:	90c00035 	stwio	r3,0(r18)
 1000084:	8809883a 	mov	r4,r17
 1000088:	1003c600 	call	1003c60 <usleep>
 100008c:	00c00044 	movi	r3,1
 1000090:	90c00035 	stwio	r3,0(r18)
 1000094:	8809883a 	mov	r4,r17
 1000098:	1003c600 	call	1003c60 <usleep>
 100009c:	00c00184 	movi	r3,6
 10000a0:	90c00035 	stwio	r3,0(r18)
 10000a4:	8809883a 	mov	r4,r17
 10000a8:	1003c600 	call	1003c60 <usleep>
 10000ac:	00c02004 	movi	r3,128
 10000b0:	90c00035 	stwio	r3,0(r18)
 10000b4:	8809883a 	mov	r4,r17
 10000b8:	dfc00217 	ldw	ra,8(sp)
 10000bc:	dc800117 	ldw	r18,4(sp)
 10000c0:	dc400017 	ldw	r17,0(sp)
 10000c4:	dec00304 	addi	sp,sp,12
 10000c8:	1003c601 	jmpi	1003c60 <usleep>

010000cc <LCD_Show_Text>:
 10000cc:	defffc04 	addi	sp,sp,-16
 10000d0:	dc800215 	stw	r18,8(sp)
 10000d4:	dc400115 	stw	r17,4(sp)
 10000d8:	dc000015 	stw	r16,0(sp)
 10000dc:	2023883a 	mov	r17,r4
 10000e0:	0021883a 	mov	r16,zero
 10000e4:	04800234 	movhi	r18,8
 10000e8:	94887604 	addi	r18,r18,8664
 10000ec:	dfc00315 	stw	ra,12(sp)
 10000f0:	00000506 	br	1000108 <LCD_Show_Text+0x3c>
 10000f4:	18800007 	ldb	r2,0(r3)
 10000f8:	90800035 	stwio	r2,0(r18)
 10000fc:	0101f404 	movi	r4,2000
 1000100:	1003c600 	call	1003c60 <usleep>
 1000104:	84000044 	addi	r16,r16,1
 1000108:	8809883a 	mov	r4,r17
 100010c:	1000db00 	call	1000db0 <strlen>
 1000110:	8c07883a 	add	r3,r17,r16
 1000114:	80bff736 	bltu	r16,r2,10000f4 <LCD_Show_Text+0x28>
 1000118:	dfc00317 	ldw	ra,12(sp)
 100011c:	dc800217 	ldw	r18,8(sp)
 1000120:	dc400117 	ldw	r17,4(sp)
 1000124:	dc000017 	ldw	r16,0(sp)
 1000128:	dec00404 	addi	sp,sp,16
 100012c:	f800283a 	ret

01000130 <LCD_Test>:
 1000130:	00804074 	movhi	r2,257
 1000134:	10a07804 	addi	r2,r2,-32288
 1000138:	00c04074 	movhi	r3,257
 100013c:	18e07d04 	addi	r3,r3,-32268
 1000140:	12400317 	ldw	r9,12(r2)
 1000144:	11000017 	ldw	r4,0(r2)
 1000148:	11400117 	ldw	r5,4(r2)
 100014c:	11800217 	ldw	r6,8(r2)
 1000150:	1a800317 	ldw	r10,12(r3)
 1000154:	19c00017 	ldw	r7,0(r3)
 1000158:	18800117 	ldw	r2,4(r3)
 100015c:	1a000217 	ldw	r8,8(r3)
 1000160:	defff404 	addi	sp,sp,-48
 1000164:	dc800a15 	stw	r18,40(sp)
 1000168:	dc400915 	stw	r17,36(sp)
 100016c:	dc000815 	stw	r16,32(sp)
 1000170:	dfc00b15 	stw	ra,44(sp)
 1000174:	d9000415 	stw	r4,16(sp)
 1000178:	d9400515 	stw	r5,20(sp)
 100017c:	d9800615 	stw	r6,24(sp)
 1000180:	da400715 	stw	r9,28(sp)
 1000184:	d9c00015 	stw	r7,0(sp)
 1000188:	d8800115 	stw	r2,4(sp)
 100018c:	da000215 	stw	r8,8(sp)
 1000190:	da800315 	stw	r10,12(sp)
 1000194:	0021883a 	mov	r16,zero
 1000198:	10000500 	call	1000050 <LCD_Init>
 100019c:	dc400404 	addi	r17,sp,16
 10001a0:	04800234 	movhi	r18,8
 10001a4:	94887604 	addi	r18,r18,8664
 10001a8:	00000506 	br	10001c0 <LCD_Test+0x90>
 10001ac:	18800007 	ldb	r2,0(r3)
 10001b0:	90800035 	stwio	r2,0(r18)
 10001b4:	0101f404 	movi	r4,2000
 10001b8:	1003c600 	call	1003c60 <usleep>
 10001bc:	84000044 	addi	r16,r16,1
 10001c0:	8809883a 	mov	r4,r17
 10001c4:	1000db00 	call	1000db0 <strlen>
 10001c8:	8c07883a 	add	r3,r17,r16
 10001cc:	80bff736 	bltu	r16,r2,10001ac <LCD_Test+0x7c>
 10001d0:	00c03004 	movi	r3,192
 10001d4:	00800234 	movhi	r2,8
 10001d8:	10887404 	addi	r2,r2,8656
 10001dc:	10c00035 	stwio	r3,0(r2)
 10001e0:	0101f404 	movi	r4,2000
 10001e4:	1003c600 	call	1003c60 <usleep>
 10001e8:	0021883a 	mov	r16,zero
 10001ec:	04400234 	movhi	r17,8
 10001f0:	8c487604 	addi	r17,r17,8664
 10001f4:	00000506 	br	100020c <LCD_Test+0xdc>
 10001f8:	18800007 	ldb	r2,0(r3)
 10001fc:	88800035 	stwio	r2,0(r17)
 1000200:	0101f404 	movi	r4,2000
 1000204:	1003c600 	call	1003c60 <usleep>
 1000208:	84000044 	addi	r16,r16,1
 100020c:	d809883a 	mov	r4,sp
 1000210:	1000db00 	call	1000db0 <strlen>
 1000214:	dc07883a 	add	r3,sp,r16
 1000218:	80bff736 	bltu	r16,r2,10001f8 <LCD_Test+0xc8>
 100021c:	dfc00b17 	ldw	ra,44(sp)
 1000220:	dc800a17 	ldw	r18,40(sp)
 1000224:	dc400917 	ldw	r17,36(sp)
 1000228:	dc000817 	ldw	r16,32(sp)
 100022c:	dec00c04 	addi	sp,sp,48
 1000230:	f800283a 	ret

01000234 <init_button_irq>:
 1000234:	008003c4 	movi	r2,15
 1000238:	00c00234 	movhi	r3,8
 100023c:	18c86a04 	addi	r3,r3,8616
 1000240:	18800035 	stwio	r2,0(r3)
 1000244:	01000234 	movhi	r4,8
 1000248:	21086b04 	addi	r4,r4,8620
 100024c:	20000035 	stwio	zero,0(r4)
 1000250:	01000144 	movi	r4,5
 1000254:	000b883a 	mov	r5,zero
 1000258:	01804034 	movhi	r6,256
 100025c:	31809904 	addi	r6,r6,612
 1000260:	10037e81 	jmpi	10037e8 <alt_irq_register>

01000264 <handle_button_interrupts>:
 1000264:	defffd04 	addi	sp,sp,-12
 1000268:	dc000015 	stw	r16,0(sp)
 100026c:	dfc00215 	stw	ra,8(sp)
 1000270:	dc400115 	stw	r17,4(sp)
 1000274:	04000234 	movhi	r16,8
 1000278:	84086b04 	addi	r16,r16,8620
 100027c:	81000037 	ldwio	r4,0(r16)
 1000280:	81400037 	ldwio	r5,0(r16)
 1000284:	04400234 	movhi	r17,8
 1000288:	8c486c04 	addi	r17,r17,8624
 100028c:	1000cc40 	call	1000cc4 <__mulsi3>
 1000290:	88800035 	stwio	r2,0(r17)
 1000294:	80000035 	stwio	zero,0(r16)
 1000298:	01000234 	movhi	r4,8
 100029c:	21284804 	addi	r4,r4,-24288
 10002a0:	1003c600 	call	1003c60 <usleep>
 10002a4:	88000035 	stwio	zero,0(r17)
 10002a8:	dfc00217 	ldw	ra,8(sp)
 10002ac:	dc400117 	ldw	r17,4(sp)
 10002b0:	dc000017 	ldw	r16,0(sp)
 10002b4:	dec00304 	addi	sp,sp,12
 10002b8:	f800283a 	ret

010002bc <basic_test>:
 10002bc:	deffff04 	addi	sp,sp,-4
 10002c0:	dfc00015 	stw	ra,0(sp)
 10002c4:	10001300 	call	1000130 <LCD_Test>
 10002c8:	00800234 	movhi	r2,8
 10002cc:	10886c04 	addi	r2,r2,8624
 10002d0:	10000035 	stwio	zero,0(r2)
 10002d4:	00c00234 	movhi	r3,8
 10002d8:	18c87004 	addi	r3,r3,8640
 10002dc:	18000035 	stwio	zero,0(r3)
 10002e0:	01044474 	movhi	r4,4369
 10002e4:	21044444 	addi	r4,r4,4369
 10002e8:	10801804 	addi	r2,r2,96
 10002ec:	11000035 	stwio	r4,0(r2)
 10002f0:	014003c4 	movi	r5,15
 10002f4:	10bfe604 	addi	r2,r2,-104
 10002f8:	11400035 	stwio	r5,0(r2)
 10002fc:	18fffb04 	addi	r3,r3,-20
 1000300:	18000035 	stwio	zero,0(r3)
 1000304:	01000144 	movi	r4,5
 1000308:	000b883a 	mov	r5,zero
 100030c:	01804034 	movhi	r6,256
 1000310:	31809904 	addi	r6,r6,612
 1000314:	dfc00017 	ldw	ra,0(sp)
 1000318:	dec00104 	addi	sp,sp,4
 100031c:	10037e81 	jmpi	10037e8 <alt_irq_register>

01000320 <iow>:
 1000320:	00800234 	movhi	r2,8
 1000324:	10887a04 	addi	r2,r2,8680
 1000328:	11000035 	stwio	r4,0(r2)
 100032c:	00c00234 	movhi	r3,8
 1000330:	18c87b04 	addi	r3,r3,8684
 1000334:	19400035 	stwio	r5,0(r3)
 1000338:	f800283a 	ret

0100033c <ior>:
 100033c:	00800234 	movhi	r2,8
 1000340:	10887a04 	addi	r2,r2,8680
 1000344:	11000035 	stwio	r4,0(r2)
 1000348:	00c00234 	movhi	r3,8
 100034c:	18c87b04 	addi	r3,r3,8684
 1000350:	18800037 	ldwio	r2,0(r3)
 1000354:	f800283a 	ret

01000358 <phy_write>:
 1000358:	defffd04 	addi	sp,sp,-12
 100035c:	01800234 	movhi	r6,8
 1000360:	31887a04 	addi	r6,r6,8680
 1000364:	00800304 	movi	r2,12
 1000368:	dfc00215 	stw	ra,8(sp)
 100036c:	dc400115 	stw	r17,4(sp)
 1000370:	dc000015 	stw	r16,0(sp)
 1000374:	30800035 	stwio	r2,0(r6)
 1000378:	21001014 	ori	r4,r4,64
 100037c:	04000234 	movhi	r16,8
 1000380:	84087b04 	addi	r16,r16,8684
 1000384:	81000035 	stwio	r4,0(r16)
 1000388:	00c00384 	movi	r3,14
 100038c:	30c00035 	stwio	r3,0(r6)
 1000390:	2804d23a 	srli	r2,r5,8
 1000394:	01003fc4 	movi	r4,255
 1000398:	1104703a 	and	r2,r2,r4
 100039c:	80800035 	stwio	r2,0(r16)
 10003a0:	00c00344 	movi	r3,13
 10003a4:	30c00035 	stwio	r3,0(r6)
 10003a8:	290a703a 	and	r5,r5,r4
 10003ac:	81400035 	stwio	r5,0(r16)
 10003b0:	008002c4 	movi	r2,11
 10003b4:	30800035 	stwio	r2,0(r6)
 10003b8:	04400204 	movi	r17,8
 10003bc:	84400035 	stwio	r17,0(r16)
 10003c0:	00800284 	movi	r2,10
 10003c4:	80800035 	stwio	r2,0(r16)
 10003c8:	01000504 	movi	r4,20
 10003cc:	1003c600 	call	1003c60 <usleep>
 10003d0:	84400035 	stwio	r17,0(r16)
 10003d4:	01000c84 	movi	r4,50
 10003d8:	dfc00217 	ldw	ra,8(sp)
 10003dc:	dc400117 	ldw	r17,4(sp)
 10003e0:	dc000017 	ldw	r16,0(sp)
 10003e4:	dec00304 	addi	sp,sp,12
 10003e8:	1003c601 	jmpi	1003c60 <usleep>

010003ec <ReceivePacket>:
 10003ec:	defff904 	addi	sp,sp,-28
 10003f0:	dd000415 	stw	r20,16(sp)
 10003f4:	dc400115 	stw	r17,4(sp)
 10003f8:	05003fc4 	movi	r20,255
 10003fc:	04400234 	movhi	r17,8
 1000400:	8c487a04 	addi	r17,r17,8680
 1000404:	dfc00615 	stw	ra,24(sp)
 1000408:	dd400515 	stw	r21,20(sp)
 100040c:	dcc00315 	stw	r19,12(sp)
 1000410:	dc800215 	stw	r18,8(sp)
 1000414:	dc000015 	stw	r16,0(sp)
 1000418:	28000015 	stw	zero,0(r5)
 100041c:	8d000035 	stwio	r20,0(r17)
 1000420:	04800234 	movhi	r18,8
 1000424:	94887b04 	addi	r18,r18,8684
 1000428:	05402004 	movi	r21,128
 100042c:	95400035 	stwio	r21,0(r18)
 1000430:	00803c04 	movi	r2,240
 1000434:	88800035 	stwio	r2,0(r17)
 1000438:	90c00037 	ldwio	r3,0(r18)
 100043c:	90800037 	ldwio	r2,0(r18)
 1000440:	04c00044 	movi	r19,1
 1000444:	108000cc 	andi	r2,r2,3
 1000448:	14c03a26 	beq	r2,r19,1000534 <ReceivePacket+0x148>
 100044c:	98802f2e 	bgeu	r19,r2,100050c <ReceivePacket+0x120>
 1000450:	88000035 	stwio	zero,0(r17)
 1000454:	040000c4 	movi	r16,3
 1000458:	94000035 	stwio	r16,0(r18)
 100045c:	01000504 	movi	r4,20
 1000460:	1003c600 	call	1003c60 <usleep>
 1000464:	88000035 	stwio	zero,0(r17)
 1000468:	90000035 	stwio	zero,0(r18)
 100046c:	88000035 	stwio	zero,0(r17)
 1000470:	94000035 	stwio	r16,0(r18)
 1000474:	01000504 	movi	r4,20
 1000478:	1003c600 	call	1003c60 <usleep>
 100047c:	88000035 	stwio	zero,0(r17)
 1000480:	90000035 	stwio	zero,0(r18)
 1000484:	88000035 	stwio	zero,0(r17)
 1000488:	90000035 	stwio	zero,0(r18)
 100048c:	00800204 	movi	r2,8
 1000490:	88800035 	stwio	r2,0(r17)
 1000494:	00c00fc4 	movi	r3,63
 1000498:	90c00035 	stwio	r3,0(r18)
 100049c:	00800244 	movi	r2,9
 10004a0:	88800035 	stwio	r2,0(r17)
 10004a4:	00c01684 	movi	r3,90
 10004a8:	90c00035 	stwio	r3,0(r18)
 10004ac:	00800284 	movi	r2,10
 10004b0:	88800035 	stwio	r2,0(r17)
 10004b4:	00c00a44 	movi	r3,41
 10004b8:	90c00035 	stwio	r3,0(r18)
 10004bc:	008003c4 	movi	r2,15
 10004c0:	88800035 	stwio	r2,0(r17)
 10004c4:	90000035 	stwio	zero,0(r18)
 10004c8:	00800b44 	movi	r2,45
 10004cc:	88800035 	stwio	r2,0(r17)
 10004d0:	95400035 	stwio	r21,0(r18)
 10004d4:	00800c04 	movi	r2,48
 10004d8:	88800035 	stwio	r2,0(r17)
 10004dc:	00c020c4 	movi	r3,131
 10004e0:	90c00035 	stwio	r3,0(r18)
 10004e4:	8d000035 	stwio	r20,0(r17)
 10004e8:	00802044 	movi	r2,129
 10004ec:	90800035 	stwio	r2,0(r18)
 10004f0:	00c00144 	movi	r3,5
 10004f4:	88c00035 	stwio	r3,0(r17)
 10004f8:	00800e44 	movi	r2,57
 10004fc:	90800035 	stwio	r2,0(r18)
 1000500:	00c00234 	movhi	r3,8
 1000504:	18c87004 	addi	r3,r3,8640
 1000508:	1d000035 	stwio	r20,0(r3)
 100050c:	9805883a 	mov	r2,r19
 1000510:	dfc00617 	ldw	ra,24(sp)
 1000514:	dd400517 	ldw	r21,20(sp)
 1000518:	dd000417 	ldw	r20,16(sp)
 100051c:	dcc00317 	ldw	r19,12(sp)
 1000520:	dc800217 	ldw	r18,8(sp)
 1000524:	dc400117 	ldw	r17,4(sp)
 1000528:	dc000017 	ldw	r16,0(sp)
 100052c:	dec00704 	addi	sp,sp,28
 1000530:	f800283a 	ret
 1000534:	00803c84 	movi	r2,242
 1000538:	88800035 	stwio	r2,0(r17)
 100053c:	90c00037 	ldwio	r3,0(r18)
 1000540:	91800037 	ldwio	r6,0(r18)
 1000544:	18efc00c 	andi	r3,r3,48896
 1000548:	29800015 	stw	r6,0(r5)
 100054c:	18000f1e 	bne	r3,zero,100058c <ReceivePacket+0x1a0>
 1000550:	00817c44 	movi	r2,1521
 1000554:	11800d36 	bltu	r2,r6,100058c <ReceivePacket+0x1a0>
 1000558:	30000a26 	beq	r6,zero,1000584 <ReceivePacket+0x198>
 100055c:	900f883a 	mov	r7,r18
 1000560:	000d883a 	mov	r6,zero
 1000564:	38800037 	ldwio	r2,0(r7)
 1000568:	1006d23a 	srli	r3,r2,8
 100056c:	20800005 	stb	r2,0(r4)
 1000570:	31800084 	addi	r6,r6,2
 1000574:	20c00045 	stb	r3,1(r4)
 1000578:	28800017 	ldw	r2,0(r5)
 100057c:	21000084 	addi	r4,r4,2
 1000580:	30bff836 	bltu	r6,r2,1000564 <ReceivePacket+0x178>
 1000584:	0005883a 	mov	r2,zero
 1000588:	003fe106 	br	1000510 <ReceivePacket+0x124>
 100058c:	30000526 	beq	r6,zero,10005a4 <ReceivePacket+0x1b8>
 1000590:	9009883a 	mov	r4,r18
 1000594:	0007883a 	mov	r3,zero
 1000598:	20800037 	ldwio	r2,0(r4)
 100059c:	18c00084 	addi	r3,r3,2
 10005a0:	19bffd36 	bltu	r3,r6,1000598 <ReceivePacket+0x1ac>
 10005a4:	00800044 	movi	r2,1
 10005a8:	28000015 	stw	zero,0(r5)
 10005ac:	003fd806 	br	1000510 <ReceivePacket+0x124>

010005b0 <TransmitPacket>:
 10005b0:	defffc04 	addi	sp,sp,-16
 10005b4:	200f883a 	mov	r7,r4
 10005b8:	00803fc4 	movi	r2,255
 10005bc:	01000234 	movhi	r4,8
 10005c0:	21087a04 	addi	r4,r4,8680
 10005c4:	dfc00315 	stw	ra,12(sp)
 10005c8:	dc800215 	stw	r18,8(sp)
 10005cc:	dc400115 	stw	r17,4(sp)
 10005d0:	dc000015 	stw	r16,0(sp)
 10005d4:	20800035 	stwio	r2,0(r4)
 10005d8:	01800234 	movhi	r6,8
 10005dc:	31887b04 	addi	r6,r6,8684
 10005e0:	00802004 	movi	r2,128
 10005e4:	30800035 	stwio	r2,0(r6)
 10005e8:	00c03f44 	movi	r3,253
 10005ec:	20c00035 	stwio	r3,0(r4)
 10005f0:	2804d23a 	srli	r2,r5,8
 10005f4:	10803fcc 	andi	r2,r2,255
 10005f8:	30800035 	stwio	r2,0(r6)
 10005fc:	00c03f04 	movi	r3,252
 1000600:	20c00035 	stwio	r3,0(r4)
 1000604:	28803fcc 	andi	r2,r5,255
 1000608:	30800035 	stwio	r2,0(r6)
 100060c:	00c03e04 	movi	r3,248
 1000610:	20c00035 	stwio	r3,0(r4)
 1000614:	28000b26 	beq	r5,zero,1000644 <TransmitPacket+0x94>
 1000618:	3809883a 	mov	r4,r7
 100061c:	300f883a 	mov	r7,r6
 1000620:	000d883a 	mov	r6,zero
 1000624:	20800043 	ldbu	r2,1(r4)
 1000628:	20c00003 	ldbu	r3,0(r4)
 100062c:	1004923a 	slli	r2,r2,8
 1000630:	10c4b03a 	or	r2,r2,r3
 1000634:	38800035 	stwio	r2,0(r7)
 1000638:	31800084 	addi	r6,r6,2
 100063c:	21000084 	addi	r4,r4,2
 1000640:	317ff836 	bltu	r6,r5,1000624 <TransmitPacket+0x74>
 1000644:	01000234 	movhi	r4,8
 1000648:	21087a04 	addi	r4,r4,8680
 100064c:	00800084 	movi	r2,2
 1000650:	20800035 	stwio	r2,0(r4)
 1000654:	00c00234 	movhi	r3,8
 1000658:	18c87b04 	addi	r3,r3,8684
 100065c:	00800044 	movi	r2,1
 1000660:	18800035 	stwio	r2,0(r3)
 1000664:	2021883a 	mov	r16,r4
 1000668:	1025883a 	mov	r18,r2
 100066c:	1823883a 	mov	r17,r3
 1000670:	00000106 	br	1000678 <TransmitPacket+0xc8>
 1000674:	1003c600 	call	1003c60 <usleep>
 1000678:	84800035 	stwio	r18,0(r16)
 100067c:	88800037 	ldwio	r2,0(r17)
 1000680:	01000504 	movi	r4,20
 1000684:	1080030c 	andi	r2,r2,12
 1000688:	103ffa26 	beq	r2,zero,1000674 <TransmitPacket+0xc4>
 100068c:	84800035 	stwio	r18,0(r16)
 1000690:	88000035 	stwio	zero,0(r17)
 1000694:	00803fc4 	movi	r2,255
 1000698:	80800035 	stwio	r2,0(r16)
 100069c:	00c02044 	movi	r3,129
 10006a0:	88c00035 	stwio	r3,0(r17)
 10006a4:	0005883a 	mov	r2,zero
 10006a8:	dfc00317 	ldw	ra,12(sp)
 10006ac:	dc800217 	ldw	r18,8(sp)
 10006b0:	dc400117 	ldw	r17,4(sp)
 10006b4:	dc000017 	ldw	r16,0(sp)
 10006b8:	dec00404 	addi	sp,sp,16
 10006bc:	f800283a 	ret

010006c0 <ethernet_interrupts>:
 10006c0:	defffe04 	addi	sp,sp,-8
 10006c4:	01400234 	movhi	r5,8
 10006c8:	29487a04 	addi	r5,r5,8680
 10006cc:	01003f84 	movi	r4,254
 10006d0:	dfc00115 	stw	ra,4(sp)
 10006d4:	dc000015 	stw	r16,0(sp)
 10006d8:	29000035 	stwio	r4,0(r5)
 10006dc:	00c00234 	movhi	r3,8
 10006e0:	18c87b04 	addi	r3,r3,8684
 10006e4:	18800037 	ldwio	r2,0(r3)
 10006e8:	29000035 	stwio	r4,0(r5)
 10006ec:	18800035 	stwio	r2,0(r3)
 10006f0:	1080004c 	andi	r2,r2,1
 10006f4:	1005003a 	cmpeq	r2,r2,zero
 10006f8:	10000426 	beq	r2,zero,100070c <ethernet_interrupts+0x4c>
 10006fc:	dfc00117 	ldw	ra,4(sp)
 1000700:	dc000017 	ldw	r16,0(sp)
 1000704:	dec00204 	addi	sp,sp,8
 1000708:	f800283a 	ret
 100070c:	04004074 	movhi	r16,257
 1000710:	8428e104 	addi	r16,r16,-23676
 1000714:	8009883a 	mov	r4,r16
 1000718:	d1601804 	addi	r5,gp,-32672
 100071c:	10003ec0 	call	10003ec <ReceivePacket>
 1000720:	d0a01515 	stw	r2,-32684(gp)
 1000724:	00800234 	movhi	r2,8
 1000728:	10880904 	addi	r2,r2,8228
 100072c:	10c00037 	ldwio	r3,0(r2)
 1000730:	01804074 	movhi	r6,257
 1000734:	31a14504 	addi	r6,r6,-31468
 1000738:	1804d23a 	srli	r2,r3,8
 100073c:	180ad63a 	srli	r5,r3,24
 1000740:	1808d43a 	srli	r4,r3,16
 1000744:	308003c5 	stb	r2,15(r6)
 1000748:	31400445 	stb	r5,17(r6)
 100074c:	31000405 	stb	r4,16(r6)
 1000750:	30c00385 	stb	r3,14(r6)
 1000754:	00800234 	movhi	r2,8
 1000758:	10880a04 	addi	r2,r2,8232
 100075c:	11000037 	ldwio	r4,0(r2)
 1000760:	00c00234 	movhi	r3,8
 1000764:	18c88404 	addi	r3,r3,8720
 1000768:	19000035 	stwio	r4,0(r3)
 100076c:	2004d23a 	srli	r2,r4,8
 1000770:	200ad63a 	srli	r5,r4,24
 1000774:	2006d43a 	srli	r3,r4,16
 1000778:	308004c5 	stb	r2,19(r6)
 100077c:	31400545 	stb	r5,21(r6)
 1000780:	30c00505 	stb	r3,20(r6)
 1000784:	31000485 	stb	r4,18(r6)
 1000788:	00800234 	movhi	r2,8
 100078c:	10880b04 	addi	r2,r2,8236
 1000790:	10c00037 	ldwio	r3,0(r2)
 1000794:	1804d23a 	srli	r2,r3,8
 1000798:	1808d63a 	srli	r4,r3,24
 100079c:	180ad43a 	srli	r5,r3,16
 10007a0:	308005c5 	stb	r2,23(r6)
 10007a4:	31000645 	stb	r4,25(r6)
 10007a8:	31400605 	stb	r5,24(r6)
 10007ac:	30c00585 	stb	r3,22(r6)
 10007b0:	00800234 	movhi	r2,8
 10007b4:	10880c04 	addi	r2,r2,8240
 10007b8:	10c00037 	ldwio	r3,0(r2)
 10007bc:	1804d23a 	srli	r2,r3,8
 10007c0:	1808d63a 	srli	r4,r3,24
 10007c4:	180ad43a 	srli	r5,r3,16
 10007c8:	308006c5 	stb	r2,27(r6)
 10007cc:	31000745 	stb	r4,29(r6)
 10007d0:	31400705 	stb	r5,28(r6)
 10007d4:	30c00685 	stb	r3,26(r6)
 10007d8:	00800234 	movhi	r2,8
 10007dc:	10880d04 	addi	r2,r2,8244
 10007e0:	10c00037 	ldwio	r3,0(r2)
 10007e4:	1804d23a 	srli	r2,r3,8
 10007e8:	1808d63a 	srli	r4,r3,24
 10007ec:	180ad43a 	srli	r5,r3,16
 10007f0:	308007c5 	stb	r2,31(r6)
 10007f4:	31000845 	stb	r4,33(r6)
 10007f8:	31400805 	stb	r5,32(r6)
 10007fc:	30c00785 	stb	r3,30(r6)
 1000800:	00800234 	movhi	r2,8
 1000804:	10880e04 	addi	r2,r2,8248
 1000808:	10c00037 	ldwio	r3,0(r2)
 100080c:	01400984 	movi	r5,38
 1000810:	1810d63a 	srli	r8,r3,24
 1000814:	1804d23a 	srli	r2,r3,8
 1000818:	180ed43a 	srli	r7,r3,16
 100081c:	30c00885 	stb	r3,34(r6)
 1000820:	3009883a 	mov	r4,r6
 1000824:	308008c5 	stb	r2,35(r6)
 1000828:	31c00905 	stb	r7,36(r6)
 100082c:	32000945 	stb	r8,37(r6)
 1000830:	10005b00 	call	10005b0 <TransmitPacket>
 1000834:	80c00303 	ldbu	r3,12(r16)
 1000838:	00802004 	movi	r2,128
 100083c:	18bfaf1e 	bne	r3,r2,10006fc <ethernet_interrupts+0x3c>
 1000840:	80c00343 	ldbu	r3,13(r16)
 1000844:	00802ac4 	movi	r2,171
 1000848:	18bfac1e 	bne	r3,r2,10006fc <ethernet_interrupts+0x3c>
 100084c:	80800443 	ldbu	r2,17(r16)
 1000850:	80c00403 	ldbu	r3,16(r16)
 1000854:	810003c3 	ldbu	r4,15(r16)
 1000858:	1004963a 	slli	r2,r2,24
 100085c:	1806943a 	slli	r3,r3,16
 1000860:	81400383 	ldbu	r5,14(r16)
 1000864:	d1a01617 	ldw	r6,-32680(gp)
 1000868:	2008923a 	slli	r4,r4,8
 100086c:	10c4b03a 	or	r2,r2,r3
 1000870:	1144b03a 	or	r2,r2,r5
 1000874:	31800044 	addi	r6,r6,1
 1000878:	2088b03a 	or	r4,r4,r2
 100087c:	00c00234 	movhi	r3,8
 1000880:	18c80004 	addi	r3,r3,8192
 1000884:	d1a01615 	stw	r6,-32680(gp)
 1000888:	19000035 	stwio	r4,0(r3)
 100088c:	80800543 	ldbu	r2,21(r16)
 1000890:	80c00503 	ldbu	r3,20(r16)
 1000894:	810004c3 	ldbu	r4,19(r16)
 1000898:	1004963a 	slli	r2,r2,24
 100089c:	1806943a 	slli	r3,r3,16
 10008a0:	81400483 	ldbu	r5,18(r16)
 10008a4:	2008923a 	slli	r4,r4,8
 10008a8:	10c4b03a 	or	r2,r2,r3
 10008ac:	1144b03a 	or	r2,r2,r5
 10008b0:	2088b03a 	or	r4,r4,r2
 10008b4:	00c00234 	movhi	r3,8
 10008b8:	18c80104 	addi	r3,r3,8196
 10008bc:	19000035 	stwio	r4,0(r3)
 10008c0:	80800643 	ldbu	r2,25(r16)
 10008c4:	80c00603 	ldbu	r3,24(r16)
 10008c8:	810005c3 	ldbu	r4,23(r16)
 10008cc:	1004963a 	slli	r2,r2,24
 10008d0:	1806943a 	slli	r3,r3,16
 10008d4:	81400583 	ldbu	r5,22(r16)
 10008d8:	2008923a 	slli	r4,r4,8
 10008dc:	10c4b03a 	or	r2,r2,r3
 10008e0:	1144b03a 	or	r2,r2,r5
 10008e4:	2088b03a 	or	r4,r4,r2
 10008e8:	00c00234 	movhi	r3,8
 10008ec:	18c80204 	addi	r3,r3,8200
 10008f0:	19000035 	stwio	r4,0(r3)
 10008f4:	80800743 	ldbu	r2,29(r16)
 10008f8:	80c00703 	ldbu	r3,28(r16)
 10008fc:	810006c3 	ldbu	r4,27(r16)
 1000900:	1004963a 	slli	r2,r2,24
 1000904:	1806943a 	slli	r3,r3,16
 1000908:	81400683 	ldbu	r5,26(r16)
 100090c:	2008923a 	slli	r4,r4,8
 1000910:	10c4b03a 	or	r2,r2,r3
 1000914:	1144b03a 	or	r2,r2,r5
 1000918:	2088b03a 	or	r4,r4,r2
 100091c:	00c00234 	movhi	r3,8
 1000920:	18c80304 	addi	r3,r3,8204
 1000924:	19000035 	stwio	r4,0(r3)
 1000928:	80800843 	ldbu	r2,33(r16)
 100092c:	80c00803 	ldbu	r3,32(r16)
 1000930:	810007c3 	ldbu	r4,31(r16)
 1000934:	1004963a 	slli	r2,r2,24
 1000938:	1806943a 	slli	r3,r3,16
 100093c:	81400783 	ldbu	r5,30(r16)
 1000940:	2008923a 	slli	r4,r4,8
 1000944:	10c4b03a 	or	r2,r2,r3
 1000948:	1144b03a 	or	r2,r2,r5
 100094c:	2088b03a 	or	r4,r4,r2
 1000950:	00c00234 	movhi	r3,8
 1000954:	18c80404 	addi	r3,r3,8208
 1000958:	19000035 	stwio	r4,0(r3)
 100095c:	80800943 	ldbu	r2,37(r16)
 1000960:	80c00903 	ldbu	r3,36(r16)
 1000964:	810008c3 	ldbu	r4,35(r16)
 1000968:	1004963a 	slli	r2,r2,24
 100096c:	1806943a 	slli	r3,r3,16
 1000970:	81400883 	ldbu	r5,34(r16)
 1000974:	2008923a 	slli	r4,r4,8
 1000978:	10c4b03a 	or	r2,r2,r3
 100097c:	1144b03a 	or	r2,r2,r5
 1000980:	2088b03a 	or	r4,r4,r2
 1000984:	00c00234 	movhi	r3,8
 1000988:	18c80504 	addi	r3,r3,8212
 100098c:	19000035 	stwio	r4,0(r3)
 1000990:	80800a43 	ldbu	r2,41(r16)
 1000994:	80c00a03 	ldbu	r3,40(r16)
 1000998:	810009c3 	ldbu	r4,39(r16)
 100099c:	1004963a 	slli	r2,r2,24
 10009a0:	1806943a 	slli	r3,r3,16
 10009a4:	81400983 	ldbu	r5,38(r16)
 10009a8:	2008923a 	slli	r4,r4,8
 10009ac:	10c4b03a 	or	r2,r2,r3
 10009b0:	1144b03a 	or	r2,r2,r5
 10009b4:	2088b03a 	or	r4,r4,r2
 10009b8:	00c00234 	movhi	r3,8
 10009bc:	18c80604 	addi	r3,r3,8216
 10009c0:	19000035 	stwio	r4,0(r3)
 10009c4:	80800b43 	ldbu	r2,45(r16)
 10009c8:	80c00b03 	ldbu	r3,44(r16)
 10009cc:	81000ac3 	ldbu	r4,43(r16)
 10009d0:	1004963a 	slli	r2,r2,24
 10009d4:	1806943a 	slli	r3,r3,16
 10009d8:	81400a83 	ldbu	r5,42(r16)
 10009dc:	2008923a 	slli	r4,r4,8
 10009e0:	10c4b03a 	or	r2,r2,r3
 10009e4:	1144b03a 	or	r2,r2,r5
 10009e8:	2088b03a 	or	r4,r4,r2
 10009ec:	00c00234 	movhi	r3,8
 10009f0:	18c80704 	addi	r3,r3,8220
 10009f4:	19000035 	stwio	r4,0(r3)
 10009f8:	80800c43 	ldbu	r2,49(r16)
 10009fc:	80c00c03 	ldbu	r3,48(r16)
 1000a00:	81000bc3 	ldbu	r4,47(r16)
 1000a04:	1004963a 	slli	r2,r2,24
 1000a08:	1806943a 	slli	r3,r3,16
 1000a0c:	81400b83 	ldbu	r5,46(r16)
 1000a10:	2008923a 	slli	r4,r4,8
 1000a14:	10c4b03a 	or	r2,r2,r3
 1000a18:	1144b03a 	or	r2,r2,r5
 1000a1c:	2088b03a 	or	r4,r4,r2
 1000a20:	00c00234 	movhi	r3,8
 1000a24:	18c80804 	addi	r3,r3,8224
 1000a28:	19000035 	stwio	r4,0(r3)
 1000a2c:	300cd1fa 	srli	r6,r6,7
 1000a30:	00800234 	movhi	r2,8
 1000a34:	10886c04 	addi	r2,r2,8624
 1000a38:	3180004c 	andi	r6,r6,1
 1000a3c:	11800035 	stwio	r6,0(r2)
 1000a40:	003f2e06 	br	10006fc <ethernet_interrupts+0x3c>

01000a44 <DM9000_init>:
 1000a44:	defff804 	addi	sp,sp,-32
 1000a48:	dc400115 	stw	r17,4(sp)
 1000a4c:	00800784 	movi	r2,30
 1000a50:	04400234 	movhi	r17,8
 1000a54:	8c487a04 	addi	r17,r17,8680
 1000a58:	dfc00715 	stw	ra,28(sp)
 1000a5c:	ddc00615 	stw	r23,24(sp)
 1000a60:	dd400515 	stw	r21,20(sp)
 1000a64:	dd000415 	stw	r20,16(sp)
 1000a68:	dcc00315 	stw	r19,12(sp)
 1000a6c:	dc800215 	stw	r18,8(sp)
 1000a70:	dc000015 	stw	r16,0(sp)
 1000a74:	88800035 	stwio	r2,0(r17)
 1000a78:	04000234 	movhi	r16,8
 1000a7c:	84087b04 	addi	r16,r16,8684
 1000a80:	05400044 	movi	r21,1
 1000a84:	85400035 	stwio	r21,0(r16)
 1000a88:	04c007c4 	movi	r19,31
 1000a8c:	8cc00035 	stwio	r19,0(r17)
 1000a90:	80000035 	stwio	zero,0(r16)
 1000a94:	05c4e204 	movi	r23,5000
 1000a98:	b809883a 	mov	r4,r23
 1000a9c:	1003c600 	call	1003c60 <usleep>
 1000aa0:	88000035 	stwio	zero,0(r17)
 1000aa4:	048000c4 	movi	r18,3
 1000aa8:	84800035 	stwio	r18,0(r16)
 1000aac:	05000504 	movi	r20,20
 1000ab0:	a009883a 	mov	r4,r20
 1000ab4:	1003c600 	call	1003c60 <usleep>
 1000ab8:	88000035 	stwio	zero,0(r17)
 1000abc:	80000035 	stwio	zero,0(r16)
 1000ac0:	88000035 	stwio	zero,0(r17)
 1000ac4:	84800035 	stwio	r18,0(r16)
 1000ac8:	a009883a 	mov	r4,r20
 1000acc:	1003c600 	call	1003c60 <usleep>
 1000ad0:	88000035 	stwio	zero,0(r17)
 1000ad4:	80000035 	stwio	zero,0(r16)
 1000ad8:	8cc00035 	stwio	r19,0(r17)
 1000adc:	85400035 	stwio	r21,0(r16)
 1000ae0:	8cc00035 	stwio	r19,0(r17)
 1000ae4:	80000035 	stwio	zero,0(r16)
 1000ae8:	0109c404 	movi	r4,10000
 1000aec:	1003c600 	call	1003c60 <usleep>
 1000af0:	01600014 	movui	r5,32768
 1000af4:	0009883a 	mov	r4,zero
 1000af8:	10003580 	call	1000358 <phy_write>
 1000afc:	01000c84 	movi	r4,50
 1000b00:	1003c600 	call	1003c60 <usleep>
 1000b04:	04800404 	movi	r18,16
 1000b08:	9009883a 	mov	r4,r18
 1000b0c:	01410104 	movi	r5,1028
 1000b10:	10003580 	call	1000358 <phy_write>
 1000b14:	01000104 	movi	r4,4
 1000b18:	01417844 	movi	r5,1505
 1000b1c:	10003580 	call	1000358 <phy_write>
 1000b20:	01448004 	movi	r5,4608
 1000b24:	0009883a 	mov	r4,zero
 1000b28:	10003580 	call	1000358 <phy_write>
 1000b2c:	b809883a 	mov	r4,r23
 1000b30:	1003c600 	call	1003c60 <usleep>
 1000b34:	d0e00003 	ldbu	r3,-32768(gp)
 1000b38:	d1200004 	addi	r4,gp,-32768
 1000b3c:	8c800035 	stwio	r18,0(r17)
 1000b40:	80c00035 	stwio	r3,0(r16)
 1000b44:	21400043 	ldbu	r5,1(r4)
 1000b48:	00800444 	movi	r2,17
 1000b4c:	88800035 	stwio	r2,0(r17)
 1000b50:	81400035 	stwio	r5,0(r16)
 1000b54:	20c00083 	ldbu	r3,2(r4)
 1000b58:	00800484 	movi	r2,18
 1000b5c:	88800035 	stwio	r2,0(r17)
 1000b60:	80c00035 	stwio	r3,0(r16)
 1000b64:	214000c3 	ldbu	r5,3(r4)
 1000b68:	008004c4 	movi	r2,19
 1000b6c:	88800035 	stwio	r2,0(r17)
 1000b70:	81400035 	stwio	r5,0(r16)
 1000b74:	20800103 	ldbu	r2,4(r4)
 1000b78:	8d000035 	stwio	r20,0(r17)
 1000b7c:	80800035 	stwio	r2,0(r16)
 1000b80:	20c00143 	ldbu	r3,5(r4)
 1000b84:	00800544 	movi	r2,21
 1000b88:	88800035 	stwio	r2,0(r17)
 1000b8c:	80c00035 	stwio	r3,0(r16)
 1000b90:	00803f84 	movi	r2,254
 1000b94:	88800035 	stwio	r2,0(r17)
 1000b98:	00c00fc4 	movi	r3,63
 1000b9c:	80c00035 	stwio	r3,0(r16)
 1000ba0:	8d400035 	stwio	r21,0(r17)
 1000ba4:	00800b04 	movi	r2,44
 1000ba8:	80800035 	stwio	r2,0(r16)
 1000bac:	88000035 	stwio	zero,0(r17)
 1000bb0:	80000035 	stwio	zero,0(r16)
 1000bb4:	00800204 	movi	r2,8
 1000bb8:	88800035 	stwio	r2,0(r17)
 1000bbc:	80c00035 	stwio	r3,0(r16)
 1000bc0:	00800244 	movi	r2,9
 1000bc4:	88800035 	stwio	r2,0(r17)
 1000bc8:	00c01684 	movi	r3,90
 1000bcc:	80c00035 	stwio	r3,0(r16)
 1000bd0:	00800284 	movi	r2,10
 1000bd4:	88800035 	stwio	r2,0(r17)
 1000bd8:	00c00a44 	movi	r3,41
 1000bdc:	80c00035 	stwio	r3,0(r16)
 1000be0:	008003c4 	movi	r2,15
 1000be4:	88800035 	stwio	r2,0(r17)
 1000be8:	80000035 	stwio	zero,0(r16)
 1000bec:	01000b44 	movi	r4,45
 1000bf0:	89000035 	stwio	r4,0(r17)
 1000bf4:	01402004 	movi	r5,128
 1000bf8:	81400035 	stwio	r5,0(r16)
 1000bfc:	00800c04 	movi	r2,48
 1000c00:	88800035 	stwio	r2,0(r17)
 1000c04:	00c020c4 	movi	r3,131
 1000c08:	80c00035 	stwio	r3,0(r16)
 1000c0c:	00803fc4 	movi	r2,255
 1000c10:	88800035 	stwio	r2,0(r17)
 1000c14:	00c02044 	movi	r3,129
 1000c18:	80c00035 	stwio	r3,0(r16)
 1000c1c:	00800144 	movi	r2,5
 1000c20:	88800035 	stwio	r2,0(r17)
 1000c24:	00c00e44 	movi	r3,57
 1000c28:	80c00035 	stwio	r3,0(r16)
 1000c2c:	89000035 	stwio	r4,0(r17)
 1000c30:	80800037 	ldwio	r2,0(r16)
 1000c34:	1144c03a 	cmpne	r2,r2,r5
 1000c38:	dfc00717 	ldw	ra,28(sp)
 1000c3c:	ddc00617 	ldw	r23,24(sp)
 1000c40:	dd400517 	ldw	r21,20(sp)
 1000c44:	dd000417 	ldw	r20,16(sp)
 1000c48:	dcc00317 	ldw	r19,12(sp)
 1000c4c:	dc800217 	ldw	r18,8(sp)
 1000c50:	dc400117 	ldw	r17,4(sp)
 1000c54:	dc000017 	ldw	r16,0(sp)
 1000c58:	dec00804 	addi	sp,sp,32
 1000c5c:	f800283a 	ret

01000c60 <main>:
 1000c60:	defffe04 	addi	sp,sp,-8
 1000c64:	00800234 	movhi	r2,8
 1000c68:	10880504 	addi	r2,r2,8212
 1000c6c:	dfc00115 	stw	ra,4(sp)
 1000c70:	10000035 	stwio	zero,0(r2)
 1000c74:	010000b4 	movhi	r4,2
 1000c78:	2121a804 	addi	r4,r4,-31072
 1000c7c:	1003c600 	call	1003c60 <usleep>
 1000c80:	10001300 	call	1000130 <LCD_Test>
 1000c84:	01004074 	movhi	r4,257
 1000c88:	21208204 	addi	r4,r4,-32248
 1000c8c:	1000d9c0 	call	1000d9c <puts>
 1000c90:	1000a440 	call	1000a44 <DM9000_init>
 1000c94:	1000a440 	call	1000a44 <DM9000_init>
 1000c98:	01000204 	movi	r4,8
 1000c9c:	000b883a 	mov	r5,zero
 1000ca0:	01804034 	movhi	r6,256
 1000ca4:	3181b004 	addi	r6,r6,1728
 1000ca8:	10037e80 	call	10037e8 <alt_irq_register>
 1000cac:	d0201615 	stw	zero,-32680(gp)
 1000cb0:	d8000015 	stw	zero,0(sp)
 1000cb4:	d8800017 	ldw	r2,0(sp)
 1000cb8:	10800044 	addi	r2,r2,1
 1000cbc:	d8800015 	stw	r2,0(sp)
 1000cc0:	003ffc06 	br	1000cb4 <main+0x54>

01000cc4 <__mulsi3>:
 1000cc4:	20000a26 	beq	r4,zero,1000cf0 <__mulsi3+0x2c>
 1000cc8:	0007883a 	mov	r3,zero
 1000ccc:	2080004c 	andi	r2,r4,1
 1000cd0:	1005003a 	cmpeq	r2,r2,zero
 1000cd4:	2008d07a 	srli	r4,r4,1
 1000cd8:	1000011e 	bne	r2,zero,1000ce0 <__mulsi3+0x1c>
 1000cdc:	1947883a 	add	r3,r3,r5
 1000ce0:	294b883a 	add	r5,r5,r5
 1000ce4:	203ff91e 	bne	r4,zero,1000ccc <__mulsi3+0x8>
 1000ce8:	1805883a 	mov	r2,r3
 1000cec:	f800283a 	ret
 1000cf0:	0007883a 	mov	r3,zero
 1000cf4:	1805883a 	mov	r2,r3
 1000cf8:	f800283a 	ret

01000cfc <_puts_r>:
 1000cfc:	defff604 	addi	sp,sp,-40
 1000d00:	dc400715 	stw	r17,28(sp)
 1000d04:	2023883a 	mov	r17,r4
 1000d08:	2809883a 	mov	r4,r5
 1000d0c:	dfc00915 	stw	ra,36(sp)
 1000d10:	dcc00815 	stw	r19,32(sp)
 1000d14:	2827883a 	mov	r19,r5
 1000d18:	1000db00 	call	1000db0 <strlen>
 1000d1c:	89400217 	ldw	r5,8(r17)
 1000d20:	00c04074 	movhi	r3,257
 1000d24:	18e08704 	addi	r3,r3,-32228
 1000d28:	01c00044 	movi	r7,1
 1000d2c:	12000044 	addi	r8,r2,1
 1000d30:	d8c00515 	stw	r3,20(sp)
 1000d34:	d9c00615 	stw	r7,24(sp)
 1000d38:	d8c00304 	addi	r3,sp,12
 1000d3c:	01c00084 	movi	r7,2
 1000d40:	8809883a 	mov	r4,r17
 1000d44:	d80d883a 	mov	r6,sp
 1000d48:	d8c00015 	stw	r3,0(sp)
 1000d4c:	dcc00315 	stw	r19,12(sp)
 1000d50:	da000215 	stw	r8,8(sp)
 1000d54:	d9c00115 	stw	r7,4(sp)
 1000d58:	d8800415 	stw	r2,16(sp)
 1000d5c:	1000e240 	call	1000e24 <__sfvwrite_r>
 1000d60:	00ffffc4 	movi	r3,-1
 1000d64:	10000626 	beq	r2,zero,1000d80 <_puts_r+0x84>
 1000d68:	1805883a 	mov	r2,r3
 1000d6c:	dfc00917 	ldw	ra,36(sp)
 1000d70:	dcc00817 	ldw	r19,32(sp)
 1000d74:	dc400717 	ldw	r17,28(sp)
 1000d78:	dec00a04 	addi	sp,sp,40
 1000d7c:	f800283a 	ret
 1000d80:	00c00284 	movi	r3,10
 1000d84:	1805883a 	mov	r2,r3
 1000d88:	dfc00917 	ldw	ra,36(sp)
 1000d8c:	dcc00817 	ldw	r19,32(sp)
 1000d90:	dc400717 	ldw	r17,28(sp)
 1000d94:	dec00a04 	addi	sp,sp,40
 1000d98:	f800283a 	ret

01000d9c <puts>:
 1000d9c:	00804074 	movhi	r2,257
 1000da0:	10a8b604 	addi	r2,r2,-23848
 1000da4:	200b883a 	mov	r5,r4
 1000da8:	11000017 	ldw	r4,0(r2)
 1000dac:	1000cfc1 	jmpi	1000cfc <_puts_r>

01000db0 <strlen>:
 1000db0:	208000cc 	andi	r2,r4,3
 1000db4:	2011883a 	mov	r8,r4
 1000db8:	1000161e 	bne	r2,zero,1000e14 <strlen+0x64>
 1000dbc:	20c00017 	ldw	r3,0(r4)
 1000dc0:	017fbff4 	movhi	r5,65279
 1000dc4:	297fbfc4 	addi	r5,r5,-257
 1000dc8:	01e02074 	movhi	r7,32897
 1000dcc:	39e02004 	addi	r7,r7,-32640
 1000dd0:	1945883a 	add	r2,r3,r5
 1000dd4:	11c4703a 	and	r2,r2,r7
 1000dd8:	00c6303a 	nor	r3,zero,r3
 1000ddc:	1886703a 	and	r3,r3,r2
 1000de0:	18000c1e 	bne	r3,zero,1000e14 <strlen+0x64>
 1000de4:	280d883a 	mov	r6,r5
 1000de8:	380b883a 	mov	r5,r7
 1000dec:	21000104 	addi	r4,r4,4
 1000df0:	20800017 	ldw	r2,0(r4)
 1000df4:	1187883a 	add	r3,r2,r6
 1000df8:	1946703a 	and	r3,r3,r5
 1000dfc:	0084303a 	nor	r2,zero,r2
 1000e00:	10c4703a 	and	r2,r2,r3
 1000e04:	103ff926 	beq	r2,zero,1000dec <strlen+0x3c>
 1000e08:	20800007 	ldb	r2,0(r4)
 1000e0c:	10000326 	beq	r2,zero,1000e1c <strlen+0x6c>
 1000e10:	21000044 	addi	r4,r4,1
 1000e14:	20800007 	ldb	r2,0(r4)
 1000e18:	103ffd1e 	bne	r2,zero,1000e10 <strlen+0x60>
 1000e1c:	2205c83a 	sub	r2,r4,r8
 1000e20:	f800283a 	ret

01000e24 <__sfvwrite_r>:
 1000e24:	30800217 	ldw	r2,8(r6)
 1000e28:	defff504 	addi	sp,sp,-44
 1000e2c:	df000915 	stw	fp,36(sp)
 1000e30:	dd800715 	stw	r22,28(sp)
 1000e34:	dc800315 	stw	r18,12(sp)
 1000e38:	dfc00a15 	stw	ra,40(sp)
 1000e3c:	ddc00815 	stw	r23,32(sp)
 1000e40:	dd400615 	stw	r21,24(sp)
 1000e44:	dd000515 	stw	r20,20(sp)
 1000e48:	dcc00415 	stw	r19,16(sp)
 1000e4c:	dc400215 	stw	r17,8(sp)
 1000e50:	dc000115 	stw	r16,4(sp)
 1000e54:	302d883a 	mov	r22,r6
 1000e58:	2039883a 	mov	fp,r4
 1000e5c:	2825883a 	mov	r18,r5
 1000e60:	10001c26 	beq	r2,zero,1000ed4 <__sfvwrite_r+0xb0>
 1000e64:	29c0030b 	ldhu	r7,12(r5)
 1000e68:	3880020c 	andi	r2,r7,8
 1000e6c:	10002726 	beq	r2,zero,1000f0c <__sfvwrite_r+0xe8>
 1000e70:	28800417 	ldw	r2,16(r5)
 1000e74:	10002526 	beq	r2,zero,1000f0c <__sfvwrite_r+0xe8>
 1000e78:	3880008c 	andi	r2,r7,2
 1000e7c:	b5400017 	ldw	r21,0(r22)
 1000e80:	10002826 	beq	r2,zero,1000f24 <__sfvwrite_r+0x100>
 1000e84:	0021883a 	mov	r16,zero
 1000e88:	0023883a 	mov	r17,zero
 1000e8c:	880d883a 	mov	r6,r17
 1000e90:	e009883a 	mov	r4,fp
 1000e94:	00810004 	movi	r2,1024
 1000e98:	80006e26 	beq	r16,zero,1001054 <__sfvwrite_r+0x230>
 1000e9c:	800f883a 	mov	r7,r16
 1000ea0:	91400717 	ldw	r5,28(r18)
 1000ea4:	1400012e 	bgeu	r2,r16,1000eac <__sfvwrite_r+0x88>
 1000ea8:	100f883a 	mov	r7,r2
 1000eac:	90c00917 	ldw	r3,36(r18)
 1000eb0:	183ee83a 	callr	r3
 1000eb4:	1007883a 	mov	r3,r2
 1000eb8:	80a1c83a 	sub	r16,r16,r2
 1000ebc:	88a3883a 	add	r17,r17,r2
 1000ec0:	00806d0e 	bge	zero,r2,1001078 <__sfvwrite_r+0x254>
 1000ec4:	b0800217 	ldw	r2,8(r22)
 1000ec8:	10c5c83a 	sub	r2,r2,r3
 1000ecc:	b0800215 	stw	r2,8(r22)
 1000ed0:	103fee1e 	bne	r2,zero,1000e8c <__sfvwrite_r+0x68>
 1000ed4:	0009883a 	mov	r4,zero
 1000ed8:	2005883a 	mov	r2,r4
 1000edc:	dfc00a17 	ldw	ra,40(sp)
 1000ee0:	df000917 	ldw	fp,36(sp)
 1000ee4:	ddc00817 	ldw	r23,32(sp)
 1000ee8:	dd800717 	ldw	r22,28(sp)
 1000eec:	dd400617 	ldw	r21,24(sp)
 1000ef0:	dd000517 	ldw	r20,20(sp)
 1000ef4:	dcc00417 	ldw	r19,16(sp)
 1000ef8:	dc800317 	ldw	r18,12(sp)
 1000efc:	dc400217 	ldw	r17,8(sp)
 1000f00:	dc000117 	ldw	r16,4(sp)
 1000f04:	dec00b04 	addi	sp,sp,44
 1000f08:	f800283a 	ret
 1000f0c:	10022c80 	call	10022c8 <__swsetup_r>
 1000f10:	1000e41e 	bne	r2,zero,10012a4 <__sfvwrite_r+0x480>
 1000f14:	91c0030b 	ldhu	r7,12(r18)
 1000f18:	b5400017 	ldw	r21,0(r22)
 1000f1c:	3880008c 	andi	r2,r7,2
 1000f20:	103fd81e 	bne	r2,zero,1000e84 <__sfvwrite_r+0x60>
 1000f24:	3880004c 	andi	r2,r7,1
 1000f28:	1005003a 	cmpeq	r2,r2,zero
 1000f2c:	10005726 	beq	r2,zero,100108c <__sfvwrite_r+0x268>
 1000f30:	0029883a 	mov	r20,zero
 1000f34:	002f883a 	mov	r23,zero
 1000f38:	a0004226 	beq	r20,zero,1001044 <__sfvwrite_r+0x220>
 1000f3c:	3880800c 	andi	r2,r7,512
 1000f40:	94000217 	ldw	r16,8(r18)
 1000f44:	10008b26 	beq	r2,zero,1001174 <__sfvwrite_r+0x350>
 1000f48:	800d883a 	mov	r6,r16
 1000f4c:	a400a536 	bltu	r20,r16,10011e4 <__sfvwrite_r+0x3c0>
 1000f50:	3881200c 	andi	r2,r7,1152
 1000f54:	10002726 	beq	r2,zero,1000ff4 <__sfvwrite_r+0x1d0>
 1000f58:	90800517 	ldw	r2,20(r18)
 1000f5c:	92000417 	ldw	r8,16(r18)
 1000f60:	91400017 	ldw	r5,0(r18)
 1000f64:	1087883a 	add	r3,r2,r2
 1000f68:	1887883a 	add	r3,r3,r2
 1000f6c:	1808d7fa 	srli	r4,r3,31
 1000f70:	2a21c83a 	sub	r16,r5,r8
 1000f74:	80800044 	addi	r2,r16,1
 1000f78:	20c9883a 	add	r4,r4,r3
 1000f7c:	2027d07a 	srai	r19,r4,1
 1000f80:	a085883a 	add	r2,r20,r2
 1000f84:	980d883a 	mov	r6,r19
 1000f88:	9880022e 	bgeu	r19,r2,1000f94 <__sfvwrite_r+0x170>
 1000f8c:	1027883a 	mov	r19,r2
 1000f90:	100d883a 	mov	r6,r2
 1000f94:	3881000c 	andi	r2,r7,1024
 1000f98:	1000b826 	beq	r2,zero,100127c <__sfvwrite_r+0x458>
 1000f9c:	300b883a 	mov	r5,r6
 1000fa0:	e009883a 	mov	r4,fp
 1000fa4:	10012c00 	call	10012c0 <_malloc_r>
 1000fa8:	10003126 	beq	r2,zero,1001070 <__sfvwrite_r+0x24c>
 1000fac:	91400417 	ldw	r5,16(r18)
 1000fb0:	1009883a 	mov	r4,r2
 1000fb4:	800d883a 	mov	r6,r16
 1000fb8:	1023883a 	mov	r17,r2
 1000fbc:	1001ae40 	call	1001ae4 <memcpy>
 1000fc0:	90c0030b 	ldhu	r3,12(r18)
 1000fc4:	00beffc4 	movi	r2,-1025
 1000fc8:	1886703a 	and	r3,r3,r2
 1000fcc:	18c02014 	ori	r3,r3,128
 1000fd0:	90c0030d 	sth	r3,12(r18)
 1000fd4:	9c07c83a 	sub	r3,r19,r16
 1000fd8:	8c05883a 	add	r2,r17,r16
 1000fdc:	a00d883a 	mov	r6,r20
 1000fe0:	a021883a 	mov	r16,r20
 1000fe4:	90800015 	stw	r2,0(r18)
 1000fe8:	90c00215 	stw	r3,8(r18)
 1000fec:	94400415 	stw	r17,16(r18)
 1000ff0:	94c00515 	stw	r19,20(r18)
 1000ff4:	91000017 	ldw	r4,0(r18)
 1000ff8:	b80b883a 	mov	r5,r23
 1000ffc:	a023883a 	mov	r17,r20
 1001000:	1001b840 	call	1001b84 <memmove>
 1001004:	90c00217 	ldw	r3,8(r18)
 1001008:	90800017 	ldw	r2,0(r18)
 100100c:	a027883a 	mov	r19,r20
 1001010:	1c07c83a 	sub	r3,r3,r16
 1001014:	1405883a 	add	r2,r2,r16
 1001018:	90c00215 	stw	r3,8(r18)
 100101c:	a021883a 	mov	r16,r20
 1001020:	90800015 	stw	r2,0(r18)
 1001024:	b0800217 	ldw	r2,8(r22)
 1001028:	1405c83a 	sub	r2,r2,r16
 100102c:	b0800215 	stw	r2,8(r22)
 1001030:	103fa826 	beq	r2,zero,1000ed4 <__sfvwrite_r+0xb0>
 1001034:	a469c83a 	sub	r20,r20,r17
 1001038:	91c0030b 	ldhu	r7,12(r18)
 100103c:	bcef883a 	add	r23,r23,r19
 1001040:	a03fbe1e 	bne	r20,zero,1000f3c <__sfvwrite_r+0x118>
 1001044:	adc00017 	ldw	r23,0(r21)
 1001048:	ad000117 	ldw	r20,4(r21)
 100104c:	ad400204 	addi	r21,r21,8
 1001050:	003fb906 	br	1000f38 <__sfvwrite_r+0x114>
 1001054:	ac400017 	ldw	r17,0(r21)
 1001058:	ac000117 	ldw	r16,4(r21)
 100105c:	ad400204 	addi	r21,r21,8
 1001060:	003f8a06 	br	1000e8c <__sfvwrite_r+0x68>
 1001064:	91400417 	ldw	r5,16(r18)
 1001068:	e009883a 	mov	r4,fp
 100106c:	1002a540 	call	1002a54 <_free_r>
 1001070:	00800304 	movi	r2,12
 1001074:	e0800015 	stw	r2,0(fp)
 1001078:	9080030b 	ldhu	r2,12(r18)
 100107c:	013fffc4 	movi	r4,-1
 1001080:	10801014 	ori	r2,r2,64
 1001084:	9080030d 	sth	r2,12(r18)
 1001088:	003f9306 	br	1000ed8 <__sfvwrite_r+0xb4>
 100108c:	0027883a 	mov	r19,zero
 1001090:	002f883a 	mov	r23,zero
 1001094:	d8000015 	stw	zero,0(sp)
 1001098:	0029883a 	mov	r20,zero
 100109c:	98001e26 	beq	r19,zero,1001118 <__sfvwrite_r+0x2f4>
 10010a0:	d8c00017 	ldw	r3,0(sp)
 10010a4:	1804c03a 	cmpne	r2,r3,zero
 10010a8:	10005e26 	beq	r2,zero,1001224 <__sfvwrite_r+0x400>
 10010ac:	9821883a 	mov	r16,r19
 10010b0:	a4c0012e 	bgeu	r20,r19,10010b8 <__sfvwrite_r+0x294>
 10010b4:	a021883a 	mov	r16,r20
 10010b8:	91000017 	ldw	r4,0(r18)
 10010bc:	90800417 	ldw	r2,16(r18)
 10010c0:	91800217 	ldw	r6,8(r18)
 10010c4:	91c00517 	ldw	r7,20(r18)
 10010c8:	1100022e 	bgeu	r2,r4,10010d4 <__sfvwrite_r+0x2b0>
 10010cc:	31e3883a 	add	r17,r6,r7
 10010d0:	8c001616 	blt	r17,r16,100112c <__sfvwrite_r+0x308>
 10010d4:	81c03816 	blt	r16,r7,10011b8 <__sfvwrite_r+0x394>
 10010d8:	90c00917 	ldw	r3,36(r18)
 10010dc:	91400717 	ldw	r5,28(r18)
 10010e0:	e009883a 	mov	r4,fp
 10010e4:	b80d883a 	mov	r6,r23
 10010e8:	183ee83a 	callr	r3
 10010ec:	1023883a 	mov	r17,r2
 10010f0:	00bfe10e 	bge	zero,r2,1001078 <__sfvwrite_r+0x254>
 10010f4:	a469c83a 	sub	r20,r20,r17
 10010f8:	a0001826 	beq	r20,zero,100115c <__sfvwrite_r+0x338>
 10010fc:	b0800217 	ldw	r2,8(r22)
 1001100:	1445c83a 	sub	r2,r2,r17
 1001104:	b0800215 	stw	r2,8(r22)
 1001108:	103f7226 	beq	r2,zero,1000ed4 <__sfvwrite_r+0xb0>
 100110c:	9c67c83a 	sub	r19,r19,r17
 1001110:	bc6f883a 	add	r23,r23,r17
 1001114:	983fe21e 	bne	r19,zero,10010a0 <__sfvwrite_r+0x27c>
 1001118:	adc00017 	ldw	r23,0(r21)
 100111c:	acc00117 	ldw	r19,4(r21)
 1001120:	ad400204 	addi	r21,r21,8
 1001124:	d8000015 	stw	zero,0(sp)
 1001128:	003fdc06 	br	100109c <__sfvwrite_r+0x278>
 100112c:	b80b883a 	mov	r5,r23
 1001130:	880d883a 	mov	r6,r17
 1001134:	1001b840 	call	1001b84 <memmove>
 1001138:	90c00017 	ldw	r3,0(r18)
 100113c:	e009883a 	mov	r4,fp
 1001140:	900b883a 	mov	r5,r18
 1001144:	1c47883a 	add	r3,r3,r17
 1001148:	90c00015 	stw	r3,0(r18)
 100114c:	10024040 	call	1002404 <_fflush_r>
 1001150:	103fc91e 	bne	r2,zero,1001078 <__sfvwrite_r+0x254>
 1001154:	a469c83a 	sub	r20,r20,r17
 1001158:	a03fe81e 	bne	r20,zero,10010fc <__sfvwrite_r+0x2d8>
 100115c:	e009883a 	mov	r4,fp
 1001160:	900b883a 	mov	r5,r18
 1001164:	10024040 	call	1002404 <_fflush_r>
 1001168:	103fc31e 	bne	r2,zero,1001078 <__sfvwrite_r+0x254>
 100116c:	d8000015 	stw	zero,0(sp)
 1001170:	003fe206 	br	10010fc <__sfvwrite_r+0x2d8>
 1001174:	91000017 	ldw	r4,0(r18)
 1001178:	90800417 	ldw	r2,16(r18)
 100117c:	1100022e 	bgeu	r2,r4,1001188 <__sfvwrite_r+0x364>
 1001180:	8023883a 	mov	r17,r16
 1001184:	85003136 	bltu	r16,r20,100124c <__sfvwrite_r+0x428>
 1001188:	91c00517 	ldw	r7,20(r18)
 100118c:	a1c01836 	bltu	r20,r7,10011f0 <__sfvwrite_r+0x3cc>
 1001190:	90c00917 	ldw	r3,36(r18)
 1001194:	91400717 	ldw	r5,28(r18)
 1001198:	e009883a 	mov	r4,fp
 100119c:	b80d883a 	mov	r6,r23
 10011a0:	183ee83a 	callr	r3
 10011a4:	1021883a 	mov	r16,r2
 10011a8:	00bfb30e 	bge	zero,r2,1001078 <__sfvwrite_r+0x254>
 10011ac:	1023883a 	mov	r17,r2
 10011b0:	1027883a 	mov	r19,r2
 10011b4:	003f9b06 	br	1001024 <__sfvwrite_r+0x200>
 10011b8:	b80b883a 	mov	r5,r23
 10011bc:	800d883a 	mov	r6,r16
 10011c0:	1001b840 	call	1001b84 <memmove>
 10011c4:	90c00217 	ldw	r3,8(r18)
 10011c8:	90800017 	ldw	r2,0(r18)
 10011cc:	8023883a 	mov	r17,r16
 10011d0:	1c07c83a 	sub	r3,r3,r16
 10011d4:	1405883a 	add	r2,r2,r16
 10011d8:	90c00215 	stw	r3,8(r18)
 10011dc:	90800015 	stw	r2,0(r18)
 10011e0:	003fc406 	br	10010f4 <__sfvwrite_r+0x2d0>
 10011e4:	a00d883a 	mov	r6,r20
 10011e8:	a021883a 	mov	r16,r20
 10011ec:	003f8106 	br	1000ff4 <__sfvwrite_r+0x1d0>
 10011f0:	b80b883a 	mov	r5,r23
 10011f4:	a00d883a 	mov	r6,r20
 10011f8:	1001b840 	call	1001b84 <memmove>
 10011fc:	90c00217 	ldw	r3,8(r18)
 1001200:	90800017 	ldw	r2,0(r18)
 1001204:	a021883a 	mov	r16,r20
 1001208:	1d07c83a 	sub	r3,r3,r20
 100120c:	1505883a 	add	r2,r2,r20
 1001210:	a023883a 	mov	r17,r20
 1001214:	a027883a 	mov	r19,r20
 1001218:	90c00215 	stw	r3,8(r18)
 100121c:	90800015 	stw	r2,0(r18)
 1001220:	003f8006 	br	1001024 <__sfvwrite_r+0x200>
 1001224:	b809883a 	mov	r4,r23
 1001228:	01400284 	movi	r5,10
 100122c:	980d883a 	mov	r6,r19
 1001230:	1001a000 	call	1001a00 <memchr>
 1001234:	10001726 	beq	r2,zero,1001294 <__sfvwrite_r+0x470>
 1001238:	15c5c83a 	sub	r2,r2,r23
 100123c:	15000044 	addi	r20,r2,1
 1001240:	00800044 	movi	r2,1
 1001244:	d8800015 	stw	r2,0(sp)
 1001248:	003f9806 	br	10010ac <__sfvwrite_r+0x288>
 100124c:	b80b883a 	mov	r5,r23
 1001250:	800d883a 	mov	r6,r16
 1001254:	1001b840 	call	1001b84 <memmove>
 1001258:	90c00017 	ldw	r3,0(r18)
 100125c:	e009883a 	mov	r4,fp
 1001260:	900b883a 	mov	r5,r18
 1001264:	1c07883a 	add	r3,r3,r16
 1001268:	90c00015 	stw	r3,0(r18)
 100126c:	8027883a 	mov	r19,r16
 1001270:	10024040 	call	1002404 <_fflush_r>
 1001274:	103f6b26 	beq	r2,zero,1001024 <__sfvwrite_r+0x200>
 1001278:	003f7f06 	br	1001078 <__sfvwrite_r+0x254>
 100127c:	400b883a 	mov	r5,r8
 1001280:	e009883a 	mov	r4,fp
 1001284:	1001c640 	call	1001c64 <_realloc_r>
 1001288:	103f7626 	beq	r2,zero,1001064 <__sfvwrite_r+0x240>
 100128c:	1023883a 	mov	r17,r2
 1001290:	003f5006 	br	1000fd4 <__sfvwrite_r+0x1b0>
 1001294:	00c00044 	movi	r3,1
 1001298:	9d000044 	addi	r20,r19,1
 100129c:	d8c00015 	stw	r3,0(sp)
 10012a0:	003f8206 	br	10010ac <__sfvwrite_r+0x288>
 10012a4:	9080030b 	ldhu	r2,12(r18)
 10012a8:	00c00244 	movi	r3,9
 10012ac:	013fffc4 	movi	r4,-1
 10012b0:	10801014 	ori	r2,r2,64
 10012b4:	9080030d 	sth	r2,12(r18)
 10012b8:	e0c00015 	stw	r3,0(fp)
 10012bc:	003f0606 	br	1000ed8 <__sfvwrite_r+0xb4>

010012c0 <_malloc_r>:
 10012c0:	defff604 	addi	sp,sp,-40
 10012c4:	28c002c4 	addi	r3,r5,11
 10012c8:	00800584 	movi	r2,22
 10012cc:	dc800215 	stw	r18,8(sp)
 10012d0:	dfc00915 	stw	ra,36(sp)
 10012d4:	df000815 	stw	fp,32(sp)
 10012d8:	ddc00715 	stw	r23,28(sp)
 10012dc:	dd800615 	stw	r22,24(sp)
 10012e0:	dd400515 	stw	r21,20(sp)
 10012e4:	dd000415 	stw	r20,16(sp)
 10012e8:	dcc00315 	stw	r19,12(sp)
 10012ec:	dc400115 	stw	r17,4(sp)
 10012f0:	dc000015 	stw	r16,0(sp)
 10012f4:	2025883a 	mov	r18,r4
 10012f8:	10c01236 	bltu	r2,r3,1001344 <_malloc_r+0x84>
 10012fc:	04400404 	movi	r17,16
 1001300:	8940142e 	bgeu	r17,r5,1001354 <_malloc_r+0x94>
 1001304:	00800304 	movi	r2,12
 1001308:	0007883a 	mov	r3,zero
 100130c:	90800015 	stw	r2,0(r18)
 1001310:	1805883a 	mov	r2,r3
 1001314:	dfc00917 	ldw	ra,36(sp)
 1001318:	df000817 	ldw	fp,32(sp)
 100131c:	ddc00717 	ldw	r23,28(sp)
 1001320:	dd800617 	ldw	r22,24(sp)
 1001324:	dd400517 	ldw	r21,20(sp)
 1001328:	dd000417 	ldw	r20,16(sp)
 100132c:	dcc00317 	ldw	r19,12(sp)
 1001330:	dc800217 	ldw	r18,8(sp)
 1001334:	dc400117 	ldw	r17,4(sp)
 1001338:	dc000017 	ldw	r16,0(sp)
 100133c:	dec00a04 	addi	sp,sp,40
 1001340:	f800283a 	ret
 1001344:	00bffe04 	movi	r2,-8
 1001348:	18a2703a 	and	r17,r3,r2
 100134c:	883fed16 	blt	r17,zero,1001304 <_malloc_r+0x44>
 1001350:	897fec36 	bltu	r17,r5,1001304 <_malloc_r+0x44>
 1001354:	9009883a 	mov	r4,r18
 1001358:	1003a680 	call	1003a68 <__malloc_lock>
 100135c:	00807dc4 	movi	r2,503
 1001360:	14402b2e 	bgeu	r2,r17,1001410 <_malloc_r+0x150>
 1001364:	8806d27a 	srli	r3,r17,9
 1001368:	18003f1e 	bne	r3,zero,1001468 <_malloc_r+0x1a8>
 100136c:	880cd0fa 	srli	r6,r17,3
 1001370:	300490fa 	slli	r2,r6,3
 1001374:	02c04074 	movhi	r11,257
 1001378:	5ae24f04 	addi	r11,r11,-30404
 100137c:	12cb883a 	add	r5,r2,r11
 1001380:	2c000317 	ldw	r16,12(r5)
 1001384:	580f883a 	mov	r7,r11
 1001388:	2c00041e 	bne	r5,r16,100139c <_malloc_r+0xdc>
 100138c:	00000a06 	br	10013b8 <_malloc_r+0xf8>
 1001390:	1800860e 	bge	r3,zero,10015ac <_malloc_r+0x2ec>
 1001394:	84000317 	ldw	r16,12(r16)
 1001398:	2c000726 	beq	r5,r16,10013b8 <_malloc_r+0xf8>
 100139c:	80800117 	ldw	r2,4(r16)
 10013a0:	00ffff04 	movi	r3,-4
 10013a4:	10c8703a 	and	r4,r2,r3
 10013a8:	2447c83a 	sub	r3,r4,r17
 10013ac:	008003c4 	movi	r2,15
 10013b0:	10fff70e 	bge	r2,r3,1001390 <_malloc_r+0xd0>
 10013b4:	31bfffc4 	addi	r6,r6,-1
 10013b8:	32400044 	addi	r9,r6,1
 10013bc:	02804074 	movhi	r10,257
 10013c0:	52a25104 	addi	r10,r10,-30396
 10013c4:	54000217 	ldw	r16,8(r10)
 10013c8:	8280a026 	beq	r16,r10,100164c <_malloc_r+0x38c>
 10013cc:	80800117 	ldw	r2,4(r16)
 10013d0:	00ffff04 	movi	r3,-4
 10013d4:	10ca703a 	and	r5,r2,r3
 10013d8:	2c4dc83a 	sub	r6,r5,r17
 10013dc:	008003c4 	movi	r2,15
 10013e0:	11808316 	blt	r2,r6,10015f0 <_malloc_r+0x330>
 10013e4:	52800315 	stw	r10,12(r10)
 10013e8:	52800215 	stw	r10,8(r10)
 10013ec:	30002916 	blt	r6,zero,1001494 <_malloc_r+0x1d4>
 10013f0:	8147883a 	add	r3,r16,r5
 10013f4:	18800117 	ldw	r2,4(r3)
 10013f8:	9009883a 	mov	r4,r18
 10013fc:	10800054 	ori	r2,r2,1
 1001400:	18800115 	stw	r2,4(r3)
 1001404:	1003a6c0 	call	1003a6c <__malloc_unlock>
 1001408:	80c00204 	addi	r3,r16,8
 100140c:	003fc006 	br	1001310 <_malloc_r+0x50>
 1001410:	02c04074 	movhi	r11,257
 1001414:	5ae24f04 	addi	r11,r11,-30404
 1001418:	8ac5883a 	add	r2,r17,r11
 100141c:	14000317 	ldw	r16,12(r2)
 1001420:	580f883a 	mov	r7,r11
 1001424:	8806d0fa 	srli	r3,r17,3
 1001428:	14006c26 	beq	r2,r16,10015dc <_malloc_r+0x31c>
 100142c:	80c00117 	ldw	r3,4(r16)
 1001430:	00bfff04 	movi	r2,-4
 1001434:	81800317 	ldw	r6,12(r16)
 1001438:	1886703a 	and	r3,r3,r2
 100143c:	80c7883a 	add	r3,r16,r3
 1001440:	18800117 	ldw	r2,4(r3)
 1001444:	81400217 	ldw	r5,8(r16)
 1001448:	9009883a 	mov	r4,r18
 100144c:	10800054 	ori	r2,r2,1
 1001450:	18800115 	stw	r2,4(r3)
 1001454:	31400215 	stw	r5,8(r6)
 1001458:	29800315 	stw	r6,12(r5)
 100145c:	1003a6c0 	call	1003a6c <__malloc_unlock>
 1001460:	80c00204 	addi	r3,r16,8
 1001464:	003faa06 	br	1001310 <_malloc_r+0x50>
 1001468:	00800104 	movi	r2,4
 100146c:	10c0052e 	bgeu	r2,r3,1001484 <_malloc_r+0x1c4>
 1001470:	00800504 	movi	r2,20
 1001474:	10c07836 	bltu	r2,r3,1001658 <_malloc_r+0x398>
 1001478:	198016c4 	addi	r6,r3,91
 100147c:	300490fa 	slli	r2,r6,3
 1001480:	003fbc06 	br	1001374 <_malloc_r+0xb4>
 1001484:	8804d1ba 	srli	r2,r17,6
 1001488:	11800e04 	addi	r6,r2,56
 100148c:	300490fa 	slli	r2,r6,3
 1001490:	003fb806 	br	1001374 <_malloc_r+0xb4>
 1001494:	00807fc4 	movi	r2,511
 1001498:	1140bb36 	bltu	r2,r5,1001788 <_malloc_r+0x4c8>
 100149c:	2806d0fa 	srli	r3,r5,3
 10014a0:	573ffe04 	addi	fp,r10,-8
 10014a4:	00800044 	movi	r2,1
 10014a8:	180890fa 	slli	r4,r3,3
 10014ac:	1807d0ba 	srai	r3,r3,2
 10014b0:	e1c00117 	ldw	r7,4(fp)
 10014b4:	5909883a 	add	r4,r11,r4
 10014b8:	21400217 	ldw	r5,8(r4)
 10014bc:	10c4983a 	sll	r2,r2,r3
 10014c0:	81000315 	stw	r4,12(r16)
 10014c4:	81400215 	stw	r5,8(r16)
 10014c8:	388eb03a 	or	r7,r7,r2
 10014cc:	2c000315 	stw	r16,12(r5)
 10014d0:	24000215 	stw	r16,8(r4)
 10014d4:	e1c00115 	stw	r7,4(fp)
 10014d8:	4807883a 	mov	r3,r9
 10014dc:	4800cd16 	blt	r9,zero,1001814 <_malloc_r+0x554>
 10014e0:	1807d0ba 	srai	r3,r3,2
 10014e4:	00800044 	movi	r2,1
 10014e8:	10c8983a 	sll	r4,r2,r3
 10014ec:	39004436 	bltu	r7,r4,1001600 <_malloc_r+0x340>
 10014f0:	21c4703a 	and	r2,r4,r7
 10014f4:	10000a1e 	bne	r2,zero,1001520 <_malloc_r+0x260>
 10014f8:	2109883a 	add	r4,r4,r4
 10014fc:	00bfff04 	movi	r2,-4
 1001500:	4884703a 	and	r2,r9,r2
 1001504:	3906703a 	and	r3,r7,r4
 1001508:	12400104 	addi	r9,r2,4
 100150c:	1800041e 	bne	r3,zero,1001520 <_malloc_r+0x260>
 1001510:	2109883a 	add	r4,r4,r4
 1001514:	3904703a 	and	r2,r7,r4
 1001518:	4a400104 	addi	r9,r9,4
 100151c:	103ffc26 	beq	r2,zero,1001510 <_malloc_r+0x250>
 1001520:	480490fa 	slli	r2,r9,3
 1001524:	4819883a 	mov	r12,r9
 1001528:	023fff04 	movi	r8,-4
 100152c:	589b883a 	add	r13,r11,r2
 1001530:	6807883a 	mov	r3,r13
 1001534:	014003c4 	movi	r5,15
 1001538:	1c000317 	ldw	r16,12(r3)
 100153c:	1c00041e 	bne	r3,r16,1001550 <_malloc_r+0x290>
 1001540:	0000a706 	br	10017e0 <_malloc_r+0x520>
 1001544:	3000ab0e 	bge	r6,zero,10017f4 <_malloc_r+0x534>
 1001548:	84000317 	ldw	r16,12(r16)
 100154c:	1c00a426 	beq	r3,r16,10017e0 <_malloc_r+0x520>
 1001550:	80800117 	ldw	r2,4(r16)
 1001554:	1204703a 	and	r2,r2,r8
 1001558:	144dc83a 	sub	r6,r2,r17
 100155c:	29bff90e 	bge	r5,r6,1001544 <_malloc_r+0x284>
 1001560:	81000317 	ldw	r4,12(r16)
 1001564:	80c00217 	ldw	r3,8(r16)
 1001568:	89400054 	ori	r5,r17,1
 100156c:	8445883a 	add	r2,r16,r17
 1001570:	20c00215 	stw	r3,8(r4)
 1001574:	19000315 	stw	r4,12(r3)
 1001578:	81400115 	stw	r5,4(r16)
 100157c:	1187883a 	add	r3,r2,r6
 1001580:	31000054 	ori	r4,r6,1
 1001584:	50800315 	stw	r2,12(r10)
 1001588:	50800215 	stw	r2,8(r10)
 100158c:	19800015 	stw	r6,0(r3)
 1001590:	11000115 	stw	r4,4(r2)
 1001594:	12800215 	stw	r10,8(r2)
 1001598:	12800315 	stw	r10,12(r2)
 100159c:	9009883a 	mov	r4,r18
 10015a0:	1003a6c0 	call	1003a6c <__malloc_unlock>
 10015a4:	80c00204 	addi	r3,r16,8
 10015a8:	003f5906 	br	1001310 <_malloc_r+0x50>
 10015ac:	8109883a 	add	r4,r16,r4
 10015b0:	20800117 	ldw	r2,4(r4)
 10015b4:	80c00217 	ldw	r3,8(r16)
 10015b8:	81400317 	ldw	r5,12(r16)
 10015bc:	10800054 	ori	r2,r2,1
 10015c0:	20800115 	stw	r2,4(r4)
 10015c4:	28c00215 	stw	r3,8(r5)
 10015c8:	19400315 	stw	r5,12(r3)
 10015cc:	9009883a 	mov	r4,r18
 10015d0:	1003a6c0 	call	1003a6c <__malloc_unlock>
 10015d4:	80c00204 	addi	r3,r16,8
 10015d8:	003f4d06 	br	1001310 <_malloc_r+0x50>
 10015dc:	80800204 	addi	r2,r16,8
 10015e0:	14000317 	ldw	r16,12(r2)
 10015e4:	143f911e 	bne	r2,r16,100142c <_malloc_r+0x16c>
 10015e8:	1a400084 	addi	r9,r3,2
 10015ec:	003f7306 	br	10013bc <_malloc_r+0xfc>
 10015f0:	88c00054 	ori	r3,r17,1
 10015f4:	8445883a 	add	r2,r16,r17
 10015f8:	80c00115 	stw	r3,4(r16)
 10015fc:	003fdf06 	br	100157c <_malloc_r+0x2bc>
 1001600:	e4000217 	ldw	r16,8(fp)
 1001604:	00bfff04 	movi	r2,-4
 1001608:	80c00117 	ldw	r3,4(r16)
 100160c:	802d883a 	mov	r22,r16
 1001610:	18aa703a 	and	r21,r3,r2
 1001614:	ac401636 	bltu	r21,r17,1001670 <_malloc_r+0x3b0>
 1001618:	ac49c83a 	sub	r4,r21,r17
 100161c:	008003c4 	movi	r2,15
 1001620:	1100130e 	bge	r2,r4,1001670 <_malloc_r+0x3b0>
 1001624:	88800054 	ori	r2,r17,1
 1001628:	8447883a 	add	r3,r16,r17
 100162c:	80800115 	stw	r2,4(r16)
 1001630:	20800054 	ori	r2,r4,1
 1001634:	18800115 	stw	r2,4(r3)
 1001638:	e0c00215 	stw	r3,8(fp)
 100163c:	9009883a 	mov	r4,r18
 1001640:	1003a6c0 	call	1003a6c <__malloc_unlock>
 1001644:	80c00204 	addi	r3,r16,8
 1001648:	003f3106 	br	1001310 <_malloc_r+0x50>
 100164c:	39c00117 	ldw	r7,4(r7)
 1001650:	573ffe04 	addi	fp,r10,-8
 1001654:	003fa006 	br	10014d8 <_malloc_r+0x218>
 1001658:	00801504 	movi	r2,84
 100165c:	10c06736 	bltu	r2,r3,10017fc <_malloc_r+0x53c>
 1001660:	8804d33a 	srli	r2,r17,12
 1001664:	11801b84 	addi	r6,r2,110
 1001668:	300490fa 	slli	r2,r6,3
 100166c:	003f4106 	br	1001374 <_malloc_r+0xb4>
 1001670:	d0a01917 	ldw	r2,-32668(gp)
 1001674:	d0e00517 	ldw	r3,-32748(gp)
 1001678:	053fffc4 	movi	r20,-1
 100167c:	10800404 	addi	r2,r2,16
 1001680:	88a7883a 	add	r19,r17,r2
 1001684:	1d000326 	beq	r3,r20,1001694 <_malloc_r+0x3d4>
 1001688:	98c3ffc4 	addi	r3,r19,4095
 100168c:	00bc0004 	movi	r2,-4096
 1001690:	18a6703a 	and	r19,r3,r2
 1001694:	9009883a 	mov	r4,r18
 1001698:	980b883a 	mov	r5,r19
 100169c:	10022580 	call	1002258 <_sbrk_r>
 10016a0:	1009883a 	mov	r4,r2
 10016a4:	15000426 	beq	r2,r20,10016b8 <_malloc_r+0x3f8>
 10016a8:	854b883a 	add	r5,r16,r21
 10016ac:	1029883a 	mov	r20,r2
 10016b0:	11405a2e 	bgeu	r2,r5,100181c <_malloc_r+0x55c>
 10016b4:	87000c26 	beq	r16,fp,10016e8 <_malloc_r+0x428>
 10016b8:	e4000217 	ldw	r16,8(fp)
 10016bc:	80c00117 	ldw	r3,4(r16)
 10016c0:	00bfff04 	movi	r2,-4
 10016c4:	1884703a 	and	r2,r3,r2
 10016c8:	14400336 	bltu	r2,r17,10016d8 <_malloc_r+0x418>
 10016cc:	1449c83a 	sub	r4,r2,r17
 10016d0:	008003c4 	movi	r2,15
 10016d4:	113fd316 	blt	r2,r4,1001624 <_malloc_r+0x364>
 10016d8:	9009883a 	mov	r4,r18
 10016dc:	1003a6c0 	call	1003a6c <__malloc_unlock>
 10016e0:	0007883a 	mov	r3,zero
 10016e4:	003f0a06 	br	1001310 <_malloc_r+0x50>
 10016e8:	05c04074 	movhi	r23,257
 10016ec:	bde8d704 	addi	r23,r23,-23716
 10016f0:	b8800017 	ldw	r2,0(r23)
 10016f4:	988d883a 	add	r6,r19,r2
 10016f8:	b9800015 	stw	r6,0(r23)
 10016fc:	d0e00517 	ldw	r3,-32748(gp)
 1001700:	00bfffc4 	movi	r2,-1
 1001704:	18808e26 	beq	r3,r2,1001940 <_malloc_r+0x680>
 1001708:	2145c83a 	sub	r2,r4,r5
 100170c:	3085883a 	add	r2,r6,r2
 1001710:	b8800015 	stw	r2,0(r23)
 1001714:	20c001cc 	andi	r3,r4,7
 1001718:	18005f1e 	bne	r3,zero,1001898 <_malloc_r+0x5d8>
 100171c:	000b883a 	mov	r5,zero
 1001720:	a4c5883a 	add	r2,r20,r19
 1001724:	1083ffcc 	andi	r2,r2,4095
 1001728:	00c40004 	movi	r3,4096
 100172c:	1887c83a 	sub	r3,r3,r2
 1001730:	28e7883a 	add	r19,r5,r3
 1001734:	9009883a 	mov	r4,r18
 1001738:	980b883a 	mov	r5,r19
 100173c:	10022580 	call	1002258 <_sbrk_r>
 1001740:	1007883a 	mov	r3,r2
 1001744:	00bfffc4 	movi	r2,-1
 1001748:	18807a26 	beq	r3,r2,1001934 <_malloc_r+0x674>
 100174c:	1d05c83a 	sub	r2,r3,r20
 1001750:	9885883a 	add	r2,r19,r2
 1001754:	10c00054 	ori	r3,r2,1
 1001758:	b8800017 	ldw	r2,0(r23)
 100175c:	a021883a 	mov	r16,r20
 1001760:	a0c00115 	stw	r3,4(r20)
 1001764:	9885883a 	add	r2,r19,r2
 1001768:	b8800015 	stw	r2,0(r23)
 100176c:	e5000215 	stw	r20,8(fp)
 1001770:	b7003626 	beq	r22,fp,100184c <_malloc_r+0x58c>
 1001774:	018003c4 	movi	r6,15
 1001778:	35404b36 	bltu	r6,r21,10018a8 <_malloc_r+0x5e8>
 100177c:	00800044 	movi	r2,1
 1001780:	a0800115 	stw	r2,4(r20)
 1001784:	003fcd06 	br	10016bc <_malloc_r+0x3fc>
 1001788:	2808d27a 	srli	r4,r5,9
 100178c:	2000371e 	bne	r4,zero,100186c <_malloc_r+0x5ac>
 1001790:	2808d0fa 	srli	r4,r5,3
 1001794:	200690fa 	slli	r3,r4,3
 1001798:	1ad1883a 	add	r8,r3,r11
 100179c:	41800217 	ldw	r6,8(r8)
 10017a0:	41805b26 	beq	r8,r6,1001910 <_malloc_r+0x650>
 10017a4:	30800117 	ldw	r2,4(r6)
 10017a8:	00ffff04 	movi	r3,-4
 10017ac:	10c4703a 	and	r2,r2,r3
 10017b0:	2880022e 	bgeu	r5,r2,10017bc <_malloc_r+0x4fc>
 10017b4:	31800217 	ldw	r6,8(r6)
 10017b8:	41bffa1e 	bne	r8,r6,10017a4 <_malloc_r+0x4e4>
 10017bc:	32000317 	ldw	r8,12(r6)
 10017c0:	39c00117 	ldw	r7,4(r7)
 10017c4:	82000315 	stw	r8,12(r16)
 10017c8:	81800215 	stw	r6,8(r16)
 10017cc:	07004074 	movhi	fp,257
 10017d0:	e7224f04 	addi	fp,fp,-30404
 10017d4:	34000315 	stw	r16,12(r6)
 10017d8:	44000215 	stw	r16,8(r8)
 10017dc:	003f3e06 	br	10014d8 <_malloc_r+0x218>
 10017e0:	63000044 	addi	r12,r12,1
 10017e4:	608000cc 	andi	r2,r12,3
 10017e8:	10005d26 	beq	r2,zero,1001960 <_malloc_r+0x6a0>
 10017ec:	18c00204 	addi	r3,r3,8
 10017f0:	003f5106 	br	1001538 <_malloc_r+0x278>
 10017f4:	8089883a 	add	r4,r16,r2
 10017f8:	003f6d06 	br	10015b0 <_malloc_r+0x2f0>
 10017fc:	00805504 	movi	r2,340
 1001800:	10c02036 	bltu	r2,r3,1001884 <_malloc_r+0x5c4>
 1001804:	8804d3fa 	srli	r2,r17,15
 1001808:	11801dc4 	addi	r6,r2,119
 100180c:	300490fa 	slli	r2,r6,3
 1001810:	003ed806 	br	1001374 <_malloc_r+0xb4>
 1001814:	48c000c4 	addi	r3,r9,3
 1001818:	003f3106 	br	10014e0 <_malloc_r+0x220>
 100181c:	05c04074 	movhi	r23,257
 1001820:	bde8d704 	addi	r23,r23,-23716
 1001824:	b8800017 	ldw	r2,0(r23)
 1001828:	988d883a 	add	r6,r19,r2
 100182c:	b9800015 	stw	r6,0(r23)
 1001830:	293fb21e 	bne	r5,r4,10016fc <_malloc_r+0x43c>
 1001834:	2083ffcc 	andi	r2,r4,4095
 1001838:	103fb01e 	bne	r2,zero,10016fc <_malloc_r+0x43c>
 100183c:	e4000217 	ldw	r16,8(fp)
 1001840:	9d45883a 	add	r2,r19,r21
 1001844:	10800054 	ori	r2,r2,1
 1001848:	80800115 	stw	r2,4(r16)
 100184c:	b8c00017 	ldw	r3,0(r23)
 1001850:	d0a01a17 	ldw	r2,-32664(gp)
 1001854:	10c0012e 	bgeu	r2,r3,100185c <_malloc_r+0x59c>
 1001858:	d0e01a15 	stw	r3,-32664(gp)
 100185c:	d0a01b17 	ldw	r2,-32660(gp)
 1001860:	10ff962e 	bgeu	r2,r3,10016bc <_malloc_r+0x3fc>
 1001864:	d0e01b15 	stw	r3,-32660(gp)
 1001868:	003f9406 	br	10016bc <_malloc_r+0x3fc>
 100186c:	00800104 	movi	r2,4
 1001870:	11001e36 	bltu	r2,r4,10018ec <_malloc_r+0x62c>
 1001874:	2804d1ba 	srli	r2,r5,6
 1001878:	11000e04 	addi	r4,r2,56
 100187c:	200690fa 	slli	r3,r4,3
 1001880:	003fc506 	br	1001798 <_malloc_r+0x4d8>
 1001884:	00815504 	movi	r2,1364
 1001888:	10c01d2e 	bgeu	r2,r3,1001900 <_malloc_r+0x640>
 100188c:	01801f84 	movi	r6,126
 1001890:	0080fc04 	movi	r2,1008
 1001894:	003eb706 	br	1001374 <_malloc_r+0xb4>
 1001898:	00800204 	movi	r2,8
 100189c:	10cbc83a 	sub	r5,r2,r3
 10018a0:	2169883a 	add	r20,r4,r5
 10018a4:	003f9e06 	br	1001720 <_malloc_r+0x460>
 10018a8:	00bffe04 	movi	r2,-8
 10018ac:	a93ffd04 	addi	r4,r21,-12
 10018b0:	2088703a 	and	r4,r4,r2
 10018b4:	b10b883a 	add	r5,r22,r4
 10018b8:	00c00144 	movi	r3,5
 10018bc:	28c00215 	stw	r3,8(r5)
 10018c0:	28c00115 	stw	r3,4(r5)
 10018c4:	b0800117 	ldw	r2,4(r22)
 10018c8:	1080004c 	andi	r2,r2,1
 10018cc:	2084b03a 	or	r2,r4,r2
 10018d0:	b0800115 	stw	r2,4(r22)
 10018d4:	313fdd2e 	bgeu	r6,r4,100184c <_malloc_r+0x58c>
 10018d8:	b1400204 	addi	r5,r22,8
 10018dc:	9009883a 	mov	r4,r18
 10018e0:	1002a540 	call	1002a54 <_free_r>
 10018e4:	e4000217 	ldw	r16,8(fp)
 10018e8:	003fd806 	br	100184c <_malloc_r+0x58c>
 10018ec:	00800504 	movi	r2,20
 10018f0:	11001536 	bltu	r2,r4,1001948 <_malloc_r+0x688>
 10018f4:	210016c4 	addi	r4,r4,91
 10018f8:	200690fa 	slli	r3,r4,3
 10018fc:	003fa606 	br	1001798 <_malloc_r+0x4d8>
 1001900:	8804d4ba 	srli	r2,r17,18
 1001904:	11801f04 	addi	r6,r2,124
 1001908:	300490fa 	slli	r2,r6,3
 100190c:	003e9906 	br	1001374 <_malloc_r+0xb4>
 1001910:	2009d0ba 	srai	r4,r4,2
 1001914:	01404074 	movhi	r5,257
 1001918:	29624f04 	addi	r5,r5,-30404
 100191c:	00c00044 	movi	r3,1
 1001920:	28800117 	ldw	r2,4(r5)
 1001924:	1906983a 	sll	r3,r3,r4
 1001928:	10c4b03a 	or	r2,r2,r3
 100192c:	28800115 	stw	r2,4(r5)
 1001930:	003fa306 	br	10017c0 <_malloc_r+0x500>
 1001934:	0027883a 	mov	r19,zero
 1001938:	00c00044 	movi	r3,1
 100193c:	003f8606 	br	1001758 <_malloc_r+0x498>
 1001940:	d1200515 	stw	r4,-32748(gp)
 1001944:	003f7306 	br	1001714 <_malloc_r+0x454>
 1001948:	00801504 	movi	r2,84
 100194c:	11001936 	bltu	r2,r4,10019b4 <_malloc_r+0x6f4>
 1001950:	2804d33a 	srli	r2,r5,12
 1001954:	11001b84 	addi	r4,r2,110
 1001958:	200690fa 	slli	r3,r4,3
 100195c:	003f8e06 	br	1001798 <_malloc_r+0x4d8>
 1001960:	480b883a 	mov	r5,r9
 1001964:	6807883a 	mov	r3,r13
 1001968:	288000cc 	andi	r2,r5,3
 100196c:	18fffe04 	addi	r3,r3,-8
 1001970:	297fffc4 	addi	r5,r5,-1
 1001974:	10001526 	beq	r2,zero,10019cc <_malloc_r+0x70c>
 1001978:	18800217 	ldw	r2,8(r3)
 100197c:	10fffa26 	beq	r2,r3,1001968 <_malloc_r+0x6a8>
 1001980:	2109883a 	add	r4,r4,r4
 1001984:	393f1e36 	bltu	r7,r4,1001600 <_malloc_r+0x340>
 1001988:	203f1d26 	beq	r4,zero,1001600 <_malloc_r+0x340>
 100198c:	21c4703a 	and	r2,r4,r7
 1001990:	10000226 	beq	r2,zero,100199c <_malloc_r+0x6dc>
 1001994:	6013883a 	mov	r9,r12
 1001998:	003ee106 	br	1001520 <_malloc_r+0x260>
 100199c:	2109883a 	add	r4,r4,r4
 10019a0:	3904703a 	and	r2,r7,r4
 10019a4:	63000104 	addi	r12,r12,4
 10019a8:	103ffc26 	beq	r2,zero,100199c <_malloc_r+0x6dc>
 10019ac:	6013883a 	mov	r9,r12
 10019b0:	003edb06 	br	1001520 <_malloc_r+0x260>
 10019b4:	00805504 	movi	r2,340
 10019b8:	11000836 	bltu	r2,r4,10019dc <_malloc_r+0x71c>
 10019bc:	2804d3fa 	srli	r2,r5,15
 10019c0:	11001dc4 	addi	r4,r2,119
 10019c4:	200690fa 	slli	r3,r4,3
 10019c8:	003f7306 	br	1001798 <_malloc_r+0x4d8>
 10019cc:	0104303a 	nor	r2,zero,r4
 10019d0:	388e703a 	and	r7,r7,r2
 10019d4:	e1c00115 	stw	r7,4(fp)
 10019d8:	003fe906 	br	1001980 <_malloc_r+0x6c0>
 10019dc:	00815504 	movi	r2,1364
 10019e0:	1100032e 	bgeu	r2,r4,10019f0 <_malloc_r+0x730>
 10019e4:	01001f84 	movi	r4,126
 10019e8:	00c0fc04 	movi	r3,1008
 10019ec:	003f6a06 	br	1001798 <_malloc_r+0x4d8>
 10019f0:	2804d4ba 	srli	r2,r5,18
 10019f4:	11001f04 	addi	r4,r2,124
 10019f8:	200690fa 	slli	r3,r4,3
 10019fc:	003f6606 	br	1001798 <_malloc_r+0x4d8>

01001a00 <memchr>:
 1001a00:	008000c4 	movi	r2,3
 1001a04:	29403fcc 	andi	r5,r5,255
 1001a08:	2007883a 	mov	r3,r4
 1001a0c:	1180022e 	bgeu	r2,r6,1001a18 <memchr+0x18>
 1001a10:	2084703a 	and	r2,r4,r2
 1001a14:	10000b26 	beq	r2,zero,1001a44 <memchr+0x44>
 1001a18:	313fffc4 	addi	r4,r6,-1
 1001a1c:	3000051e 	bne	r6,zero,1001a34 <memchr+0x34>
 1001a20:	00002c06 	br	1001ad4 <memchr+0xd4>
 1001a24:	213fffc4 	addi	r4,r4,-1
 1001a28:	00bfffc4 	movi	r2,-1
 1001a2c:	18c00044 	addi	r3,r3,1
 1001a30:	20802826 	beq	r4,r2,1001ad4 <memchr+0xd4>
 1001a34:	18800003 	ldbu	r2,0(r3)
 1001a38:	28bffa1e 	bne	r5,r2,1001a24 <memchr+0x24>
 1001a3c:	1805883a 	mov	r2,r3
 1001a40:	f800283a 	ret
 1001a44:	0011883a 	mov	r8,zero
 1001a48:	0007883a 	mov	r3,zero
 1001a4c:	01c00104 	movi	r7,4
 1001a50:	4004923a 	slli	r2,r8,8
 1001a54:	18c00044 	addi	r3,r3,1
 1001a58:	1151883a 	add	r8,r2,r5
 1001a5c:	19fffc1e 	bne	r3,r7,1001a50 <memchr+0x50>
 1001a60:	02bfbff4 	movhi	r10,65279
 1001a64:	52bfbfc4 	addi	r10,r10,-257
 1001a68:	02602074 	movhi	r9,32897
 1001a6c:	4a602004 	addi	r9,r9,-32640
 1001a70:	02c000c4 	movi	r11,3
 1001a74:	20800017 	ldw	r2,0(r4)
 1001a78:	31bfff04 	addi	r6,r6,-4
 1001a7c:	200f883a 	mov	r7,r4
 1001a80:	1204f03a 	xor	r2,r2,r8
 1001a84:	1287883a 	add	r3,r2,r10
 1001a88:	1a46703a 	and	r3,r3,r9
 1001a8c:	0084303a 	nor	r2,zero,r2
 1001a90:	10c4703a 	and	r2,r2,r3
 1001a94:	10000b26 	beq	r2,zero,1001ac4 <memchr+0xc4>
 1001a98:	20800003 	ldbu	r2,0(r4)
 1001a9c:	28800f26 	beq	r5,r2,1001adc <memchr+0xdc>
 1001aa0:	20800043 	ldbu	r2,1(r4)
 1001aa4:	21c00044 	addi	r7,r4,1
 1001aa8:	28800c26 	beq	r5,r2,1001adc <memchr+0xdc>
 1001aac:	20800083 	ldbu	r2,2(r4)
 1001ab0:	21c00084 	addi	r7,r4,2
 1001ab4:	28800926 	beq	r5,r2,1001adc <memchr+0xdc>
 1001ab8:	208000c3 	ldbu	r2,3(r4)
 1001abc:	21c000c4 	addi	r7,r4,3
 1001ac0:	28800626 	beq	r5,r2,1001adc <memchr+0xdc>
 1001ac4:	21000104 	addi	r4,r4,4
 1001ac8:	59bfea36 	bltu	r11,r6,1001a74 <memchr+0x74>
 1001acc:	2007883a 	mov	r3,r4
 1001ad0:	003fd106 	br	1001a18 <memchr+0x18>
 1001ad4:	0005883a 	mov	r2,zero
 1001ad8:	f800283a 	ret
 1001adc:	3805883a 	mov	r2,r7
 1001ae0:	f800283a 	ret

01001ae4 <memcpy>:
 1001ae4:	01c003c4 	movi	r7,15
 1001ae8:	2007883a 	mov	r3,r4
 1001aec:	3980032e 	bgeu	r7,r6,1001afc <memcpy+0x18>
 1001af0:	2904b03a 	or	r2,r5,r4
 1001af4:	108000cc 	andi	r2,r2,3
 1001af8:	10000926 	beq	r2,zero,1001b20 <memcpy+0x3c>
 1001afc:	30000626 	beq	r6,zero,1001b18 <memcpy+0x34>
 1001b00:	30cd883a 	add	r6,r6,r3
 1001b04:	28800003 	ldbu	r2,0(r5)
 1001b08:	29400044 	addi	r5,r5,1
 1001b0c:	18800005 	stb	r2,0(r3)
 1001b10:	18c00044 	addi	r3,r3,1
 1001b14:	30fffb1e 	bne	r6,r3,1001b04 <memcpy+0x20>
 1001b18:	2005883a 	mov	r2,r4
 1001b1c:	f800283a 	ret
 1001b20:	3811883a 	mov	r8,r7
 1001b24:	200f883a 	mov	r7,r4
 1001b28:	28c00017 	ldw	r3,0(r5)
 1001b2c:	31bffc04 	addi	r6,r6,-16
 1001b30:	38c00015 	stw	r3,0(r7)
 1001b34:	28800117 	ldw	r2,4(r5)
 1001b38:	38800115 	stw	r2,4(r7)
 1001b3c:	28c00217 	ldw	r3,8(r5)
 1001b40:	38c00215 	stw	r3,8(r7)
 1001b44:	28800317 	ldw	r2,12(r5)
 1001b48:	29400404 	addi	r5,r5,16
 1001b4c:	38800315 	stw	r2,12(r7)
 1001b50:	39c00404 	addi	r7,r7,16
 1001b54:	41bff436 	bltu	r8,r6,1001b28 <memcpy+0x44>
 1001b58:	008000c4 	movi	r2,3
 1001b5c:	1180072e 	bgeu	r2,r6,1001b7c <memcpy+0x98>
 1001b60:	1007883a 	mov	r3,r2
 1001b64:	28800017 	ldw	r2,0(r5)
 1001b68:	31bfff04 	addi	r6,r6,-4
 1001b6c:	29400104 	addi	r5,r5,4
 1001b70:	38800015 	stw	r2,0(r7)
 1001b74:	39c00104 	addi	r7,r7,4
 1001b78:	19bffa36 	bltu	r3,r6,1001b64 <memcpy+0x80>
 1001b7c:	3807883a 	mov	r3,r7
 1001b80:	003fde06 	br	1001afc <memcpy+0x18>

01001b84 <memmove>:
 1001b84:	2807883a 	mov	r3,r5
 1001b88:	2011883a 	mov	r8,r4
 1001b8c:	29000c2e 	bgeu	r5,r4,1001bc0 <memmove+0x3c>
 1001b90:	298f883a 	add	r7,r5,r6
 1001b94:	21c00a2e 	bgeu	r4,r7,1001bc0 <memmove+0x3c>
 1001b98:	30000726 	beq	r6,zero,1001bb8 <memmove+0x34>
 1001b9c:	2187883a 	add	r3,r4,r6
 1001ba0:	198dc83a 	sub	r6,r3,r6
 1001ba4:	39ffffc4 	addi	r7,r7,-1
 1001ba8:	38800003 	ldbu	r2,0(r7)
 1001bac:	18ffffc4 	addi	r3,r3,-1
 1001bb0:	18800005 	stb	r2,0(r3)
 1001bb4:	19bffb1e 	bne	r3,r6,1001ba4 <memmove+0x20>
 1001bb8:	2005883a 	mov	r2,r4
 1001bbc:	f800283a 	ret
 1001bc0:	01c003c4 	movi	r7,15
 1001bc4:	39800a36 	bltu	r7,r6,1001bf0 <memmove+0x6c>
 1001bc8:	303ffb26 	beq	r6,zero,1001bb8 <memmove+0x34>
 1001bcc:	400f883a 	mov	r7,r8
 1001bd0:	320d883a 	add	r6,r6,r8
 1001bd4:	28800003 	ldbu	r2,0(r5)
 1001bd8:	29400044 	addi	r5,r5,1
 1001bdc:	38800005 	stb	r2,0(r7)
 1001be0:	39c00044 	addi	r7,r7,1
 1001be4:	39bffb1e 	bne	r7,r6,1001bd4 <memmove+0x50>
 1001be8:	2005883a 	mov	r2,r4
 1001bec:	f800283a 	ret
 1001bf0:	1904b03a 	or	r2,r3,r4
 1001bf4:	108000cc 	andi	r2,r2,3
 1001bf8:	103ff31e 	bne	r2,zero,1001bc8 <memmove+0x44>
 1001bfc:	3811883a 	mov	r8,r7
 1001c00:	180b883a 	mov	r5,r3
 1001c04:	200f883a 	mov	r7,r4
 1001c08:	28c00017 	ldw	r3,0(r5)
 1001c0c:	31bffc04 	addi	r6,r6,-16
 1001c10:	38c00015 	stw	r3,0(r7)
 1001c14:	28800117 	ldw	r2,4(r5)
 1001c18:	38800115 	stw	r2,4(r7)
 1001c1c:	28c00217 	ldw	r3,8(r5)
 1001c20:	38c00215 	stw	r3,8(r7)
 1001c24:	28800317 	ldw	r2,12(r5)
 1001c28:	29400404 	addi	r5,r5,16
 1001c2c:	38800315 	stw	r2,12(r7)
 1001c30:	39c00404 	addi	r7,r7,16
 1001c34:	41bff436 	bltu	r8,r6,1001c08 <memmove+0x84>
 1001c38:	008000c4 	movi	r2,3
 1001c3c:	1180072e 	bgeu	r2,r6,1001c5c <memmove+0xd8>
 1001c40:	1007883a 	mov	r3,r2
 1001c44:	28800017 	ldw	r2,0(r5)
 1001c48:	31bfff04 	addi	r6,r6,-4
 1001c4c:	29400104 	addi	r5,r5,4
 1001c50:	38800015 	stw	r2,0(r7)
 1001c54:	39c00104 	addi	r7,r7,4
 1001c58:	19bffa36 	bltu	r3,r6,1001c44 <memmove+0xc0>
 1001c5c:	3811883a 	mov	r8,r7
 1001c60:	003fd906 	br	1001bc8 <memmove+0x44>

01001c64 <_realloc_r>:
 1001c64:	defff404 	addi	sp,sp,-48
 1001c68:	dd800815 	stw	r22,32(sp)
 1001c6c:	dc800415 	stw	r18,16(sp)
 1001c70:	dc400315 	stw	r17,12(sp)
 1001c74:	dfc00b15 	stw	ra,44(sp)
 1001c78:	df000a15 	stw	fp,40(sp)
 1001c7c:	ddc00915 	stw	r23,36(sp)
 1001c80:	dd400715 	stw	r21,28(sp)
 1001c84:	dd000615 	stw	r20,24(sp)
 1001c88:	dcc00515 	stw	r19,20(sp)
 1001c8c:	dc000215 	stw	r16,8(sp)
 1001c90:	2825883a 	mov	r18,r5
 1001c94:	3023883a 	mov	r17,r6
 1001c98:	202d883a 	mov	r22,r4
 1001c9c:	2800c926 	beq	r5,zero,1001fc4 <_realloc_r+0x360>
 1001ca0:	1003a680 	call	1003a68 <__malloc_lock>
 1001ca4:	943ffe04 	addi	r16,r18,-8
 1001ca8:	88c002c4 	addi	r3,r17,11
 1001cac:	00800584 	movi	r2,22
 1001cb0:	82000117 	ldw	r8,4(r16)
 1001cb4:	10c01b2e 	bgeu	r2,r3,1001d24 <_realloc_r+0xc0>
 1001cb8:	00bffe04 	movi	r2,-8
 1001cbc:	188e703a 	and	r7,r3,r2
 1001cc0:	3839883a 	mov	fp,r7
 1001cc4:	38001a16 	blt	r7,zero,1001d30 <_realloc_r+0xcc>
 1001cc8:	e4401936 	bltu	fp,r17,1001d30 <_realloc_r+0xcc>
 1001ccc:	013fff04 	movi	r4,-4
 1001cd0:	4126703a 	and	r19,r8,r4
 1001cd4:	99c02616 	blt	r19,r7,1001d70 <_realloc_r+0x10c>
 1001cd8:	802b883a 	mov	r21,r16
 1001cdc:	9829883a 	mov	r20,r19
 1001ce0:	84000204 	addi	r16,r16,8
 1001ce4:	a80f883a 	mov	r7,r21
 1001ce8:	a70dc83a 	sub	r6,r20,fp
 1001cec:	008003c4 	movi	r2,15
 1001cf0:	1180c136 	bltu	r2,r6,1001ff8 <_realloc_r+0x394>
 1001cf4:	38800117 	ldw	r2,4(r7)
 1001cf8:	a549883a 	add	r4,r20,r21
 1001cfc:	1080004c 	andi	r2,r2,1
 1001d00:	a084b03a 	or	r2,r20,r2
 1001d04:	38800115 	stw	r2,4(r7)
 1001d08:	20c00117 	ldw	r3,4(r4)
 1001d0c:	18c00054 	ori	r3,r3,1
 1001d10:	20c00115 	stw	r3,4(r4)
 1001d14:	b009883a 	mov	r4,r22
 1001d18:	1003a6c0 	call	1003a6c <__malloc_unlock>
 1001d1c:	8023883a 	mov	r17,r16
 1001d20:	00000606 	br	1001d3c <_realloc_r+0xd8>
 1001d24:	01c00404 	movi	r7,16
 1001d28:	3839883a 	mov	fp,r7
 1001d2c:	e47fe72e 	bgeu	fp,r17,1001ccc <_realloc_r+0x68>
 1001d30:	00800304 	movi	r2,12
 1001d34:	0023883a 	mov	r17,zero
 1001d38:	b0800015 	stw	r2,0(r22)
 1001d3c:	8805883a 	mov	r2,r17
 1001d40:	dfc00b17 	ldw	ra,44(sp)
 1001d44:	df000a17 	ldw	fp,40(sp)
 1001d48:	ddc00917 	ldw	r23,36(sp)
 1001d4c:	dd800817 	ldw	r22,32(sp)
 1001d50:	dd400717 	ldw	r21,28(sp)
 1001d54:	dd000617 	ldw	r20,24(sp)
 1001d58:	dcc00517 	ldw	r19,20(sp)
 1001d5c:	dc800417 	ldw	r18,16(sp)
 1001d60:	dc400317 	ldw	r17,12(sp)
 1001d64:	dc000217 	ldw	r16,8(sp)
 1001d68:	dec00c04 	addi	sp,sp,48
 1001d6c:	f800283a 	ret
 1001d70:	00804074 	movhi	r2,257
 1001d74:	10a24f04 	addi	r2,r2,-30404
 1001d78:	12400217 	ldw	r9,8(r2)
 1001d7c:	84cd883a 	add	r6,r16,r19
 1001d80:	802b883a 	mov	r21,r16
 1001d84:	3240b926 	beq	r6,r9,100206c <_realloc_r+0x408>
 1001d88:	31400117 	ldw	r5,4(r6)
 1001d8c:	00bfff84 	movi	r2,-2
 1001d90:	2884703a 	and	r2,r5,r2
 1001d94:	1185883a 	add	r2,r2,r6
 1001d98:	10c00117 	ldw	r3,4(r2)
 1001d9c:	18c0004c 	andi	r3,r3,1
 1001da0:	1807003a 	cmpeq	r3,r3,zero
 1001da4:	1800a326 	beq	r3,zero,1002034 <_realloc_r+0x3d0>
 1001da8:	2908703a 	and	r4,r5,r4
 1001dac:	9929883a 	add	r20,r19,r4
 1001db0:	a1c0a30e 	bge	r20,r7,1002040 <_realloc_r+0x3dc>
 1001db4:	4080004c 	andi	r2,r8,1
 1001db8:	1000551e 	bne	r2,zero,1001f10 <_realloc_r+0x2ac>
 1001dbc:	80800017 	ldw	r2,0(r16)
 1001dc0:	80afc83a 	sub	r23,r16,r2
 1001dc4:	b8c00117 	ldw	r3,4(r23)
 1001dc8:	00bfff04 	movi	r2,-4
 1001dcc:	1884703a 	and	r2,r3,r2
 1001dd0:	30002e26 	beq	r6,zero,1001e8c <_realloc_r+0x228>
 1001dd4:	3240b926 	beq	r6,r9,10020bc <_realloc_r+0x458>
 1001dd8:	98a9883a 	add	r20,r19,r2
 1001ddc:	2509883a 	add	r4,r4,r20
 1001de0:	d9000015 	stw	r4,0(sp)
 1001de4:	21c02a16 	blt	r4,r7,1001e90 <_realloc_r+0x22c>
 1001de8:	30800317 	ldw	r2,12(r6)
 1001dec:	30c00217 	ldw	r3,8(r6)
 1001df0:	01400904 	movi	r5,36
 1001df4:	99bfff04 	addi	r6,r19,-4
 1001df8:	18800315 	stw	r2,12(r3)
 1001dfc:	10c00215 	stw	r3,8(r2)
 1001e00:	b9000317 	ldw	r4,12(r23)
 1001e04:	b8800217 	ldw	r2,8(r23)
 1001e08:	b82b883a 	mov	r21,r23
 1001e0c:	bc000204 	addi	r16,r23,8
 1001e10:	20800215 	stw	r2,8(r4)
 1001e14:	11000315 	stw	r4,12(r2)
 1001e18:	2980e436 	bltu	r5,r6,10021ac <_realloc_r+0x548>
 1001e1c:	008004c4 	movi	r2,19
 1001e20:	9009883a 	mov	r4,r18
 1001e24:	8011883a 	mov	r8,r16
 1001e28:	11800f2e 	bgeu	r2,r6,1001e68 <_realloc_r+0x204>
 1001e2c:	90800017 	ldw	r2,0(r18)
 1001e30:	ba000404 	addi	r8,r23,16
 1001e34:	91000204 	addi	r4,r18,8
 1001e38:	b8800215 	stw	r2,8(r23)
 1001e3c:	90c00117 	ldw	r3,4(r18)
 1001e40:	008006c4 	movi	r2,27
 1001e44:	b8c00315 	stw	r3,12(r23)
 1001e48:	1180072e 	bgeu	r2,r6,1001e68 <_realloc_r+0x204>
 1001e4c:	90c00217 	ldw	r3,8(r18)
 1001e50:	ba000604 	addi	r8,r23,24
 1001e54:	91000404 	addi	r4,r18,16
 1001e58:	b8c00415 	stw	r3,16(r23)
 1001e5c:	90800317 	ldw	r2,12(r18)
 1001e60:	b8800515 	stw	r2,20(r23)
 1001e64:	3140e726 	beq	r6,r5,1002204 <_realloc_r+0x5a0>
 1001e68:	20800017 	ldw	r2,0(r4)
 1001e6c:	dd000017 	ldw	r20,0(sp)
 1001e70:	b80f883a 	mov	r7,r23
 1001e74:	40800015 	stw	r2,0(r8)
 1001e78:	20c00117 	ldw	r3,4(r4)
 1001e7c:	40c00115 	stw	r3,4(r8)
 1001e80:	20800217 	ldw	r2,8(r4)
 1001e84:	40800215 	stw	r2,8(r8)
 1001e88:	003f9706 	br	1001ce8 <_realloc_r+0x84>
 1001e8c:	98a9883a 	add	r20,r19,r2
 1001e90:	a1c01f16 	blt	r20,r7,1001f10 <_realloc_r+0x2ac>
 1001e94:	b8c00317 	ldw	r3,12(r23)
 1001e98:	b8800217 	ldw	r2,8(r23)
 1001e9c:	99bfff04 	addi	r6,r19,-4
 1001ea0:	01400904 	movi	r5,36
 1001ea4:	b82b883a 	mov	r21,r23
 1001ea8:	18800215 	stw	r2,8(r3)
 1001eac:	10c00315 	stw	r3,12(r2)
 1001eb0:	bc000204 	addi	r16,r23,8
 1001eb4:	2980c336 	bltu	r5,r6,10021c4 <_realloc_r+0x560>
 1001eb8:	008004c4 	movi	r2,19
 1001ebc:	9009883a 	mov	r4,r18
 1001ec0:	8011883a 	mov	r8,r16
 1001ec4:	11800f2e 	bgeu	r2,r6,1001f04 <_realloc_r+0x2a0>
 1001ec8:	90800017 	ldw	r2,0(r18)
 1001ecc:	ba000404 	addi	r8,r23,16
 1001ed0:	91000204 	addi	r4,r18,8
 1001ed4:	b8800215 	stw	r2,8(r23)
 1001ed8:	90c00117 	ldw	r3,4(r18)
 1001edc:	008006c4 	movi	r2,27
 1001ee0:	b8c00315 	stw	r3,12(r23)
 1001ee4:	1180072e 	bgeu	r2,r6,1001f04 <_realloc_r+0x2a0>
 1001ee8:	90c00217 	ldw	r3,8(r18)
 1001eec:	ba000604 	addi	r8,r23,24
 1001ef0:	91000404 	addi	r4,r18,16
 1001ef4:	b8c00415 	stw	r3,16(r23)
 1001ef8:	90800317 	ldw	r2,12(r18)
 1001efc:	b8800515 	stw	r2,20(r23)
 1001f00:	3140c726 	beq	r6,r5,1002220 <_realloc_r+0x5bc>
 1001f04:	20800017 	ldw	r2,0(r4)
 1001f08:	b80f883a 	mov	r7,r23
 1001f0c:	003fd906 	br	1001e74 <_realloc_r+0x210>
 1001f10:	880b883a 	mov	r5,r17
 1001f14:	b009883a 	mov	r4,r22
 1001f18:	10012c00 	call	10012c0 <_malloc_r>
 1001f1c:	1023883a 	mov	r17,r2
 1001f20:	10002526 	beq	r2,zero,1001fb8 <_realloc_r+0x354>
 1001f24:	80800117 	ldw	r2,4(r16)
 1001f28:	00ffff84 	movi	r3,-2
 1001f2c:	893ffe04 	addi	r4,r17,-8
 1001f30:	10c4703a 	and	r2,r2,r3
 1001f34:	8085883a 	add	r2,r16,r2
 1001f38:	20809526 	beq	r4,r2,1002190 <_realloc_r+0x52c>
 1001f3c:	99bfff04 	addi	r6,r19,-4
 1001f40:	01c00904 	movi	r7,36
 1001f44:	39804536 	bltu	r7,r6,100205c <_realloc_r+0x3f8>
 1001f48:	008004c4 	movi	r2,19
 1001f4c:	9009883a 	mov	r4,r18
 1001f50:	880b883a 	mov	r5,r17
 1001f54:	11800f2e 	bgeu	r2,r6,1001f94 <_realloc_r+0x330>
 1001f58:	90800017 	ldw	r2,0(r18)
 1001f5c:	89400204 	addi	r5,r17,8
 1001f60:	91000204 	addi	r4,r18,8
 1001f64:	88800015 	stw	r2,0(r17)
 1001f68:	90c00117 	ldw	r3,4(r18)
 1001f6c:	008006c4 	movi	r2,27
 1001f70:	88c00115 	stw	r3,4(r17)
 1001f74:	1180072e 	bgeu	r2,r6,1001f94 <_realloc_r+0x330>
 1001f78:	90c00217 	ldw	r3,8(r18)
 1001f7c:	89400404 	addi	r5,r17,16
 1001f80:	91000404 	addi	r4,r18,16
 1001f84:	88c00215 	stw	r3,8(r17)
 1001f88:	90800317 	ldw	r2,12(r18)
 1001f8c:	88800315 	stw	r2,12(r17)
 1001f90:	31c09126 	beq	r6,r7,10021d8 <_realloc_r+0x574>
 1001f94:	20800017 	ldw	r2,0(r4)
 1001f98:	28800015 	stw	r2,0(r5)
 1001f9c:	20c00117 	ldw	r3,4(r4)
 1001fa0:	28c00115 	stw	r3,4(r5)
 1001fa4:	20800217 	ldw	r2,8(r4)
 1001fa8:	28800215 	stw	r2,8(r5)
 1001fac:	900b883a 	mov	r5,r18
 1001fb0:	b009883a 	mov	r4,r22
 1001fb4:	1002a540 	call	1002a54 <_free_r>
 1001fb8:	b009883a 	mov	r4,r22
 1001fbc:	1003a6c0 	call	1003a6c <__malloc_unlock>
 1001fc0:	003f5e06 	br	1001d3c <_realloc_r+0xd8>
 1001fc4:	300b883a 	mov	r5,r6
 1001fc8:	dfc00b17 	ldw	ra,44(sp)
 1001fcc:	df000a17 	ldw	fp,40(sp)
 1001fd0:	ddc00917 	ldw	r23,36(sp)
 1001fd4:	dd800817 	ldw	r22,32(sp)
 1001fd8:	dd400717 	ldw	r21,28(sp)
 1001fdc:	dd000617 	ldw	r20,24(sp)
 1001fe0:	dcc00517 	ldw	r19,20(sp)
 1001fe4:	dc800417 	ldw	r18,16(sp)
 1001fe8:	dc400317 	ldw	r17,12(sp)
 1001fec:	dc000217 	ldw	r16,8(sp)
 1001ff0:	dec00c04 	addi	sp,sp,48
 1001ff4:	10012c01 	jmpi	10012c0 <_malloc_r>
 1001ff8:	38800117 	ldw	r2,4(r7)
 1001ffc:	e54b883a 	add	r5,fp,r21
 1002000:	31000054 	ori	r4,r6,1
 1002004:	1080004c 	andi	r2,r2,1
 1002008:	1704b03a 	or	r2,r2,fp
 100200c:	38800115 	stw	r2,4(r7)
 1002010:	29000115 	stw	r4,4(r5)
 1002014:	2987883a 	add	r3,r5,r6
 1002018:	18800117 	ldw	r2,4(r3)
 100201c:	29400204 	addi	r5,r5,8
 1002020:	b009883a 	mov	r4,r22
 1002024:	10800054 	ori	r2,r2,1
 1002028:	18800115 	stw	r2,4(r3)
 100202c:	1002a540 	call	1002a54 <_free_r>
 1002030:	003f3806 	br	1001d14 <_realloc_r+0xb0>
 1002034:	000d883a 	mov	r6,zero
 1002038:	0009883a 	mov	r4,zero
 100203c:	003f5d06 	br	1001db4 <_realloc_r+0x150>
 1002040:	30c00217 	ldw	r3,8(r6)
 1002044:	30800317 	ldw	r2,12(r6)
 1002048:	800f883a 	mov	r7,r16
 100204c:	84000204 	addi	r16,r16,8
 1002050:	10c00215 	stw	r3,8(r2)
 1002054:	18800315 	stw	r2,12(r3)
 1002058:	003f2306 	br	1001ce8 <_realloc_r+0x84>
 100205c:	8809883a 	mov	r4,r17
 1002060:	900b883a 	mov	r5,r18
 1002064:	1001b840 	call	1001b84 <memmove>
 1002068:	003fd006 	br	1001fac <_realloc_r+0x348>
 100206c:	30800117 	ldw	r2,4(r6)
 1002070:	e0c00404 	addi	r3,fp,16
 1002074:	1108703a 	and	r4,r2,r4
 1002078:	9905883a 	add	r2,r19,r4
 100207c:	10ff4d16 	blt	r2,r3,1001db4 <_realloc_r+0x150>
 1002080:	1705c83a 	sub	r2,r2,fp
 1002084:	870b883a 	add	r5,r16,fp
 1002088:	10800054 	ori	r2,r2,1
 100208c:	28800115 	stw	r2,4(r5)
 1002090:	80c00117 	ldw	r3,4(r16)
 1002094:	00804074 	movhi	r2,257
 1002098:	10a24f04 	addi	r2,r2,-30404
 100209c:	b009883a 	mov	r4,r22
 10020a0:	18c0004c 	andi	r3,r3,1
 10020a4:	e0c6b03a 	or	r3,fp,r3
 10020a8:	11400215 	stw	r5,8(r2)
 10020ac:	80c00115 	stw	r3,4(r16)
 10020b0:	1003a6c0 	call	1003a6c <__malloc_unlock>
 10020b4:	84400204 	addi	r17,r16,8
 10020b8:	003f2006 	br	1001d3c <_realloc_r+0xd8>
 10020bc:	98a9883a 	add	r20,r19,r2
 10020c0:	2509883a 	add	r4,r4,r20
 10020c4:	e0800404 	addi	r2,fp,16
 10020c8:	d9000115 	stw	r4,4(sp)
 10020cc:	20bf7016 	blt	r4,r2,1001e90 <_realloc_r+0x22c>
 10020d0:	b8c00317 	ldw	r3,12(r23)
 10020d4:	b8800217 	ldw	r2,8(r23)
 10020d8:	99bfff04 	addi	r6,r19,-4
 10020dc:	01400904 	movi	r5,36
 10020e0:	18800215 	stw	r2,8(r3)
 10020e4:	10c00315 	stw	r3,12(r2)
 10020e8:	bc400204 	addi	r17,r23,8
 10020ec:	29804136 	bltu	r5,r6,10021f4 <_realloc_r+0x590>
 10020f0:	008004c4 	movi	r2,19
 10020f4:	9009883a 	mov	r4,r18
 10020f8:	880f883a 	mov	r7,r17
 10020fc:	11800f2e 	bgeu	r2,r6,100213c <_realloc_r+0x4d8>
 1002100:	90800017 	ldw	r2,0(r18)
 1002104:	b9c00404 	addi	r7,r23,16
 1002108:	91000204 	addi	r4,r18,8
 100210c:	b8800215 	stw	r2,8(r23)
 1002110:	90c00117 	ldw	r3,4(r18)
 1002114:	008006c4 	movi	r2,27
 1002118:	b8c00315 	stw	r3,12(r23)
 100211c:	1180072e 	bgeu	r2,r6,100213c <_realloc_r+0x4d8>
 1002120:	90c00217 	ldw	r3,8(r18)
 1002124:	b9c00604 	addi	r7,r23,24
 1002128:	91000404 	addi	r4,r18,16
 100212c:	b8c00415 	stw	r3,16(r23)
 1002130:	90800317 	ldw	r2,12(r18)
 1002134:	b8800515 	stw	r2,20(r23)
 1002138:	31404026 	beq	r6,r5,100223c <_realloc_r+0x5d8>
 100213c:	20800017 	ldw	r2,0(r4)
 1002140:	38800015 	stw	r2,0(r7)
 1002144:	20c00117 	ldw	r3,4(r4)
 1002148:	38c00115 	stw	r3,4(r7)
 100214c:	20800217 	ldw	r2,8(r4)
 1002150:	38800215 	stw	r2,8(r7)
 1002154:	d8c00117 	ldw	r3,4(sp)
 1002158:	bf0b883a 	add	r5,r23,fp
 100215c:	b009883a 	mov	r4,r22
 1002160:	1f05c83a 	sub	r2,r3,fp
 1002164:	10800054 	ori	r2,r2,1
 1002168:	28800115 	stw	r2,4(r5)
 100216c:	b8c00117 	ldw	r3,4(r23)
 1002170:	00804074 	movhi	r2,257
 1002174:	10a24f04 	addi	r2,r2,-30404
 1002178:	11400215 	stw	r5,8(r2)
 100217c:	18c0004c 	andi	r3,r3,1
 1002180:	e0c6b03a 	or	r3,fp,r3
 1002184:	b8c00115 	stw	r3,4(r23)
 1002188:	1003a6c0 	call	1003a6c <__malloc_unlock>
 100218c:	003eeb06 	br	1001d3c <_realloc_r+0xd8>
 1002190:	20800117 	ldw	r2,4(r4)
 1002194:	00ffff04 	movi	r3,-4
 1002198:	800f883a 	mov	r7,r16
 100219c:	10c4703a 	and	r2,r2,r3
 10021a0:	98a9883a 	add	r20,r19,r2
 10021a4:	84000204 	addi	r16,r16,8
 10021a8:	003ecf06 	br	1001ce8 <_realloc_r+0x84>
 10021ac:	900b883a 	mov	r5,r18
 10021b0:	8009883a 	mov	r4,r16
 10021b4:	1001b840 	call	1001b84 <memmove>
 10021b8:	dd000017 	ldw	r20,0(sp)
 10021bc:	b80f883a 	mov	r7,r23
 10021c0:	003ec906 	br	1001ce8 <_realloc_r+0x84>
 10021c4:	900b883a 	mov	r5,r18
 10021c8:	8009883a 	mov	r4,r16
 10021cc:	1001b840 	call	1001b84 <memmove>
 10021d0:	b80f883a 	mov	r7,r23
 10021d4:	003ec406 	br	1001ce8 <_realloc_r+0x84>
 10021d8:	90c00417 	ldw	r3,16(r18)
 10021dc:	89400604 	addi	r5,r17,24
 10021e0:	91000604 	addi	r4,r18,24
 10021e4:	88c00415 	stw	r3,16(r17)
 10021e8:	90800517 	ldw	r2,20(r18)
 10021ec:	88800515 	stw	r2,20(r17)
 10021f0:	003f6806 	br	1001f94 <_realloc_r+0x330>
 10021f4:	900b883a 	mov	r5,r18
 10021f8:	8809883a 	mov	r4,r17
 10021fc:	1001b840 	call	1001b84 <memmove>
 1002200:	003fd406 	br	1002154 <_realloc_r+0x4f0>
 1002204:	90c00417 	ldw	r3,16(r18)
 1002208:	91000604 	addi	r4,r18,24
 100220c:	ba000804 	addi	r8,r23,32
 1002210:	b8c00615 	stw	r3,24(r23)
 1002214:	90800517 	ldw	r2,20(r18)
 1002218:	b8800715 	stw	r2,28(r23)
 100221c:	003f1206 	br	1001e68 <_realloc_r+0x204>
 1002220:	90c00417 	ldw	r3,16(r18)
 1002224:	91000604 	addi	r4,r18,24
 1002228:	ba000804 	addi	r8,r23,32
 100222c:	b8c00615 	stw	r3,24(r23)
 1002230:	90800517 	ldw	r2,20(r18)
 1002234:	b8800715 	stw	r2,28(r23)
 1002238:	003f3206 	br	1001f04 <_realloc_r+0x2a0>
 100223c:	90c00417 	ldw	r3,16(r18)
 1002240:	91000604 	addi	r4,r18,24
 1002244:	b9c00804 	addi	r7,r23,32
 1002248:	b8c00615 	stw	r3,24(r23)
 100224c:	90800517 	ldw	r2,20(r18)
 1002250:	b8800715 	stw	r2,28(r23)
 1002254:	003fb906 	br	100213c <_realloc_r+0x4d8>

01002258 <_sbrk_r>:
 1002258:	defffd04 	addi	sp,sp,-12
 100225c:	dc000015 	stw	r16,0(sp)
 1002260:	04004074 	movhi	r16,257
 1002264:	8428d004 	addi	r16,r16,-23744
 1002268:	dc400115 	stw	r17,4(sp)
 100226c:	80000015 	stw	zero,0(r16)
 1002270:	2023883a 	mov	r17,r4
 1002274:	2809883a 	mov	r4,r5
 1002278:	dfc00215 	stw	ra,8(sp)
 100227c:	1003c0c0 	call	1003c0c <sbrk>
 1002280:	1007883a 	mov	r3,r2
 1002284:	00bfffc4 	movi	r2,-1
 1002288:	18800626 	beq	r3,r2,10022a4 <_sbrk_r+0x4c>
 100228c:	1805883a 	mov	r2,r3
 1002290:	dfc00217 	ldw	ra,8(sp)
 1002294:	dc400117 	ldw	r17,4(sp)
 1002298:	dc000017 	ldw	r16,0(sp)
 100229c:	dec00304 	addi	sp,sp,12
 10022a0:	f800283a 	ret
 10022a4:	80800017 	ldw	r2,0(r16)
 10022a8:	103ff826 	beq	r2,zero,100228c <_sbrk_r+0x34>
 10022ac:	88800015 	stw	r2,0(r17)
 10022b0:	1805883a 	mov	r2,r3
 10022b4:	dfc00217 	ldw	ra,8(sp)
 10022b8:	dc400117 	ldw	r17,4(sp)
 10022bc:	dc000017 	ldw	r16,0(sp)
 10022c0:	dec00304 	addi	sp,sp,12
 10022c4:	f800283a 	ret

010022c8 <__swsetup_r>:
 10022c8:	00804074 	movhi	r2,257
 10022cc:	10a8b604 	addi	r2,r2,-23848
 10022d0:	10c00017 	ldw	r3,0(r2)
 10022d4:	defffd04 	addi	sp,sp,-12
 10022d8:	dc400115 	stw	r17,4(sp)
 10022dc:	dc000015 	stw	r16,0(sp)
 10022e0:	dfc00215 	stw	ra,8(sp)
 10022e4:	2023883a 	mov	r17,r4
 10022e8:	2821883a 	mov	r16,r5
 10022ec:	18000226 	beq	r3,zero,10022f8 <__swsetup_r+0x30>
 10022f0:	18800e17 	ldw	r2,56(r3)
 10022f4:	10001f26 	beq	r2,zero,1002374 <__swsetup_r+0xac>
 10022f8:	8100030b 	ldhu	r4,12(r16)
 10022fc:	2080020c 	andi	r2,r4,8
 1002300:	10002826 	beq	r2,zero,10023a4 <__swsetup_r+0xdc>
 1002304:	81400417 	ldw	r5,16(r16)
 1002308:	28001d26 	beq	r5,zero,1002380 <__swsetup_r+0xb8>
 100230c:	2080004c 	andi	r2,r4,1
 1002310:	1005003a 	cmpeq	r2,r2,zero
 1002314:	10000b26 	beq	r2,zero,1002344 <__swsetup_r+0x7c>
 1002318:	2080008c 	andi	r2,r4,2
 100231c:	10001226 	beq	r2,zero,1002368 <__swsetup_r+0xa0>
 1002320:	0005883a 	mov	r2,zero
 1002324:	80800215 	stw	r2,8(r16)
 1002328:	28000b26 	beq	r5,zero,1002358 <__swsetup_r+0x90>
 100232c:	0005883a 	mov	r2,zero
 1002330:	dfc00217 	ldw	ra,8(sp)
 1002334:	dc400117 	ldw	r17,4(sp)
 1002338:	dc000017 	ldw	r16,0(sp)
 100233c:	dec00304 	addi	sp,sp,12
 1002340:	f800283a 	ret
 1002344:	80800517 	ldw	r2,20(r16)
 1002348:	80000215 	stw	zero,8(r16)
 100234c:	0085c83a 	sub	r2,zero,r2
 1002350:	80800615 	stw	r2,24(r16)
 1002354:	283ff51e 	bne	r5,zero,100232c <__swsetup_r+0x64>
 1002358:	2080200c 	andi	r2,r4,128
 100235c:	103ff326 	beq	r2,zero,100232c <__swsetup_r+0x64>
 1002360:	00bfffc4 	movi	r2,-1
 1002364:	003ff206 	br	1002330 <__swsetup_r+0x68>
 1002368:	80800517 	ldw	r2,20(r16)
 100236c:	80800215 	stw	r2,8(r16)
 1002370:	003fed06 	br	1002328 <__swsetup_r+0x60>
 1002374:	1809883a 	mov	r4,r3
 1002378:	100269c0 	call	100269c <__sinit>
 100237c:	003fde06 	br	10022f8 <__swsetup_r+0x30>
 1002380:	20c0a00c 	andi	r3,r4,640
 1002384:	00808004 	movi	r2,512
 1002388:	18bfe026 	beq	r3,r2,100230c <__swsetup_r+0x44>
 100238c:	8809883a 	mov	r4,r17
 1002390:	800b883a 	mov	r5,r16
 1002394:	1002ee80 	call	1002ee8 <__smakebuf_r>
 1002398:	8100030b 	ldhu	r4,12(r16)
 100239c:	81400417 	ldw	r5,16(r16)
 10023a0:	003fda06 	br	100230c <__swsetup_r+0x44>
 10023a4:	2080040c 	andi	r2,r4,16
 10023a8:	103fed26 	beq	r2,zero,1002360 <__swsetup_r+0x98>
 10023ac:	2080010c 	andi	r2,r4,4
 10023b0:	10001226 	beq	r2,zero,10023fc <__swsetup_r+0x134>
 10023b4:	81400c17 	ldw	r5,48(r16)
 10023b8:	28000526 	beq	r5,zero,10023d0 <__swsetup_r+0x108>
 10023bc:	80801004 	addi	r2,r16,64
 10023c0:	28800226 	beq	r5,r2,10023cc <__swsetup_r+0x104>
 10023c4:	8809883a 	mov	r4,r17
 10023c8:	1002a540 	call	1002a54 <_free_r>
 10023cc:	80000c15 	stw	zero,48(r16)
 10023d0:	8080030b 	ldhu	r2,12(r16)
 10023d4:	81400417 	ldw	r5,16(r16)
 10023d8:	80000115 	stw	zero,4(r16)
 10023dc:	10bff6cc 	andi	r2,r2,65499
 10023e0:	8080030d 	sth	r2,12(r16)
 10023e4:	81400015 	stw	r5,0(r16)
 10023e8:	8080030b 	ldhu	r2,12(r16)
 10023ec:	10800214 	ori	r2,r2,8
 10023f0:	113fffcc 	andi	r4,r2,65535
 10023f4:	8080030d 	sth	r2,12(r16)
 10023f8:	003fc306 	br	1002308 <__swsetup_r+0x40>
 10023fc:	81400417 	ldw	r5,16(r16)
 1002400:	003ff906 	br	10023e8 <__swsetup_r+0x120>

01002404 <_fflush_r>:
 1002404:	defffb04 	addi	sp,sp,-20
 1002408:	dcc00315 	stw	r19,12(sp)
 100240c:	dc800215 	stw	r18,8(sp)
 1002410:	dfc00415 	stw	ra,16(sp)
 1002414:	dc400115 	stw	r17,4(sp)
 1002418:	dc000015 	stw	r16,0(sp)
 100241c:	2027883a 	mov	r19,r4
 1002420:	2825883a 	mov	r18,r5
 1002424:	20000226 	beq	r4,zero,1002430 <_fflush_r+0x2c>
 1002428:	20800e17 	ldw	r2,56(r4)
 100242c:	10005626 	beq	r2,zero,1002588 <_fflush_r+0x184>
 1002430:	9100030b 	ldhu	r4,12(r18)
 1002434:	20ffffcc 	andi	r3,r4,65535
 1002438:	18e0001c 	xori	r3,r3,32768
 100243c:	18e00004 	addi	r3,r3,-32768
 1002440:	1880020c 	andi	r2,r3,8
 1002444:	1000261e 	bne	r2,zero,10024e0 <_fflush_r+0xdc>
 1002448:	90c00117 	ldw	r3,4(r18)
 100244c:	20820014 	ori	r2,r4,2048
 1002450:	9080030d 	sth	r2,12(r18)
 1002454:	1009883a 	mov	r4,r2
 1002458:	00c0400e 	bge	zero,r3,100255c <_fflush_r+0x158>
 100245c:	92000a17 	ldw	r8,40(r18)
 1002460:	40004026 	beq	r8,zero,1002564 <_fflush_r+0x160>
 1002464:	2084000c 	andi	r2,r4,4096
 1002468:	10005326 	beq	r2,zero,10025b8 <_fflush_r+0x1b4>
 100246c:	94001417 	ldw	r16,80(r18)
 1002470:	9080030b 	ldhu	r2,12(r18)
 1002474:	1080010c 	andi	r2,r2,4
 1002478:	1000481e 	bne	r2,zero,100259c <_fflush_r+0x198>
 100247c:	91400717 	ldw	r5,28(r18)
 1002480:	9809883a 	mov	r4,r19
 1002484:	800d883a 	mov	r6,r16
 1002488:	000f883a 	mov	r7,zero
 100248c:	403ee83a 	callr	r8
 1002490:	8080261e 	bne	r16,r2,100252c <_fflush_r+0x128>
 1002494:	9080030b 	ldhu	r2,12(r18)
 1002498:	91000417 	ldw	r4,16(r18)
 100249c:	90000115 	stw	zero,4(r18)
 10024a0:	10bdffcc 	andi	r2,r2,63487
 10024a4:	10ffffcc 	andi	r3,r2,65535
 10024a8:	18c4000c 	andi	r3,r3,4096
 10024ac:	9080030d 	sth	r2,12(r18)
 10024b0:	91000015 	stw	r4,0(r18)
 10024b4:	18002b26 	beq	r3,zero,1002564 <_fflush_r+0x160>
 10024b8:	0007883a 	mov	r3,zero
 10024bc:	1805883a 	mov	r2,r3
 10024c0:	94001415 	stw	r16,80(r18)
 10024c4:	dfc00417 	ldw	ra,16(sp)
 10024c8:	dcc00317 	ldw	r19,12(sp)
 10024cc:	dc800217 	ldw	r18,8(sp)
 10024d0:	dc400117 	ldw	r17,4(sp)
 10024d4:	dc000017 	ldw	r16,0(sp)
 10024d8:	dec00504 	addi	sp,sp,20
 10024dc:	f800283a 	ret
 10024e0:	94400417 	ldw	r17,16(r18)
 10024e4:	88001f26 	beq	r17,zero,1002564 <_fflush_r+0x160>
 10024e8:	90800017 	ldw	r2,0(r18)
 10024ec:	18c000cc 	andi	r3,r3,3
 10024f0:	94400015 	stw	r17,0(r18)
 10024f4:	1461c83a 	sub	r16,r2,r17
 10024f8:	18002526 	beq	r3,zero,1002590 <_fflush_r+0x18c>
 10024fc:	0005883a 	mov	r2,zero
 1002500:	90800215 	stw	r2,8(r18)
 1002504:	0400170e 	bge	zero,r16,1002564 <_fflush_r+0x160>
 1002508:	90c00917 	ldw	r3,36(r18)
 100250c:	91400717 	ldw	r5,28(r18)
 1002510:	880d883a 	mov	r6,r17
 1002514:	800f883a 	mov	r7,r16
 1002518:	9809883a 	mov	r4,r19
 100251c:	183ee83a 	callr	r3
 1002520:	88a3883a 	add	r17,r17,r2
 1002524:	80a1c83a 	sub	r16,r16,r2
 1002528:	00bff616 	blt	zero,r2,1002504 <_fflush_r+0x100>
 100252c:	9080030b 	ldhu	r2,12(r18)
 1002530:	00ffffc4 	movi	r3,-1
 1002534:	10801014 	ori	r2,r2,64
 1002538:	9080030d 	sth	r2,12(r18)
 100253c:	1805883a 	mov	r2,r3
 1002540:	dfc00417 	ldw	ra,16(sp)
 1002544:	dcc00317 	ldw	r19,12(sp)
 1002548:	dc800217 	ldw	r18,8(sp)
 100254c:	dc400117 	ldw	r17,4(sp)
 1002550:	dc000017 	ldw	r16,0(sp)
 1002554:	dec00504 	addi	sp,sp,20
 1002558:	f800283a 	ret
 100255c:	90800f17 	ldw	r2,60(r18)
 1002560:	00bfbe16 	blt	zero,r2,100245c <_fflush_r+0x58>
 1002564:	0007883a 	mov	r3,zero
 1002568:	1805883a 	mov	r2,r3
 100256c:	dfc00417 	ldw	ra,16(sp)
 1002570:	dcc00317 	ldw	r19,12(sp)
 1002574:	dc800217 	ldw	r18,8(sp)
 1002578:	dc400117 	ldw	r17,4(sp)
 100257c:	dc000017 	ldw	r16,0(sp)
 1002580:	dec00504 	addi	sp,sp,20
 1002584:	f800283a 	ret
 1002588:	100269c0 	call	100269c <__sinit>
 100258c:	003fa806 	br	1002430 <_fflush_r+0x2c>
 1002590:	90800517 	ldw	r2,20(r18)
 1002594:	90800215 	stw	r2,8(r18)
 1002598:	003fda06 	br	1002504 <_fflush_r+0x100>
 100259c:	90800117 	ldw	r2,4(r18)
 10025a0:	90c00c17 	ldw	r3,48(r18)
 10025a4:	80a1c83a 	sub	r16,r16,r2
 10025a8:	183fb426 	beq	r3,zero,100247c <_fflush_r+0x78>
 10025ac:	90800f17 	ldw	r2,60(r18)
 10025b0:	80a1c83a 	sub	r16,r16,r2
 10025b4:	003fb106 	br	100247c <_fflush_r+0x78>
 10025b8:	91400717 	ldw	r5,28(r18)
 10025bc:	9809883a 	mov	r4,r19
 10025c0:	000d883a 	mov	r6,zero
 10025c4:	01c00044 	movi	r7,1
 10025c8:	403ee83a 	callr	r8
 10025cc:	1021883a 	mov	r16,r2
 10025d0:	00bfffc4 	movi	r2,-1
 10025d4:	80800226 	beq	r16,r2,10025e0 <_fflush_r+0x1dc>
 10025d8:	92000a17 	ldw	r8,40(r18)
 10025dc:	003fa406 	br	1002470 <_fflush_r+0x6c>
 10025e0:	98c00017 	ldw	r3,0(r19)
 10025e4:	00800744 	movi	r2,29
 10025e8:	18bfde26 	beq	r3,r2,1002564 <_fflush_r+0x160>
 10025ec:	9080030b 	ldhu	r2,12(r18)
 10025f0:	8007883a 	mov	r3,r16
 10025f4:	10801014 	ori	r2,r2,64
 10025f8:	9080030d 	sth	r2,12(r18)
 10025fc:	003fcf06 	br	100253c <_fflush_r+0x138>

01002600 <fflush>:
 1002600:	01404034 	movhi	r5,256
 1002604:	29490104 	addi	r5,r5,9220
 1002608:	2007883a 	mov	r3,r4
 100260c:	20000526 	beq	r4,zero,1002624 <fflush+0x24>
 1002610:	00804074 	movhi	r2,257
 1002614:	10a8b604 	addi	r2,r2,-23848
 1002618:	11000017 	ldw	r4,0(r2)
 100261c:	180b883a 	mov	r5,r3
 1002620:	10024041 	jmpi	1002404 <_fflush_r>
 1002624:	00804074 	movhi	r2,257
 1002628:	10a8b704 	addi	r2,r2,-23844
 100262c:	11000017 	ldw	r4,0(r2)
 1002630:	1002d681 	jmpi	1002d68 <_fwalk_reent>

01002634 <std>:
 1002634:	00804034 	movhi	r2,256
 1002638:	108c4504 	addi	r2,r2,12564
 100263c:	20800b15 	stw	r2,44(r4)
 1002640:	00804034 	movhi	r2,256
 1002644:	108c8004 	addi	r2,r2,12800
 1002648:	20800815 	stw	r2,32(r4)
 100264c:	00c04034 	movhi	r3,256
 1002650:	18cc6104 	addi	r3,r3,12676
 1002654:	00804034 	movhi	r2,256
 1002658:	108c4704 	addi	r2,r2,12572
 100265c:	2140030d 	sth	r5,12(r4)
 1002660:	2180038d 	sth	r6,14(r4)
 1002664:	20c00915 	stw	r3,36(r4)
 1002668:	20800a15 	stw	r2,40(r4)
 100266c:	20000015 	stw	zero,0(r4)
 1002670:	20000115 	stw	zero,4(r4)
 1002674:	20000215 	stw	zero,8(r4)
 1002678:	20000415 	stw	zero,16(r4)
 100267c:	20000515 	stw	zero,20(r4)
 1002680:	20000615 	stw	zero,24(r4)
 1002684:	21000715 	stw	r4,28(r4)
 1002688:	f800283a 	ret

0100268c <__sfp_lock_acquire>:
 100268c:	f800283a 	ret

01002690 <__sfp_lock_release>:
 1002690:	f800283a 	ret

01002694 <__sinit_lock_acquire>:
 1002694:	f800283a 	ret

01002698 <__sinit_lock_release>:
 1002698:	f800283a 	ret

0100269c <__sinit>:
 100269c:	20800e17 	ldw	r2,56(r4)
 10026a0:	defffd04 	addi	sp,sp,-12
 10026a4:	dc400115 	stw	r17,4(sp)
 10026a8:	dc000015 	stw	r16,0(sp)
 10026ac:	dfc00215 	stw	ra,8(sp)
 10026b0:	04400044 	movi	r17,1
 10026b4:	01400104 	movi	r5,4
 10026b8:	000d883a 	mov	r6,zero
 10026bc:	2021883a 	mov	r16,r4
 10026c0:	2200bb04 	addi	r8,r4,748
 10026c4:	200f883a 	mov	r7,r4
 10026c8:	10000526 	beq	r2,zero,10026e0 <__sinit+0x44>
 10026cc:	dfc00217 	ldw	ra,8(sp)
 10026d0:	dc400117 	ldw	r17,4(sp)
 10026d4:	dc000017 	ldw	r16,0(sp)
 10026d8:	dec00304 	addi	sp,sp,12
 10026dc:	f800283a 	ret
 10026e0:	21000117 	ldw	r4,4(r4)
 10026e4:	00804034 	movhi	r2,256
 10026e8:	1089e004 	addi	r2,r2,10112
 10026ec:	00c000c4 	movi	r3,3
 10026f0:	80800f15 	stw	r2,60(r16)
 10026f4:	80c0b915 	stw	r3,740(r16)
 10026f8:	8200ba15 	stw	r8,744(r16)
 10026fc:	84400e15 	stw	r17,56(r16)
 1002700:	8000b815 	stw	zero,736(r16)
 1002704:	10026340 	call	1002634 <std>
 1002708:	81000217 	ldw	r4,8(r16)
 100270c:	880d883a 	mov	r6,r17
 1002710:	800f883a 	mov	r7,r16
 1002714:	01400284 	movi	r5,10
 1002718:	10026340 	call	1002634 <std>
 100271c:	81000317 	ldw	r4,12(r16)
 1002720:	800f883a 	mov	r7,r16
 1002724:	01400484 	movi	r5,18
 1002728:	01800084 	movi	r6,2
 100272c:	dfc00217 	ldw	ra,8(sp)
 1002730:	dc400117 	ldw	r17,4(sp)
 1002734:	dc000017 	ldw	r16,0(sp)
 1002738:	dec00304 	addi	sp,sp,12
 100273c:	10026341 	jmpi	1002634 <std>

01002740 <__fp_lock>:
 1002740:	0005883a 	mov	r2,zero
 1002744:	f800283a 	ret

01002748 <__fp_unlock>:
 1002748:	0005883a 	mov	r2,zero
 100274c:	f800283a 	ret

01002750 <__fp_unlock_all>:
 1002750:	00804074 	movhi	r2,257
 1002754:	10a8b604 	addi	r2,r2,-23848
 1002758:	11000017 	ldw	r4,0(r2)
 100275c:	01404034 	movhi	r5,256
 1002760:	2949d204 	addi	r5,r5,10056
 1002764:	1002e301 	jmpi	1002e30 <_fwalk>

01002768 <__fp_lock_all>:
 1002768:	00804074 	movhi	r2,257
 100276c:	10a8b604 	addi	r2,r2,-23848
 1002770:	11000017 	ldw	r4,0(r2)
 1002774:	01404034 	movhi	r5,256
 1002778:	2949d004 	addi	r5,r5,10048
 100277c:	1002e301 	jmpi	1002e30 <_fwalk>

01002780 <_cleanup_r>:
 1002780:	01404034 	movhi	r5,256
 1002784:	294d1604 	addi	r5,r5,13400
 1002788:	1002e301 	jmpi	1002e30 <_fwalk>

0100278c <_cleanup>:
 100278c:	00804074 	movhi	r2,257
 1002790:	10a8b704 	addi	r2,r2,-23844
 1002794:	11000017 	ldw	r4,0(r2)
 1002798:	10027801 	jmpi	1002780 <_cleanup_r>

0100279c <__sfmoreglue>:
 100279c:	defffc04 	addi	sp,sp,-16
 10027a0:	dc000015 	stw	r16,0(sp)
 10027a4:	2821883a 	mov	r16,r5
 10027a8:	dc400115 	stw	r17,4(sp)
 10027ac:	01401704 	movi	r5,92
 10027b0:	2023883a 	mov	r17,r4
 10027b4:	8009883a 	mov	r4,r16
 10027b8:	dfc00315 	stw	ra,12(sp)
 10027bc:	dcc00215 	stw	r19,8(sp)
 10027c0:	1000cc40 	call	1000cc4 <__mulsi3>
 10027c4:	11400304 	addi	r5,r2,12
 10027c8:	8809883a 	mov	r4,r17
 10027cc:	1027883a 	mov	r19,r2
 10027d0:	10012c00 	call	10012c0 <_malloc_r>
 10027d4:	10c00304 	addi	r3,r2,12
 10027d8:	1023883a 	mov	r17,r2
 10027dc:	1809883a 	mov	r4,r3
 10027e0:	980d883a 	mov	r6,r19
 10027e4:	000b883a 	mov	r5,zero
 10027e8:	10000b26 	beq	r2,zero,1002818 <__sfmoreglue+0x7c>
 10027ec:	14000115 	stw	r16,4(r2)
 10027f0:	10c00215 	stw	r3,8(r2)
 10027f4:	10000015 	stw	zero,0(r2)
 10027f8:	100307c0 	call	100307c <memset>
 10027fc:	8805883a 	mov	r2,r17
 1002800:	dfc00317 	ldw	ra,12(sp)
 1002804:	dcc00217 	ldw	r19,8(sp)
 1002808:	dc400117 	ldw	r17,4(sp)
 100280c:	dc000017 	ldw	r16,0(sp)
 1002810:	dec00404 	addi	sp,sp,16
 1002814:	f800283a 	ret
 1002818:	0023883a 	mov	r17,zero
 100281c:	8805883a 	mov	r2,r17
 1002820:	dfc00317 	ldw	ra,12(sp)
 1002824:	dcc00217 	ldw	r19,8(sp)
 1002828:	dc400117 	ldw	r17,4(sp)
 100282c:	dc000017 	ldw	r16,0(sp)
 1002830:	dec00404 	addi	sp,sp,16
 1002834:	f800283a 	ret

01002838 <__sfp>:
 1002838:	defffd04 	addi	sp,sp,-12
 100283c:	00804074 	movhi	r2,257
 1002840:	10a8b704 	addi	r2,r2,-23844
 1002844:	dc000015 	stw	r16,0(sp)
 1002848:	14000017 	ldw	r16,0(r2)
 100284c:	dc400115 	stw	r17,4(sp)
 1002850:	dfc00215 	stw	ra,8(sp)
 1002854:	80800e17 	ldw	r2,56(r16)
 1002858:	2023883a 	mov	r17,r4
 100285c:	10002626 	beq	r2,zero,10028f8 <__sfp+0xc0>
 1002860:	8400b804 	addi	r16,r16,736
 1002864:	80800117 	ldw	r2,4(r16)
 1002868:	81000217 	ldw	r4,8(r16)
 100286c:	10ffffc4 	addi	r3,r2,-1
 1002870:	18000916 	blt	r3,zero,1002898 <__sfp+0x60>
 1002874:	2080030f 	ldh	r2,12(r4)
 1002878:	10000b26 	beq	r2,zero,10028a8 <__sfp+0x70>
 100287c:	017fffc4 	movi	r5,-1
 1002880:	00000206 	br	100288c <__sfp+0x54>
 1002884:	2080030f 	ldh	r2,12(r4)
 1002888:	10000726 	beq	r2,zero,10028a8 <__sfp+0x70>
 100288c:	18ffffc4 	addi	r3,r3,-1
 1002890:	21001704 	addi	r4,r4,92
 1002894:	197ffb1e 	bne	r3,r5,1002884 <__sfp+0x4c>
 1002898:	80800017 	ldw	r2,0(r16)
 100289c:	10001926 	beq	r2,zero,1002904 <__sfp+0xcc>
 10028a0:	1021883a 	mov	r16,r2
 10028a4:	003fef06 	br	1002864 <__sfp+0x2c>
 10028a8:	00bfffc4 	movi	r2,-1
 10028ac:	00c00044 	movi	r3,1
 10028b0:	2080038d 	sth	r2,14(r4)
 10028b4:	20c0030d 	sth	r3,12(r4)
 10028b8:	20000015 	stw	zero,0(r4)
 10028bc:	20000215 	stw	zero,8(r4)
 10028c0:	20000115 	stw	zero,4(r4)
 10028c4:	20000415 	stw	zero,16(r4)
 10028c8:	20000515 	stw	zero,20(r4)
 10028cc:	20000615 	stw	zero,24(r4)
 10028d0:	20000c15 	stw	zero,48(r4)
 10028d4:	20000d15 	stw	zero,52(r4)
 10028d8:	20001115 	stw	zero,68(r4)
 10028dc:	20001215 	stw	zero,72(r4)
 10028e0:	2005883a 	mov	r2,r4
 10028e4:	dfc00217 	ldw	ra,8(sp)
 10028e8:	dc400117 	ldw	r17,4(sp)
 10028ec:	dc000017 	ldw	r16,0(sp)
 10028f0:	dec00304 	addi	sp,sp,12
 10028f4:	f800283a 	ret
 10028f8:	8009883a 	mov	r4,r16
 10028fc:	100269c0 	call	100269c <__sinit>
 1002900:	003fd706 	br	1002860 <__sfp+0x28>
 1002904:	8809883a 	mov	r4,r17
 1002908:	01400104 	movi	r5,4
 100290c:	100279c0 	call	100279c <__sfmoreglue>
 1002910:	80800015 	stw	r2,0(r16)
 1002914:	103fe21e 	bne	r2,zero,10028a0 <__sfp+0x68>
 1002918:	00800304 	movi	r2,12
 100291c:	0009883a 	mov	r4,zero
 1002920:	88800015 	stw	r2,0(r17)
 1002924:	003fee06 	br	10028e0 <__sfp+0xa8>

01002928 <_malloc_trim_r>:
 1002928:	defffb04 	addi	sp,sp,-20
 100292c:	dcc00315 	stw	r19,12(sp)
 1002930:	04c04074 	movhi	r19,257
 1002934:	9ce24f04 	addi	r19,r19,-30404
 1002938:	dc800215 	stw	r18,8(sp)
 100293c:	dc400115 	stw	r17,4(sp)
 1002940:	dc000015 	stw	r16,0(sp)
 1002944:	2823883a 	mov	r17,r5
 1002948:	2025883a 	mov	r18,r4
 100294c:	dfc00415 	stw	ra,16(sp)
 1002950:	1003a680 	call	1003a68 <__malloc_lock>
 1002954:	98800217 	ldw	r2,8(r19)
 1002958:	9009883a 	mov	r4,r18
 100295c:	000b883a 	mov	r5,zero
 1002960:	10c00117 	ldw	r3,4(r2)
 1002964:	00bfff04 	movi	r2,-4
 1002968:	18a0703a 	and	r16,r3,r2
 100296c:	8463c83a 	sub	r17,r16,r17
 1002970:	8c43fbc4 	addi	r17,r17,4079
 1002974:	8822d33a 	srli	r17,r17,12
 1002978:	0083ffc4 	movi	r2,4095
 100297c:	8c7fffc4 	addi	r17,r17,-1
 1002980:	8822933a 	slli	r17,r17,12
 1002984:	1440060e 	bge	r2,r17,10029a0 <_malloc_trim_r+0x78>
 1002988:	10022580 	call	1002258 <_sbrk_r>
 100298c:	98c00217 	ldw	r3,8(r19)
 1002990:	9009883a 	mov	r4,r18
 1002994:	044bc83a 	sub	r5,zero,r17
 1002998:	80c7883a 	add	r3,r16,r3
 100299c:	10c00926 	beq	r2,r3,10029c4 <_malloc_trim_r+0x9c>
 10029a0:	1003a6c0 	call	1003a6c <__malloc_unlock>
 10029a4:	0005883a 	mov	r2,zero
 10029a8:	dfc00417 	ldw	ra,16(sp)
 10029ac:	dcc00317 	ldw	r19,12(sp)
 10029b0:	dc800217 	ldw	r18,8(sp)
 10029b4:	dc400117 	ldw	r17,4(sp)
 10029b8:	dc000017 	ldw	r16,0(sp)
 10029bc:	dec00504 	addi	sp,sp,20
 10029c0:	f800283a 	ret
 10029c4:	9009883a 	mov	r4,r18
 10029c8:	10022580 	call	1002258 <_sbrk_r>
 10029cc:	844dc83a 	sub	r6,r16,r17
 10029d0:	00ffffc4 	movi	r3,-1
 10029d4:	9009883a 	mov	r4,r18
 10029d8:	000b883a 	mov	r5,zero
 10029dc:	01c04074 	movhi	r7,257
 10029e0:	39e8d704 	addi	r7,r7,-23716
 10029e4:	31800054 	ori	r6,r6,1
 10029e8:	10c00926 	beq	r2,r3,1002a10 <_malloc_trim_r+0xe8>
 10029ec:	38800017 	ldw	r2,0(r7)
 10029f0:	98c00217 	ldw	r3,8(r19)
 10029f4:	9009883a 	mov	r4,r18
 10029f8:	1445c83a 	sub	r2,r2,r17
 10029fc:	38800015 	stw	r2,0(r7)
 1002a00:	19800115 	stw	r6,4(r3)
 1002a04:	1003a6c0 	call	1003a6c <__malloc_unlock>
 1002a08:	00800044 	movi	r2,1
 1002a0c:	003fe606 	br	10029a8 <_malloc_trim_r+0x80>
 1002a10:	10022580 	call	1002258 <_sbrk_r>
 1002a14:	99800217 	ldw	r6,8(r19)
 1002a18:	100f883a 	mov	r7,r2
 1002a1c:	9009883a 	mov	r4,r18
 1002a20:	1187c83a 	sub	r3,r2,r6
 1002a24:	008003c4 	movi	r2,15
 1002a28:	19400054 	ori	r5,r3,1
 1002a2c:	10ffdc0e 	bge	r2,r3,10029a0 <_malloc_trim_r+0x78>
 1002a30:	00804074 	movhi	r2,257
 1002a34:	10a8b904 	addi	r2,r2,-23836
 1002a38:	10c00017 	ldw	r3,0(r2)
 1002a3c:	00804074 	movhi	r2,257
 1002a40:	10a8d704 	addi	r2,r2,-23716
 1002a44:	31400115 	stw	r5,4(r6)
 1002a48:	38c7c83a 	sub	r3,r7,r3
 1002a4c:	10c00015 	stw	r3,0(r2)
 1002a50:	003fd306 	br	10029a0 <_malloc_trim_r+0x78>

01002a54 <_free_r>:
 1002a54:	defffd04 	addi	sp,sp,-12
 1002a58:	dc400115 	stw	r17,4(sp)
 1002a5c:	dc000015 	stw	r16,0(sp)
 1002a60:	dfc00215 	stw	ra,8(sp)
 1002a64:	2821883a 	mov	r16,r5
 1002a68:	2023883a 	mov	r17,r4
 1002a6c:	28005a26 	beq	r5,zero,1002bd8 <_free_r+0x184>
 1002a70:	1003a680 	call	1003a68 <__malloc_lock>
 1002a74:	823ffe04 	addi	r8,r16,-8
 1002a78:	41400117 	ldw	r5,4(r8)
 1002a7c:	00bfff84 	movi	r2,-2
 1002a80:	02804074 	movhi	r10,257
 1002a84:	52a24f04 	addi	r10,r10,-30404
 1002a88:	288e703a 	and	r7,r5,r2
 1002a8c:	41cd883a 	add	r6,r8,r7
 1002a90:	30c00117 	ldw	r3,4(r6)
 1002a94:	51000217 	ldw	r4,8(r10)
 1002a98:	00bfff04 	movi	r2,-4
 1002a9c:	1892703a 	and	r9,r3,r2
 1002aa0:	5017883a 	mov	r11,r10
 1002aa4:	31006726 	beq	r6,r4,1002c44 <_free_r+0x1f0>
 1002aa8:	2880004c 	andi	r2,r5,1
 1002aac:	1005003a 	cmpeq	r2,r2,zero
 1002ab0:	32400115 	stw	r9,4(r6)
 1002ab4:	10001a1e 	bne	r2,zero,1002b20 <_free_r+0xcc>
 1002ab8:	000b883a 	mov	r5,zero
 1002abc:	3247883a 	add	r3,r6,r9
 1002ac0:	18800117 	ldw	r2,4(r3)
 1002ac4:	1080004c 	andi	r2,r2,1
 1002ac8:	1000231e 	bne	r2,zero,1002b58 <_free_r+0x104>
 1002acc:	280ac03a 	cmpne	r5,r5,zero
 1002ad0:	3a4f883a 	add	r7,r7,r9
 1002ad4:	2800451e 	bne	r5,zero,1002bec <_free_r+0x198>
 1002ad8:	31000217 	ldw	r4,8(r6)
 1002adc:	00804074 	movhi	r2,257
 1002ae0:	10a25104 	addi	r2,r2,-30396
 1002ae4:	20807b26 	beq	r4,r2,1002cd4 <_free_r+0x280>
 1002ae8:	30800317 	ldw	r2,12(r6)
 1002aec:	3a07883a 	add	r3,r7,r8
 1002af0:	19c00015 	stw	r7,0(r3)
 1002af4:	11000215 	stw	r4,8(r2)
 1002af8:	20800315 	stw	r2,12(r4)
 1002afc:	38800054 	ori	r2,r7,1
 1002b00:	40800115 	stw	r2,4(r8)
 1002b04:	28001a26 	beq	r5,zero,1002b70 <_free_r+0x11c>
 1002b08:	8809883a 	mov	r4,r17
 1002b0c:	dfc00217 	ldw	ra,8(sp)
 1002b10:	dc400117 	ldw	r17,4(sp)
 1002b14:	dc000017 	ldw	r16,0(sp)
 1002b18:	dec00304 	addi	sp,sp,12
 1002b1c:	1003a6c1 	jmpi	1003a6c <__malloc_unlock>
 1002b20:	80bffe17 	ldw	r2,-8(r16)
 1002b24:	50c00204 	addi	r3,r10,8
 1002b28:	4091c83a 	sub	r8,r8,r2
 1002b2c:	41000217 	ldw	r4,8(r8)
 1002b30:	388f883a 	add	r7,r7,r2
 1002b34:	20c06126 	beq	r4,r3,1002cbc <_free_r+0x268>
 1002b38:	40800317 	ldw	r2,12(r8)
 1002b3c:	3247883a 	add	r3,r6,r9
 1002b40:	000b883a 	mov	r5,zero
 1002b44:	11000215 	stw	r4,8(r2)
 1002b48:	20800315 	stw	r2,12(r4)
 1002b4c:	18800117 	ldw	r2,4(r3)
 1002b50:	1080004c 	andi	r2,r2,1
 1002b54:	103fdd26 	beq	r2,zero,1002acc <_free_r+0x78>
 1002b58:	38800054 	ori	r2,r7,1
 1002b5c:	3a07883a 	add	r3,r7,r8
 1002b60:	280ac03a 	cmpne	r5,r5,zero
 1002b64:	40800115 	stw	r2,4(r8)
 1002b68:	19c00015 	stw	r7,0(r3)
 1002b6c:	283fe61e 	bne	r5,zero,1002b08 <_free_r+0xb4>
 1002b70:	00807fc4 	movi	r2,511
 1002b74:	11c01f2e 	bgeu	r2,r7,1002bf4 <_free_r+0x1a0>
 1002b78:	3806d27a 	srli	r3,r7,9
 1002b7c:	1800481e 	bne	r3,zero,1002ca0 <_free_r+0x24c>
 1002b80:	3804d0fa 	srli	r2,r7,3
 1002b84:	100690fa 	slli	r3,r2,3
 1002b88:	1acd883a 	add	r6,r3,r11
 1002b8c:	31400217 	ldw	r5,8(r6)
 1002b90:	31405926 	beq	r6,r5,1002cf8 <_free_r+0x2a4>
 1002b94:	28800117 	ldw	r2,4(r5)
 1002b98:	00ffff04 	movi	r3,-4
 1002b9c:	10c4703a 	and	r2,r2,r3
 1002ba0:	3880022e 	bgeu	r7,r2,1002bac <_free_r+0x158>
 1002ba4:	29400217 	ldw	r5,8(r5)
 1002ba8:	317ffa1e 	bne	r6,r5,1002b94 <_free_r+0x140>
 1002bac:	29800317 	ldw	r6,12(r5)
 1002bb0:	41800315 	stw	r6,12(r8)
 1002bb4:	41400215 	stw	r5,8(r8)
 1002bb8:	8809883a 	mov	r4,r17
 1002bbc:	2a000315 	stw	r8,12(r5)
 1002bc0:	32000215 	stw	r8,8(r6)
 1002bc4:	dfc00217 	ldw	ra,8(sp)
 1002bc8:	dc400117 	ldw	r17,4(sp)
 1002bcc:	dc000017 	ldw	r16,0(sp)
 1002bd0:	dec00304 	addi	sp,sp,12
 1002bd4:	1003a6c1 	jmpi	1003a6c <__malloc_unlock>
 1002bd8:	dfc00217 	ldw	ra,8(sp)
 1002bdc:	dc400117 	ldw	r17,4(sp)
 1002be0:	dc000017 	ldw	r16,0(sp)
 1002be4:	dec00304 	addi	sp,sp,12
 1002be8:	f800283a 	ret
 1002bec:	31000217 	ldw	r4,8(r6)
 1002bf0:	003fbd06 	br	1002ae8 <_free_r+0x94>
 1002bf4:	3806d0fa 	srli	r3,r7,3
 1002bf8:	00800044 	movi	r2,1
 1002bfc:	51400117 	ldw	r5,4(r10)
 1002c00:	180890fa 	slli	r4,r3,3
 1002c04:	1807d0ba 	srai	r3,r3,2
 1002c08:	22c9883a 	add	r4,r4,r11
 1002c0c:	21800217 	ldw	r6,8(r4)
 1002c10:	10c4983a 	sll	r2,r2,r3
 1002c14:	41000315 	stw	r4,12(r8)
 1002c18:	41800215 	stw	r6,8(r8)
 1002c1c:	288ab03a 	or	r5,r5,r2
 1002c20:	22000215 	stw	r8,8(r4)
 1002c24:	8809883a 	mov	r4,r17
 1002c28:	51400115 	stw	r5,4(r10)
 1002c2c:	32000315 	stw	r8,12(r6)
 1002c30:	dfc00217 	ldw	ra,8(sp)
 1002c34:	dc400117 	ldw	r17,4(sp)
 1002c38:	dc000017 	ldw	r16,0(sp)
 1002c3c:	dec00304 	addi	sp,sp,12
 1002c40:	1003a6c1 	jmpi	1003a6c <__malloc_unlock>
 1002c44:	2880004c 	andi	r2,r5,1
 1002c48:	3a4d883a 	add	r6,r7,r9
 1002c4c:	1000071e 	bne	r2,zero,1002c6c <_free_r+0x218>
 1002c50:	80bffe17 	ldw	r2,-8(r16)
 1002c54:	4091c83a 	sub	r8,r8,r2
 1002c58:	41000317 	ldw	r4,12(r8)
 1002c5c:	40c00217 	ldw	r3,8(r8)
 1002c60:	308d883a 	add	r6,r6,r2
 1002c64:	20c00215 	stw	r3,8(r4)
 1002c68:	19000315 	stw	r4,12(r3)
 1002c6c:	00804074 	movhi	r2,257
 1002c70:	10a8b804 	addi	r2,r2,-23840
 1002c74:	11000017 	ldw	r4,0(r2)
 1002c78:	30c00054 	ori	r3,r6,1
 1002c7c:	52000215 	stw	r8,8(r10)
 1002c80:	40c00115 	stw	r3,4(r8)
 1002c84:	313fa036 	bltu	r6,r4,1002b08 <_free_r+0xb4>
 1002c88:	00804074 	movhi	r2,257
 1002c8c:	10a8cd04 	addi	r2,r2,-23756
 1002c90:	11400017 	ldw	r5,0(r2)
 1002c94:	8809883a 	mov	r4,r17
 1002c98:	10029280 	call	1002928 <_malloc_trim_r>
 1002c9c:	003f9a06 	br	1002b08 <_free_r+0xb4>
 1002ca0:	00800104 	movi	r2,4
 1002ca4:	10c0072e 	bgeu	r2,r3,1002cc4 <_free_r+0x270>
 1002ca8:	00800504 	movi	r2,20
 1002cac:	10c01936 	bltu	r2,r3,1002d14 <_free_r+0x2c0>
 1002cb0:	188016c4 	addi	r2,r3,91
 1002cb4:	100690fa 	slli	r3,r2,3
 1002cb8:	003fb306 	br	1002b88 <_free_r+0x134>
 1002cbc:	01400044 	movi	r5,1
 1002cc0:	003f7e06 	br	1002abc <_free_r+0x68>
 1002cc4:	3804d1ba 	srli	r2,r7,6
 1002cc8:	10800e04 	addi	r2,r2,56
 1002ccc:	100690fa 	slli	r3,r2,3
 1002cd0:	003fad06 	br	1002b88 <_free_r+0x134>
 1002cd4:	22000315 	stw	r8,12(r4)
 1002cd8:	22000215 	stw	r8,8(r4)
 1002cdc:	3a05883a 	add	r2,r7,r8
 1002ce0:	38c00054 	ori	r3,r7,1
 1002ce4:	11c00015 	stw	r7,0(r2)
 1002ce8:	41000215 	stw	r4,8(r8)
 1002cec:	40c00115 	stw	r3,4(r8)
 1002cf0:	41000315 	stw	r4,12(r8)
 1002cf4:	003f8406 	br	1002b08 <_free_r+0xb4>
 1002cf8:	1005d0ba 	srai	r2,r2,2
 1002cfc:	00c00044 	movi	r3,1
 1002d00:	51000117 	ldw	r4,4(r10)
 1002d04:	1886983a 	sll	r3,r3,r2
 1002d08:	20c8b03a 	or	r4,r4,r3
 1002d0c:	51000115 	stw	r4,4(r10)
 1002d10:	003fa706 	br	1002bb0 <_free_r+0x15c>
 1002d14:	00801504 	movi	r2,84
 1002d18:	10c00436 	bltu	r2,r3,1002d2c <_free_r+0x2d8>
 1002d1c:	3804d33a 	srli	r2,r7,12
 1002d20:	10801b84 	addi	r2,r2,110
 1002d24:	100690fa 	slli	r3,r2,3
 1002d28:	003f9706 	br	1002b88 <_free_r+0x134>
 1002d2c:	00805504 	movi	r2,340
 1002d30:	10c00436 	bltu	r2,r3,1002d44 <_free_r+0x2f0>
 1002d34:	3804d3fa 	srli	r2,r7,15
 1002d38:	10801dc4 	addi	r2,r2,119
 1002d3c:	100690fa 	slli	r3,r2,3
 1002d40:	003f9106 	br	1002b88 <_free_r+0x134>
 1002d44:	00815504 	movi	r2,1364
 1002d48:	10c0032e 	bgeu	r2,r3,1002d58 <_free_r+0x304>
 1002d4c:	00801f84 	movi	r2,126
 1002d50:	00c0fc04 	movi	r3,1008
 1002d54:	003f8c06 	br	1002b88 <_free_r+0x134>
 1002d58:	3804d4ba 	srli	r2,r7,18
 1002d5c:	10801f04 	addi	r2,r2,124
 1002d60:	100690fa 	slli	r3,r2,3
 1002d64:	003f8806 	br	1002b88 <_free_r+0x134>

01002d68 <_fwalk_reent>:
 1002d68:	defff704 	addi	sp,sp,-36
 1002d6c:	dcc00315 	stw	r19,12(sp)
 1002d70:	24c0b804 	addi	r19,r4,736
 1002d74:	dd800615 	stw	r22,24(sp)
 1002d78:	dd400515 	stw	r21,20(sp)
 1002d7c:	dfc00815 	stw	ra,32(sp)
 1002d80:	ddc00715 	stw	r23,28(sp)
 1002d84:	dd000415 	stw	r20,16(sp)
 1002d88:	dc800215 	stw	r18,8(sp)
 1002d8c:	dc400115 	stw	r17,4(sp)
 1002d90:	dc000015 	stw	r16,0(sp)
 1002d94:	202b883a 	mov	r21,r4
 1002d98:	282d883a 	mov	r22,r5
 1002d9c:	100268c0 	call	100268c <__sfp_lock_acquire>
 1002da0:	98002126 	beq	r19,zero,1002e28 <_fwalk_reent+0xc0>
 1002da4:	002f883a 	mov	r23,zero
 1002da8:	9c800117 	ldw	r18,4(r19)
 1002dac:	9c000217 	ldw	r16,8(r19)
 1002db0:	90bfffc4 	addi	r2,r18,-1
 1002db4:	10000d16 	blt	r2,zero,1002dec <_fwalk_reent+0x84>
 1002db8:	0023883a 	mov	r17,zero
 1002dbc:	053fffc4 	movi	r20,-1
 1002dc0:	8080030f 	ldh	r2,12(r16)
 1002dc4:	8c400044 	addi	r17,r17,1
 1002dc8:	10000626 	beq	r2,zero,1002de4 <_fwalk_reent+0x7c>
 1002dcc:	8080038f 	ldh	r2,14(r16)
 1002dd0:	800b883a 	mov	r5,r16
 1002dd4:	a809883a 	mov	r4,r21
 1002dd8:	15000226 	beq	r2,r20,1002de4 <_fwalk_reent+0x7c>
 1002ddc:	b03ee83a 	callr	r22
 1002de0:	b8aeb03a 	or	r23,r23,r2
 1002de4:	84001704 	addi	r16,r16,92
 1002de8:	947ff51e 	bne	r18,r17,1002dc0 <_fwalk_reent+0x58>
 1002dec:	9cc00017 	ldw	r19,0(r19)
 1002df0:	983fed1e 	bne	r19,zero,1002da8 <_fwalk_reent+0x40>
 1002df4:	10026900 	call	1002690 <__sfp_lock_release>
 1002df8:	b805883a 	mov	r2,r23
 1002dfc:	dfc00817 	ldw	ra,32(sp)
 1002e00:	ddc00717 	ldw	r23,28(sp)
 1002e04:	dd800617 	ldw	r22,24(sp)
 1002e08:	dd400517 	ldw	r21,20(sp)
 1002e0c:	dd000417 	ldw	r20,16(sp)
 1002e10:	dcc00317 	ldw	r19,12(sp)
 1002e14:	dc800217 	ldw	r18,8(sp)
 1002e18:	dc400117 	ldw	r17,4(sp)
 1002e1c:	dc000017 	ldw	r16,0(sp)
 1002e20:	dec00904 	addi	sp,sp,36
 1002e24:	f800283a 	ret
 1002e28:	002f883a 	mov	r23,zero
 1002e2c:	003ff106 	br	1002df4 <_fwalk_reent+0x8c>

01002e30 <_fwalk>:
 1002e30:	defff804 	addi	sp,sp,-32
 1002e34:	dcc00315 	stw	r19,12(sp)
 1002e38:	24c0b804 	addi	r19,r4,736
 1002e3c:	dd400515 	stw	r21,20(sp)
 1002e40:	dfc00715 	stw	ra,28(sp)
 1002e44:	dd800615 	stw	r22,24(sp)
 1002e48:	dd000415 	stw	r20,16(sp)
 1002e4c:	dc800215 	stw	r18,8(sp)
 1002e50:	dc400115 	stw	r17,4(sp)
 1002e54:	dc000015 	stw	r16,0(sp)
 1002e58:	282b883a 	mov	r21,r5
 1002e5c:	100268c0 	call	100268c <__sfp_lock_acquire>
 1002e60:	98001f26 	beq	r19,zero,1002ee0 <_fwalk+0xb0>
 1002e64:	002d883a 	mov	r22,zero
 1002e68:	9c800117 	ldw	r18,4(r19)
 1002e6c:	9c000217 	ldw	r16,8(r19)
 1002e70:	90bfffc4 	addi	r2,r18,-1
 1002e74:	10000c16 	blt	r2,zero,1002ea8 <_fwalk+0x78>
 1002e78:	0023883a 	mov	r17,zero
 1002e7c:	053fffc4 	movi	r20,-1
 1002e80:	8080030f 	ldh	r2,12(r16)
 1002e84:	8c400044 	addi	r17,r17,1
 1002e88:	10000526 	beq	r2,zero,1002ea0 <_fwalk+0x70>
 1002e8c:	8080038f 	ldh	r2,14(r16)
 1002e90:	8009883a 	mov	r4,r16
 1002e94:	15000226 	beq	r2,r20,1002ea0 <_fwalk+0x70>
 1002e98:	a83ee83a 	callr	r21
 1002e9c:	b0acb03a 	or	r22,r22,r2
 1002ea0:	84001704 	addi	r16,r16,92
 1002ea4:	947ff61e 	bne	r18,r17,1002e80 <_fwalk+0x50>
 1002ea8:	9cc00017 	ldw	r19,0(r19)
 1002eac:	983fee1e 	bne	r19,zero,1002e68 <_fwalk+0x38>
 1002eb0:	10026900 	call	1002690 <__sfp_lock_release>
 1002eb4:	b005883a 	mov	r2,r22
 1002eb8:	dfc00717 	ldw	ra,28(sp)
 1002ebc:	dd800617 	ldw	r22,24(sp)
 1002ec0:	dd400517 	ldw	r21,20(sp)
 1002ec4:	dd000417 	ldw	r20,16(sp)
 1002ec8:	dcc00317 	ldw	r19,12(sp)
 1002ecc:	dc800217 	ldw	r18,8(sp)
 1002ed0:	dc400117 	ldw	r17,4(sp)
 1002ed4:	dc000017 	ldw	r16,0(sp)
 1002ed8:	dec00804 	addi	sp,sp,32
 1002edc:	f800283a 	ret
 1002ee0:	002d883a 	mov	r22,zero
 1002ee4:	003ff206 	br	1002eb0 <_fwalk+0x80>

01002ee8 <__smakebuf_r>:
 1002ee8:	2880030b 	ldhu	r2,12(r5)
 1002eec:	deffed04 	addi	sp,sp,-76
 1002ef0:	dc401015 	stw	r17,64(sp)
 1002ef4:	1080008c 	andi	r2,r2,2
 1002ef8:	dc000f15 	stw	r16,60(sp)
 1002efc:	dfc01215 	stw	ra,72(sp)
 1002f00:	dc801115 	stw	r18,68(sp)
 1002f04:	2821883a 	mov	r16,r5
 1002f08:	2023883a 	mov	r17,r4
 1002f0c:	10000b26 	beq	r2,zero,1002f3c <__smakebuf_r+0x54>
 1002f10:	28c010c4 	addi	r3,r5,67
 1002f14:	00800044 	movi	r2,1
 1002f18:	28800515 	stw	r2,20(r5)
 1002f1c:	28c00415 	stw	r3,16(r5)
 1002f20:	28c00015 	stw	r3,0(r5)
 1002f24:	dfc01217 	ldw	ra,72(sp)
 1002f28:	dc801117 	ldw	r18,68(sp)
 1002f2c:	dc401017 	ldw	r17,64(sp)
 1002f30:	dc000f17 	ldw	r16,60(sp)
 1002f34:	dec01304 	addi	sp,sp,76
 1002f38:	f800283a 	ret
 1002f3c:	2940038f 	ldh	r5,14(r5)
 1002f40:	28002116 	blt	r5,zero,1002fc8 <__smakebuf_r+0xe0>
 1002f44:	d80d883a 	mov	r6,sp
 1002f48:	100346c0 	call	100346c <_fstat_r>
 1002f4c:	10001e16 	blt	r2,zero,1002fc8 <__smakebuf_r+0xe0>
 1002f50:	d8800117 	ldw	r2,4(sp)
 1002f54:	00e00014 	movui	r3,32768
 1002f58:	113c000c 	andi	r4,r2,61440
 1002f5c:	20c03126 	beq	r4,r3,1003024 <__smakebuf_r+0x13c>
 1002f60:	8080030b 	ldhu	r2,12(r16)
 1002f64:	00c80004 	movi	r3,8192
 1002f68:	10820014 	ori	r2,r2,2048
 1002f6c:	8080030d 	sth	r2,12(r16)
 1002f70:	20c01e26 	beq	r4,r3,1002fec <__smakebuf_r+0x104>
 1002f74:	04810004 	movi	r18,1024
 1002f78:	8809883a 	mov	r4,r17
 1002f7c:	900b883a 	mov	r5,r18
 1002f80:	10012c00 	call	10012c0 <_malloc_r>
 1002f84:	1009883a 	mov	r4,r2
 1002f88:	10003126 	beq	r2,zero,1003050 <__smakebuf_r+0x168>
 1002f8c:	80c0030b 	ldhu	r3,12(r16)
 1002f90:	00804034 	movhi	r2,256
 1002f94:	1089e004 	addi	r2,r2,10112
 1002f98:	88800f15 	stw	r2,60(r17)
 1002f9c:	18c02014 	ori	r3,r3,128
 1002fa0:	84800515 	stw	r18,20(r16)
 1002fa4:	80c0030d 	sth	r3,12(r16)
 1002fa8:	81000415 	stw	r4,16(r16)
 1002fac:	81000015 	stw	r4,0(r16)
 1002fb0:	dfc01217 	ldw	ra,72(sp)
 1002fb4:	dc801117 	ldw	r18,68(sp)
 1002fb8:	dc401017 	ldw	r17,64(sp)
 1002fbc:	dc000f17 	ldw	r16,60(sp)
 1002fc0:	dec01304 	addi	sp,sp,76
 1002fc4:	f800283a 	ret
 1002fc8:	80c0030b 	ldhu	r3,12(r16)
 1002fcc:	1880200c 	andi	r2,r3,128
 1002fd0:	10000426 	beq	r2,zero,1002fe4 <__smakebuf_r+0xfc>
 1002fd4:	04801004 	movi	r18,64
 1002fd8:	18820014 	ori	r2,r3,2048
 1002fdc:	8080030d 	sth	r2,12(r16)
 1002fe0:	003fe506 	br	1002f78 <__smakebuf_r+0x90>
 1002fe4:	04810004 	movi	r18,1024
 1002fe8:	003ffb06 	br	1002fd8 <__smakebuf_r+0xf0>
 1002fec:	8140038f 	ldh	r5,14(r16)
 1002ff0:	8809883a 	mov	r4,r17
 1002ff4:	10034e00 	call	10034e0 <_isatty_r>
 1002ff8:	103fde26 	beq	r2,zero,1002f74 <__smakebuf_r+0x8c>
 1002ffc:	8080030b 	ldhu	r2,12(r16)
 1003000:	80c010c4 	addi	r3,r16,67
 1003004:	04810004 	movi	r18,1024
 1003008:	10800054 	ori	r2,r2,1
 100300c:	8080030d 	sth	r2,12(r16)
 1003010:	00800044 	movi	r2,1
 1003014:	80c00415 	stw	r3,16(r16)
 1003018:	80800515 	stw	r2,20(r16)
 100301c:	80c00015 	stw	r3,0(r16)
 1003020:	003fd506 	br	1002f78 <__smakebuf_r+0x90>
 1003024:	80c00a17 	ldw	r3,40(r16)
 1003028:	00804034 	movhi	r2,256
 100302c:	108c4704 	addi	r2,r2,12572
 1003030:	18bfcb1e 	bne	r3,r2,1002f60 <__smakebuf_r+0x78>
 1003034:	8080030b 	ldhu	r2,12(r16)
 1003038:	00c10004 	movi	r3,1024
 100303c:	1825883a 	mov	r18,r3
 1003040:	10c4b03a 	or	r2,r2,r3
 1003044:	8080030d 	sth	r2,12(r16)
 1003048:	80c01315 	stw	r3,76(r16)
 100304c:	003fca06 	br	1002f78 <__smakebuf_r+0x90>
 1003050:	8100030b 	ldhu	r4,12(r16)
 1003054:	2080800c 	andi	r2,r4,512
 1003058:	103fb21e 	bne	r2,zero,1002f24 <__smakebuf_r+0x3c>
 100305c:	80c010c4 	addi	r3,r16,67
 1003060:	21000094 	ori	r4,r4,2
 1003064:	00800044 	movi	r2,1
 1003068:	80800515 	stw	r2,20(r16)
 100306c:	8100030d 	sth	r4,12(r16)
 1003070:	80c00415 	stw	r3,16(r16)
 1003074:	80c00015 	stw	r3,0(r16)
 1003078:	003faa06 	br	1002f24 <__smakebuf_r+0x3c>

0100307c <memset>:
 100307c:	008000c4 	movi	r2,3
 1003080:	29403fcc 	andi	r5,r5,255
 1003084:	2007883a 	mov	r3,r4
 1003088:	1180022e 	bgeu	r2,r6,1003094 <memset+0x18>
 100308c:	2084703a 	and	r2,r4,r2
 1003090:	10000826 	beq	r2,zero,10030b4 <memset+0x38>
 1003094:	30000526 	beq	r6,zero,10030ac <memset+0x30>
 1003098:	2805883a 	mov	r2,r5
 100309c:	30cd883a 	add	r6,r6,r3
 10030a0:	18800005 	stb	r2,0(r3)
 10030a4:	18c00044 	addi	r3,r3,1
 10030a8:	19bffd1e 	bne	r3,r6,10030a0 <memset+0x24>
 10030ac:	2005883a 	mov	r2,r4
 10030b0:	f800283a 	ret
 10030b4:	2804923a 	slli	r2,r5,8
 10030b8:	020003c4 	movi	r8,15
 10030bc:	200f883a 	mov	r7,r4
 10030c0:	2884b03a 	or	r2,r5,r2
 10030c4:	1006943a 	slli	r3,r2,16
 10030c8:	10c6b03a 	or	r3,r2,r3
 10030cc:	41800a2e 	bgeu	r8,r6,10030f8 <memset+0x7c>
 10030d0:	4005883a 	mov	r2,r8
 10030d4:	31bffc04 	addi	r6,r6,-16
 10030d8:	38c00015 	stw	r3,0(r7)
 10030dc:	38c00115 	stw	r3,4(r7)
 10030e0:	38c00215 	stw	r3,8(r7)
 10030e4:	38c00315 	stw	r3,12(r7)
 10030e8:	39c00404 	addi	r7,r7,16
 10030ec:	11bff936 	bltu	r2,r6,10030d4 <memset+0x58>
 10030f0:	008000c4 	movi	r2,3
 10030f4:	1180052e 	bgeu	r2,r6,100310c <memset+0x90>
 10030f8:	31bfff04 	addi	r6,r6,-4
 10030fc:	008000c4 	movi	r2,3
 1003100:	38c00015 	stw	r3,0(r7)
 1003104:	39c00104 	addi	r7,r7,4
 1003108:	11bffb36 	bltu	r2,r6,10030f8 <memset+0x7c>
 100310c:	3807883a 	mov	r3,r7
 1003110:	003fe006 	br	1003094 <memset+0x18>

01003114 <__sclose>:
 1003114:	2940038f 	ldh	r5,14(r5)
 1003118:	10032d81 	jmpi	10032d8 <_close_r>

0100311c <__sseek>:
 100311c:	defffe04 	addi	sp,sp,-8
 1003120:	dc000015 	stw	r16,0(sp)
 1003124:	2821883a 	mov	r16,r5
 1003128:	2940038f 	ldh	r5,14(r5)
 100312c:	dfc00115 	stw	ra,4(sp)
 1003130:	10035500 	call	1003550 <_lseek_r>
 1003134:	1007883a 	mov	r3,r2
 1003138:	00bfffc4 	movi	r2,-1
 100313c:	18800926 	beq	r3,r2,1003164 <__sseek+0x48>
 1003140:	8080030b 	ldhu	r2,12(r16)
 1003144:	80c01415 	stw	r3,80(r16)
 1003148:	10840014 	ori	r2,r2,4096
 100314c:	8080030d 	sth	r2,12(r16)
 1003150:	1805883a 	mov	r2,r3
 1003154:	dfc00117 	ldw	ra,4(sp)
 1003158:	dc000017 	ldw	r16,0(sp)
 100315c:	dec00204 	addi	sp,sp,8
 1003160:	f800283a 	ret
 1003164:	8080030b 	ldhu	r2,12(r16)
 1003168:	10bbffcc 	andi	r2,r2,61439
 100316c:	8080030d 	sth	r2,12(r16)
 1003170:	1805883a 	mov	r2,r3
 1003174:	dfc00117 	ldw	ra,4(sp)
 1003178:	dc000017 	ldw	r16,0(sp)
 100317c:	dec00204 	addi	sp,sp,8
 1003180:	f800283a 	ret

01003184 <__swrite>:
 1003184:	2880030b 	ldhu	r2,12(r5)
 1003188:	defffb04 	addi	sp,sp,-20
 100318c:	dcc00315 	stw	r19,12(sp)
 1003190:	1080400c 	andi	r2,r2,256
 1003194:	dc800215 	stw	r18,8(sp)
 1003198:	dc400115 	stw	r17,4(sp)
 100319c:	dc000015 	stw	r16,0(sp)
 10031a0:	3027883a 	mov	r19,r6
 10031a4:	3825883a 	mov	r18,r7
 10031a8:	dfc00415 	stw	ra,16(sp)
 10031ac:	2821883a 	mov	r16,r5
 10031b0:	000d883a 	mov	r6,zero
 10031b4:	01c00084 	movi	r7,2
 10031b8:	2023883a 	mov	r17,r4
 10031bc:	10000226 	beq	r2,zero,10031c8 <__swrite+0x44>
 10031c0:	2940038f 	ldh	r5,14(r5)
 10031c4:	10035500 	call	1003550 <_lseek_r>
 10031c8:	8080030b 	ldhu	r2,12(r16)
 10031cc:	8140038f 	ldh	r5,14(r16)
 10031d0:	8809883a 	mov	r4,r17
 10031d4:	10bbffcc 	andi	r2,r2,61439
 10031d8:	980d883a 	mov	r6,r19
 10031dc:	900f883a 	mov	r7,r18
 10031e0:	8080030d 	sth	r2,12(r16)
 10031e4:	dfc00417 	ldw	ra,16(sp)
 10031e8:	dcc00317 	ldw	r19,12(sp)
 10031ec:	dc800217 	ldw	r18,8(sp)
 10031f0:	dc400117 	ldw	r17,4(sp)
 10031f4:	dc000017 	ldw	r16,0(sp)
 10031f8:	dec00504 	addi	sp,sp,20
 10031fc:	10032601 	jmpi	1003260 <_write_r>

01003200 <__sread>:
 1003200:	defffe04 	addi	sp,sp,-8
 1003204:	dc000015 	stw	r16,0(sp)
 1003208:	2821883a 	mov	r16,r5
 100320c:	2940038f 	ldh	r5,14(r5)
 1003210:	dfc00115 	stw	ra,4(sp)
 1003214:	10035c80 	call	10035c8 <_read_r>
 1003218:	1007883a 	mov	r3,r2
 100321c:	10000816 	blt	r2,zero,1003240 <__sread+0x40>
 1003220:	80801417 	ldw	r2,80(r16)
 1003224:	10c5883a 	add	r2,r2,r3
 1003228:	80801415 	stw	r2,80(r16)
 100322c:	1805883a 	mov	r2,r3
 1003230:	dfc00117 	ldw	ra,4(sp)
 1003234:	dc000017 	ldw	r16,0(sp)
 1003238:	dec00204 	addi	sp,sp,8
 100323c:	f800283a 	ret
 1003240:	8080030b 	ldhu	r2,12(r16)
 1003244:	10bbffcc 	andi	r2,r2,61439
 1003248:	8080030d 	sth	r2,12(r16)
 100324c:	1805883a 	mov	r2,r3
 1003250:	dfc00117 	ldw	ra,4(sp)
 1003254:	dc000017 	ldw	r16,0(sp)
 1003258:	dec00204 	addi	sp,sp,8
 100325c:	f800283a 	ret

01003260 <_write_r>:
 1003260:	defffd04 	addi	sp,sp,-12
 1003264:	dc000015 	stw	r16,0(sp)
 1003268:	04004074 	movhi	r16,257
 100326c:	8428d004 	addi	r16,r16,-23744
 1003270:	dc400115 	stw	r17,4(sp)
 1003274:	80000015 	stw	zero,0(r16)
 1003278:	2023883a 	mov	r17,r4
 100327c:	2809883a 	mov	r4,r5
 1003280:	300b883a 	mov	r5,r6
 1003284:	380d883a 	mov	r6,r7
 1003288:	dfc00215 	stw	ra,8(sp)
 100328c:	1003c640 	call	1003c64 <write>
 1003290:	1007883a 	mov	r3,r2
 1003294:	00bfffc4 	movi	r2,-1
 1003298:	18800626 	beq	r3,r2,10032b4 <_write_r+0x54>
 100329c:	1805883a 	mov	r2,r3
 10032a0:	dfc00217 	ldw	ra,8(sp)
 10032a4:	dc400117 	ldw	r17,4(sp)
 10032a8:	dc000017 	ldw	r16,0(sp)
 10032ac:	dec00304 	addi	sp,sp,12
 10032b0:	f800283a 	ret
 10032b4:	80800017 	ldw	r2,0(r16)
 10032b8:	103ff826 	beq	r2,zero,100329c <_write_r+0x3c>
 10032bc:	88800015 	stw	r2,0(r17)
 10032c0:	1805883a 	mov	r2,r3
 10032c4:	dfc00217 	ldw	ra,8(sp)
 10032c8:	dc400117 	ldw	r17,4(sp)
 10032cc:	dc000017 	ldw	r16,0(sp)
 10032d0:	dec00304 	addi	sp,sp,12
 10032d4:	f800283a 	ret

010032d8 <_close_r>:
 10032d8:	defffd04 	addi	sp,sp,-12
 10032dc:	dc000015 	stw	r16,0(sp)
 10032e0:	04004074 	movhi	r16,257
 10032e4:	8428d004 	addi	r16,r16,-23744
 10032e8:	dc400115 	stw	r17,4(sp)
 10032ec:	80000015 	stw	zero,0(r16)
 10032f0:	2023883a 	mov	r17,r4
 10032f4:	2809883a 	mov	r4,r5
 10032f8:	dfc00215 	stw	ra,8(sp)
 10032fc:	10036400 	call	1003640 <close>
 1003300:	1007883a 	mov	r3,r2
 1003304:	00bfffc4 	movi	r2,-1
 1003308:	18800626 	beq	r3,r2,1003324 <_close_r+0x4c>
 100330c:	1805883a 	mov	r2,r3
 1003310:	dfc00217 	ldw	ra,8(sp)
 1003314:	dc400117 	ldw	r17,4(sp)
 1003318:	dc000017 	ldw	r16,0(sp)
 100331c:	dec00304 	addi	sp,sp,12
 1003320:	f800283a 	ret
 1003324:	80800017 	ldw	r2,0(r16)
 1003328:	103ff826 	beq	r2,zero,100330c <_close_r+0x34>
 100332c:	88800015 	stw	r2,0(r17)
 1003330:	1805883a 	mov	r2,r3
 1003334:	dfc00217 	ldw	ra,8(sp)
 1003338:	dc400117 	ldw	r17,4(sp)
 100333c:	dc000017 	ldw	r16,0(sp)
 1003340:	dec00304 	addi	sp,sp,12
 1003344:	f800283a 	ret

01003348 <_fclose_r>:
 1003348:	defffc04 	addi	sp,sp,-16
 100334c:	dc400115 	stw	r17,4(sp)
 1003350:	dc000015 	stw	r16,0(sp)
 1003354:	dfc00315 	stw	ra,12(sp)
 1003358:	dc800215 	stw	r18,8(sp)
 100335c:	2821883a 	mov	r16,r5
 1003360:	2023883a 	mov	r17,r4
 1003364:	28002926 	beq	r5,zero,100340c <_fclose_r+0xc4>
 1003368:	100268c0 	call	100268c <__sfp_lock_acquire>
 100336c:	88000226 	beq	r17,zero,1003378 <_fclose_r+0x30>
 1003370:	88800e17 	ldw	r2,56(r17)
 1003374:	10002d26 	beq	r2,zero,100342c <_fclose_r+0xe4>
 1003378:	8080030f 	ldh	r2,12(r16)
 100337c:	10002226 	beq	r2,zero,1003408 <_fclose_r+0xc0>
 1003380:	8809883a 	mov	r4,r17
 1003384:	800b883a 	mov	r5,r16
 1003388:	10024040 	call	1002404 <_fflush_r>
 100338c:	1025883a 	mov	r18,r2
 1003390:	80800b17 	ldw	r2,44(r16)
 1003394:	10000426 	beq	r2,zero,10033a8 <_fclose_r+0x60>
 1003398:	81400717 	ldw	r5,28(r16)
 100339c:	8809883a 	mov	r4,r17
 10033a0:	103ee83a 	callr	r2
 10033a4:	10002a16 	blt	r2,zero,1003450 <_fclose_r+0x108>
 10033a8:	8080030b 	ldhu	r2,12(r16)
 10033ac:	1080200c 	andi	r2,r2,128
 10033b0:	1000231e 	bne	r2,zero,1003440 <_fclose_r+0xf8>
 10033b4:	81400c17 	ldw	r5,48(r16)
 10033b8:	28000526 	beq	r5,zero,10033d0 <_fclose_r+0x88>
 10033bc:	80801004 	addi	r2,r16,64
 10033c0:	28800226 	beq	r5,r2,10033cc <_fclose_r+0x84>
 10033c4:	8809883a 	mov	r4,r17
 10033c8:	1002a540 	call	1002a54 <_free_r>
 10033cc:	80000c15 	stw	zero,48(r16)
 10033d0:	81401117 	ldw	r5,68(r16)
 10033d4:	28000326 	beq	r5,zero,10033e4 <_fclose_r+0x9c>
 10033d8:	8809883a 	mov	r4,r17
 10033dc:	1002a540 	call	1002a54 <_free_r>
 10033e0:	80001115 	stw	zero,68(r16)
 10033e4:	8000030d 	sth	zero,12(r16)
 10033e8:	10026900 	call	1002690 <__sfp_lock_release>
 10033ec:	9005883a 	mov	r2,r18
 10033f0:	dfc00317 	ldw	ra,12(sp)
 10033f4:	dc800217 	ldw	r18,8(sp)
 10033f8:	dc400117 	ldw	r17,4(sp)
 10033fc:	dc000017 	ldw	r16,0(sp)
 1003400:	dec00404 	addi	sp,sp,16
 1003404:	f800283a 	ret
 1003408:	10026900 	call	1002690 <__sfp_lock_release>
 100340c:	0025883a 	mov	r18,zero
 1003410:	9005883a 	mov	r2,r18
 1003414:	dfc00317 	ldw	ra,12(sp)
 1003418:	dc800217 	ldw	r18,8(sp)
 100341c:	dc400117 	ldw	r17,4(sp)
 1003420:	dc000017 	ldw	r16,0(sp)
 1003424:	dec00404 	addi	sp,sp,16
 1003428:	f800283a 	ret
 100342c:	8809883a 	mov	r4,r17
 1003430:	100269c0 	call	100269c <__sinit>
 1003434:	8080030f 	ldh	r2,12(r16)
 1003438:	103fd11e 	bne	r2,zero,1003380 <_fclose_r+0x38>
 100343c:	003ff206 	br	1003408 <_fclose_r+0xc0>
 1003440:	81400417 	ldw	r5,16(r16)
 1003444:	8809883a 	mov	r4,r17
 1003448:	1002a540 	call	1002a54 <_free_r>
 100344c:	003fd906 	br	10033b4 <_fclose_r+0x6c>
 1003450:	04bfffc4 	movi	r18,-1
 1003454:	003fd406 	br	10033a8 <_fclose_r+0x60>

01003458 <fclose>:
 1003458:	00804074 	movhi	r2,257
 100345c:	10a8b604 	addi	r2,r2,-23848
 1003460:	200b883a 	mov	r5,r4
 1003464:	11000017 	ldw	r4,0(r2)
 1003468:	10033481 	jmpi	1003348 <_fclose_r>

0100346c <_fstat_r>:
 100346c:	defffd04 	addi	sp,sp,-12
 1003470:	dc000015 	stw	r16,0(sp)
 1003474:	04004074 	movhi	r16,257
 1003478:	8428d004 	addi	r16,r16,-23744
 100347c:	dc400115 	stw	r17,4(sp)
 1003480:	80000015 	stw	zero,0(r16)
 1003484:	2023883a 	mov	r17,r4
 1003488:	2809883a 	mov	r4,r5
 100348c:	300b883a 	mov	r5,r6
 1003490:	dfc00215 	stw	ra,8(sp)
 1003494:	100373c0 	call	100373c <fstat>
 1003498:	1007883a 	mov	r3,r2
 100349c:	00bfffc4 	movi	r2,-1
 10034a0:	18800626 	beq	r3,r2,10034bc <_fstat_r+0x50>
 10034a4:	1805883a 	mov	r2,r3
 10034a8:	dfc00217 	ldw	ra,8(sp)
 10034ac:	dc400117 	ldw	r17,4(sp)
 10034b0:	dc000017 	ldw	r16,0(sp)
 10034b4:	dec00304 	addi	sp,sp,12
 10034b8:	f800283a 	ret
 10034bc:	80800017 	ldw	r2,0(r16)
 10034c0:	103ff826 	beq	r2,zero,10034a4 <_fstat_r+0x38>
 10034c4:	88800015 	stw	r2,0(r17)
 10034c8:	1805883a 	mov	r2,r3
 10034cc:	dfc00217 	ldw	ra,8(sp)
 10034d0:	dc400117 	ldw	r17,4(sp)
 10034d4:	dc000017 	ldw	r16,0(sp)
 10034d8:	dec00304 	addi	sp,sp,12
 10034dc:	f800283a 	ret

010034e0 <_isatty_r>:
 10034e0:	defffd04 	addi	sp,sp,-12
 10034e4:	dc000015 	stw	r16,0(sp)
 10034e8:	04004074 	movhi	r16,257
 10034ec:	8428d004 	addi	r16,r16,-23744
 10034f0:	dc400115 	stw	r17,4(sp)
 10034f4:	80000015 	stw	zero,0(r16)
 10034f8:	2023883a 	mov	r17,r4
 10034fc:	2809883a 	mov	r4,r5
 1003500:	dfc00215 	stw	ra,8(sp)
 1003504:	10038a80 	call	10038a8 <isatty>
 1003508:	1007883a 	mov	r3,r2
 100350c:	00bfffc4 	movi	r2,-1
 1003510:	18800626 	beq	r3,r2,100352c <_isatty_r+0x4c>
 1003514:	1805883a 	mov	r2,r3
 1003518:	dfc00217 	ldw	ra,8(sp)
 100351c:	dc400117 	ldw	r17,4(sp)
 1003520:	dc000017 	ldw	r16,0(sp)
 1003524:	dec00304 	addi	sp,sp,12
 1003528:	f800283a 	ret
 100352c:	80800017 	ldw	r2,0(r16)
 1003530:	103ff826 	beq	r2,zero,1003514 <_isatty_r+0x34>
 1003534:	88800015 	stw	r2,0(r17)
 1003538:	1805883a 	mov	r2,r3
 100353c:	dfc00217 	ldw	ra,8(sp)
 1003540:	dc400117 	ldw	r17,4(sp)
 1003544:	dc000017 	ldw	r16,0(sp)
 1003548:	dec00304 	addi	sp,sp,12
 100354c:	f800283a 	ret

01003550 <_lseek_r>:
 1003550:	defffd04 	addi	sp,sp,-12
 1003554:	dc000015 	stw	r16,0(sp)
 1003558:	04004074 	movhi	r16,257
 100355c:	8428d004 	addi	r16,r16,-23744
 1003560:	dc400115 	stw	r17,4(sp)
 1003564:	80000015 	stw	zero,0(r16)
 1003568:	2023883a 	mov	r17,r4
 100356c:	2809883a 	mov	r4,r5
 1003570:	300b883a 	mov	r5,r6
 1003574:	380d883a 	mov	r6,r7
 1003578:	dfc00215 	stw	ra,8(sp)
 100357c:	100394c0 	call	100394c <lseek>
 1003580:	1007883a 	mov	r3,r2
 1003584:	00bfffc4 	movi	r2,-1
 1003588:	18800626 	beq	r3,r2,10035a4 <_lseek_r+0x54>
 100358c:	1805883a 	mov	r2,r3
 1003590:	dfc00217 	ldw	ra,8(sp)
 1003594:	dc400117 	ldw	r17,4(sp)
 1003598:	dc000017 	ldw	r16,0(sp)
 100359c:	dec00304 	addi	sp,sp,12
 10035a0:	f800283a 	ret
 10035a4:	80800017 	ldw	r2,0(r16)
 10035a8:	103ff826 	beq	r2,zero,100358c <_lseek_r+0x3c>
 10035ac:	88800015 	stw	r2,0(r17)
 10035b0:	1805883a 	mov	r2,r3
 10035b4:	dfc00217 	ldw	ra,8(sp)
 10035b8:	dc400117 	ldw	r17,4(sp)
 10035bc:	dc000017 	ldw	r16,0(sp)
 10035c0:	dec00304 	addi	sp,sp,12
 10035c4:	f800283a 	ret

010035c8 <_read_r>:
 10035c8:	defffd04 	addi	sp,sp,-12
 10035cc:	dc000015 	stw	r16,0(sp)
 10035d0:	04004074 	movhi	r16,257
 10035d4:	8428d004 	addi	r16,r16,-23744
 10035d8:	dc400115 	stw	r17,4(sp)
 10035dc:	80000015 	stw	zero,0(r16)
 10035e0:	2023883a 	mov	r17,r4
 10035e4:	2809883a 	mov	r4,r5
 10035e8:	300b883a 	mov	r5,r6
 10035ec:	380d883a 	mov	r6,r7
 10035f0:	dfc00215 	stw	ra,8(sp)
 10035f4:	1003a700 	call	1003a70 <read>
 10035f8:	1007883a 	mov	r3,r2
 10035fc:	00bfffc4 	movi	r2,-1
 1003600:	18800626 	beq	r3,r2,100361c <_read_r+0x54>
 1003604:	1805883a 	mov	r2,r3
 1003608:	dfc00217 	ldw	ra,8(sp)
 100360c:	dc400117 	ldw	r17,4(sp)
 1003610:	dc000017 	ldw	r16,0(sp)
 1003614:	dec00304 	addi	sp,sp,12
 1003618:	f800283a 	ret
 100361c:	80800017 	ldw	r2,0(r16)
 1003620:	103ff826 	beq	r2,zero,1003604 <_read_r+0x3c>
 1003624:	88800015 	stw	r2,0(r17)
 1003628:	1805883a 	mov	r2,r3
 100362c:	dfc00217 	ldw	ra,8(sp)
 1003630:	dc400117 	ldw	r17,4(sp)
 1003634:	dc000017 	ldw	r16,0(sp)
 1003638:	dec00304 	addi	sp,sp,12
 100363c:	f800283a 	ret

01003640 <close>:
 *
 * ALT_CLOSE is mapped onto the close() system call in alt_syscall.h
 */
 
int ALT_CLOSE (int fildes)
{
 1003640:	defffd04 	addi	sp,sp,-12
 1003644:	dc000015 	stw	r16,0(sp)
 1003648:	dfc00215 	stw	ra,8(sp)
 100364c:	dc400115 	stw	r17,4(sp)
 1003650:	2021883a 	mov	r16,r4
   * A common error case is that when the file descriptor was created, the call
   * to open() failed resulting in a negative file descriptor. This is trapped
   * below so that we don't try and process an invalid file descriptor.
   */

  fd = (fildes < 0) ? NULL : &alt_fd_list[fildes];
 1003654:	20001516 	blt	r4,zero,10036ac <close+0x6c>
 1003658:	01400304 	movi	r5,12
 100365c:	1000cc40 	call	1000cc4 <__mulsi3>
 1003660:	00c04074 	movhi	r3,257
 1003664:	18e35b04 	addi	r3,r3,-29332
 1003668:	10c9883a 	add	r4,r2,r3

  if (fd)
 100366c:	20000f26 	beq	r4,zero,10036ac <close+0x6c>
    /*
     * If the associated file system/device has a close function, call it so 
     * that any necessary cleanup code can run.
     */

    rval = (fd->dev->close) ? fd->dev->close(fd) : 0;
 1003670:	20800017 	ldw	r2,0(r4)
 1003674:	10800417 	ldw	r2,16(r2)
 1003678:	10001b26 	beq	r2,zero,10036e8 <close+0xa8>
 100367c:	103ee83a 	callr	r2
 1003680:	1023883a 	mov	r17,r2

    /* Free the file descriptor structure and return. */

    alt_release_fd (fildes);
 1003684:	8009883a 	mov	r4,r16
 1003688:	1003bb00 	call	1003bb0 <alt_release_fd>
    if (rval < 0)
 100368c:	88001c16 	blt	r17,zero,1003700 <close+0xc0>

    rval = (fd->dev->close) ? fd->dev->close(fd) : 0;

    /* Free the file descriptor structure and return. */

    alt_release_fd (fildes);
 1003690:	0007883a 	mov	r3,zero
  else
  {
    ALT_ERRNO = EBADFD;
    return -1;
  }
}
 1003694:	1805883a 	mov	r2,r3
 1003698:	dfc00217 	ldw	ra,8(sp)
 100369c:	dc400117 	ldw	r17,4(sp)
 10036a0:	dc000017 	ldw	r16,0(sp)
 10036a4:	dec00304 	addi	sp,sp,12
 10036a8:	f800283a 	ret

extern int errno;

static ALT_INLINE int* alt_get_errno(void)
{
  return ((alt_errno) ? alt_errno() : &errno);
 10036ac:	00804074 	movhi	r2,257
 10036b0:	10a8bf04 	addi	r2,r2,-23812
 10036b4:	10800017 	ldw	r2,0(r2)
 10036b8:	10000e26 	beq	r2,zero,10036f4 <close+0xb4>
 10036bc:	103ee83a 	callr	r2
 10036c0:	1009883a 	mov	r4,r2
    }
    return 0;
  }
  else
  {
    ALT_ERRNO = EBADFD;
 10036c4:	00ffffc4 	movi	r3,-1
 10036c8:	00801444 	movi	r2,81
 10036cc:	20800015 	stw	r2,0(r4)
    return -1;
  }
}
 10036d0:	1805883a 	mov	r2,r3
 10036d4:	dfc00217 	ldw	ra,8(sp)
 10036d8:	dc400117 	ldw	r17,4(sp)
 10036dc:	dc000017 	ldw	r16,0(sp)
 10036e0:	dec00304 	addi	sp,sp,12
 10036e4:	f800283a 	ret

    rval = (fd->dev->close) ? fd->dev->close(fd) : 0;

    /* Free the file descriptor structure and return. */

    alt_release_fd (fildes);
 10036e8:	8009883a 	mov	r4,r16
 10036ec:	1003bb00 	call	1003bb0 <alt_release_fd>
 10036f0:	003fe706 	br	1003690 <close+0x50>
 10036f4:	01004074 	movhi	r4,257
 10036f8:	2128d004 	addi	r4,r4,-23744
 10036fc:	003ff106 	br	10036c4 <close+0x84>
 1003700:	00804074 	movhi	r2,257
 1003704:	10a8bf04 	addi	r2,r2,-23812
 1003708:	10800017 	ldw	r2,0(r2)
 100370c:	10000626 	beq	r2,zero,1003728 <close+0xe8>
 1003710:	103ee83a 	callr	r2
 1003714:	1009883a 	mov	r4,r2
    if (rval < 0)
    {
      ALT_ERRNO = -rval;
 1003718:	0445c83a 	sub	r2,zero,r17
 100371c:	00ffffc4 	movi	r3,-1
 1003720:	20800015 	stw	r2,0(r4)
 1003724:	003fdb06 	br	1003694 <close+0x54>
 1003728:	01004074 	movhi	r4,257
 100372c:	2128d004 	addi	r4,r4,-23744
 1003730:	003ff906 	br	1003718 <close+0xd8>

01003734 <alt_dev_null_write>:
 */

static int alt_dev_null_write (alt_fd* fd, const char* ptr, int len)
{
  return len;
}
 1003734:	3005883a 	mov	r2,r6
 1003738:	f800283a 	ret

0100373c <fstat>:
}

#else /* !ALT_USE_DIRECT_DRIVERS */

int ALT_FSTAT (int file, struct stat *st)
{
 100373c:	defffe04 	addi	sp,sp,-8
 1003740:	dc000015 	stw	r16,0(sp)
 1003744:	dfc00115 	stw	ra,4(sp)
 1003748:	2821883a 	mov	r16,r5
   * A common error case is that when the file descriptor was created, the call
   * to open() failed resulting in a negative file descriptor. This is trapped
   * below so that we don't try and process an invalid file descriptor.
   */

  fd = (file < 0) ? NULL : &alt_fd_list[file];
 100374c:	01400304 	movi	r5,12
 1003750:	20001516 	blt	r4,zero,10037a8 <fstat+0x6c>
 1003754:	1000cc40 	call	1000cc4 <__mulsi3>
 1003758:	00c04074 	movhi	r3,257
 100375c:	18e35b04 	addi	r3,r3,-29332
 1003760:	10c9883a 	add	r4,r2,r3
  
  if (fd)
 1003764:	20001026 	beq	r4,zero,10037a8 <fstat+0x6c>
  {
    /* Call the drivers fstat() function to fill out the "st" structure. */

    if (fd->dev->fstat)
 1003768:	20800017 	ldw	r2,0(r4)
    {
      return fd->dev->fstat(fd, st);
 100376c:	800b883a 	mov	r5,r16
     * device.
     */
 
    else
    {
      st->st_mode = _IFCHR;
 1003770:	0007883a 	mov	r3,zero
  
  if (fd)
  {
    /* Call the drivers fstat() function to fill out the "st" structure. */

    if (fd->dev->fstat)
 1003774:	10800817 	ldw	r2,32(r2)
 1003778:	10000426 	beq	r2,zero,100378c <fstat+0x50>
  else
  {
    ALT_ERRNO = EBADFD;
    return -1;
  }
}
 100377c:	dfc00117 	ldw	ra,4(sp)
 1003780:	dc000017 	ldw	r16,0(sp)
 1003784:	dec00204 	addi	sp,sp,8
  {
    /* Call the drivers fstat() function to fill out the "st" structure. */

    if (fd->dev->fstat)
    {
      return fd->dev->fstat(fd, st);
 1003788:	1000683a 	jmp	r2
     * device.
     */
 
    else
    {
      st->st_mode = _IFCHR;
 100378c:	00880004 	movi	r2,8192
 1003790:	80800115 	stw	r2,4(r16)
  else
  {
    ALT_ERRNO = EBADFD;
    return -1;
  }
}
 1003794:	1805883a 	mov	r2,r3
 1003798:	dfc00117 	ldw	ra,4(sp)
 100379c:	dc000017 	ldw	r16,0(sp)
 10037a0:	dec00204 	addi	sp,sp,8
 10037a4:	f800283a 	ret
 10037a8:	00804074 	movhi	r2,257
 10037ac:	10a8bf04 	addi	r2,r2,-23812
 10037b0:	10800017 	ldw	r2,0(r2)
 10037b4:	00c04074 	movhi	r3,257
 10037b8:	18e8d004 	addi	r3,r3,-23744
 10037bc:	10000226 	beq	r2,zero,10037c8 <fstat+0x8c>
 10037c0:	103ee83a 	callr	r2
 10037c4:	1007883a 	mov	r3,r2
      return 0;
    }
  }
  else
  {
    ALT_ERRNO = EBADFD;
 10037c8:	00801444 	movi	r2,81
 10037cc:	18800015 	stw	r2,0(r3)
 10037d0:	00ffffc4 	movi	r3,-1
    return -1;
  }
}
 10037d4:	1805883a 	mov	r2,r3
 10037d8:	dfc00117 	ldw	ra,4(sp)
 10037dc:	dc000017 	ldw	r16,0(sp)
 10037e0:	dec00204 	addi	sp,sp,8
 10037e4:	f800283a 	ret

010037e8 <alt_irq_register>:
                      alt_isr_func handler)
{
  int rc = -EINVAL;  
  alt_irq_context status;

  if (id < ALT_NIRQ)
 10037e8:	008007c4 	movi	r2,31
 */
 
int alt_irq_register (alt_u32 id, 
                      void* context, 
                      alt_isr_func handler)
{
 10037ec:	200f883a 	mov	r7,r4
  int rc = -EINVAL;  
  alt_irq_context status;

  if (id < ALT_NIRQ)
 10037f0:	00fffa84 	movi	r3,-22
 10037f4:	1100022e 	bgeu	r2,r4,1003800 <alt_irq_register+0x18>
    rc = (handler) ? alt_irq_enable (id): alt_irq_disable (id);

    alt_irq_enable_all(status);
  }
  return rc; 
}
 10037f8:	1805883a 	mov	r2,r3
 10037fc:	f800283a 	ret
static ALT_INLINE alt_irq_context ALT_ALWAYS_INLINE 
       alt_irq_disable_all (void)
{
  alt_irq_context context;

  NIOS2_READ_STATUS (context);
 1003800:	0011303a 	rdctl	r8,status

  NIOS2_WRITE_STATUS (context & ~NIOS2_STATUS_PIE_MSK);
 1003804:	013fff84 	movi	r4,-2
 1003808:	4104703a 	and	r2,r8,r4
 100380c:	1001703a 	wrctl	status,r2
     * state.
     */

    status = alt_irq_disable_all ();

    alt_irq[id].handler = handler;
 1003810:	380690fa 	slli	r3,r7,3
 1003814:	00804074 	movhi	r2,257
 1003818:	10a96104 	addi	r2,r2,-23164
 100381c:	1887883a 	add	r3,r3,r2
    alt_irq[id].context = context;
 1003820:	19400115 	stw	r5,4(r3)
     * state.
     */

    status = alt_irq_disable_all ();

    alt_irq[id].handler = handler;
 1003824:	19800015 	stw	r6,0(r3)
    alt_irq[id].context = context;

    rc = (handler) ? alt_irq_enable (id): alt_irq_disable (id);
 1003828:	30001126 	beq	r6,zero,1003870 <alt_irq_register+0x88>
static ALT_INLINE alt_irq_context ALT_ALWAYS_INLINE 
       alt_irq_disable_all (void)
{
  alt_irq_context context;

  NIOS2_READ_STATUS (context);
 100382c:	000b303a 	rdctl	r5,status

  NIOS2_WRITE_STATUS (context & ~NIOS2_STATUS_PIE_MSK);
 1003830:	2904703a 	and	r2,r5,r4
 1003834:	1001703a 	wrctl	status,r2
  alt_irq_context  status;
  extern volatile alt_u32 alt_irq_active;

  status = alt_irq_disable_all ();

  alt_irq_active |= (1 << id);
 1003838:	01004074 	movhi	r4,257
 100383c:	2128d104 	addi	r4,r4,-23740
 1003840:	00800044 	movi	r2,1
 1003844:	20c00017 	ldw	r3,0(r4)
 1003848:	11c4983a 	sll	r2,r2,r7
 100384c:	10c4b03a 	or	r2,r2,r3
 1003850:	20800015 	stw	r2,0(r4)
  NIOS2_WRITE_IENABLE (alt_irq_active);
 1003854:	20c00017 	ldw	r3,0(r4)
 1003858:	180170fa 	wrctl	ienable,r3
  status &= ~NIOS2_STATUS_PIE_MSK;
  status |= (context & NIOS2_STATUS_PIE_MSK);
  
  NIOS2_WRITE_STATUS (status);
#else
  NIOS2_WRITE_STATUS (context);
 100385c:	2801703a 	wrctl	status,r5
 1003860:	4001703a 	wrctl	status,r8
 1003864:	0007883a 	mov	r3,zero

    alt_irq_enable_all(status);
  }
  return rc; 
}
 1003868:	1805883a 	mov	r2,r3
 100386c:	f800283a 	ret
static ALT_INLINE alt_irq_context ALT_ALWAYS_INLINE 
       alt_irq_disable_all (void)
{
  alt_irq_context context;

  NIOS2_READ_STATUS (context);
 1003870:	000b303a 	rdctl	r5,status

  NIOS2_WRITE_STATUS (context & ~NIOS2_STATUS_PIE_MSK);
 1003874:	2904703a 	and	r2,r5,r4
 1003878:	1001703a 	wrctl	status,r2
  alt_irq_context  status;
  extern volatile alt_u32 alt_irq_active;

  status = alt_irq_disable_all ();

  alt_irq_active &= ~(1 << id);
 100387c:	01004074 	movhi	r4,257
 1003880:	2128d104 	addi	r4,r4,-23740
 1003884:	00bfff84 	movi	r2,-2
 1003888:	20c00017 	ldw	r3,0(r4)
 100388c:	11c4183a 	rol	r2,r2,r7
 1003890:	10c4703a 	and	r2,r2,r3
 1003894:	20800015 	stw	r2,0(r4)
  NIOS2_WRITE_IENABLE (alt_irq_active);
 1003898:	20c00017 	ldw	r3,0(r4)
 100389c:	180170fa 	wrctl	ienable,r3
  status &= ~NIOS2_STATUS_PIE_MSK;
  status |= (context & NIOS2_STATUS_PIE_MSK);
  
  NIOS2_WRITE_STATUS (status);
#else
  NIOS2_WRITE_STATUS (context);
 10038a0:	2801703a 	wrctl	status,r5
 10038a4:	003fee06 	br	1003860 <alt_irq_register+0x78>

010038a8 <isatty>:
 *
 * ALT_ISATTY is mapped onto the isatty() system call in alt_syscall.h
 */
 
int ALT_ISATTY (int file)
{
 10038a8:	deffef04 	addi	sp,sp,-68
 10038ac:	dc000f15 	stw	r16,60(sp)
 10038b0:	dfc01015 	stw	ra,64(sp)
   * A common error case is that when the file descriptor was created, the call
   * to open() failed resulting in a negative file descriptor. This is trapped
   * below so that we don't try and process an invalid file descriptor.
   */

  fd = (file < 0) ? NULL : &alt_fd_list[file];
 10038b4:	01400304 	movi	r5,12
 *
 * ALT_ISATTY is mapped onto the isatty() system call in alt_syscall.h
 */
 
int ALT_ISATTY (int file)
{
 10038b8:	2021883a 	mov	r16,r4
   * A common error case is that when the file descriptor was created, the call
   * to open() failed resulting in a negative file descriptor. This is trapped
   * below so that we don't try and process an invalid file descriptor.
   */

  fd = (file < 0) ? NULL : &alt_fd_list[file];
 10038bc:	20001316 	blt	r4,zero,100390c <isatty+0x64>
 10038c0:	1000cc40 	call	1000cc4 <__mulsi3>
 10038c4:	00c04074 	movhi	r3,257
 10038c8:	18e35b04 	addi	r3,r3,-29332
 10038cc:	10c5883a 	add	r2,r2,r3
  
  if (fd)
 10038d0:	10000e26 	beq	r2,zero,100390c <isatty+0x64>
    /*
     * If a device driver does not provide an fstat() function, then it is 
     * treated as a terminal device by default.
     */

    if (!fd->dev->fstat)
 10038d4:	10c00017 	ldw	r3,0(r2)
     * this is called so that the device can identify itself.
     */ 

    else
    {
      fstat (file, &stat);
 10038d8:	8009883a 	mov	r4,r16
 10038dc:	d80b883a 	mov	r5,sp
    /*
     * If a device driver does not provide an fstat() function, then it is 
     * treated as a terminal device by default.
     */

    if (!fd->dev->fstat)
 10038e0:	18800817 	ldw	r2,32(r3)
 10038e4:	00c00044 	movi	r3,1
 10038e8:	10000326 	beq	r2,zero,10038f8 <isatty+0x50>
     * this is called so that the device can identify itself.
     */ 

    else
    {
      fstat (file, &stat);
 10038ec:	100373c0 	call	100373c <fstat>
      return (stat.st_mode == _IFCHR) ? 1 : 0;
 10038f0:	d8c00117 	ldw	r3,4(sp)
 10038f4:	18c80020 	cmpeqi	r3,r3,8192
  else
  {
    ALT_ERRNO = EBADFD;
    return 0;
  }
}
 10038f8:	1805883a 	mov	r2,r3
 10038fc:	dfc01017 	ldw	ra,64(sp)
 1003900:	dc000f17 	ldw	r16,60(sp)
 1003904:	dec01104 	addi	sp,sp,68
 1003908:	f800283a 	ret
 100390c:	00804074 	movhi	r2,257
 1003910:	10a8bf04 	addi	r2,r2,-23812
 1003914:	10800017 	ldw	r2,0(r2)
 1003918:	00c04074 	movhi	r3,257
 100391c:	18e8d004 	addi	r3,r3,-23744
 1003920:	10000226 	beq	r2,zero,100392c <isatty+0x84>
 1003924:	103ee83a 	callr	r2
 1003928:	1007883a 	mov	r3,r2
      return (stat.st_mode == _IFCHR) ? 1 : 0;
    }
  }
  else
  {
    ALT_ERRNO = EBADFD;
 100392c:	00801444 	movi	r2,81
 1003930:	18800015 	stw	r2,0(r3)
 1003934:	0007883a 	mov	r3,zero
    return 0;
  }
}
 1003938:	1805883a 	mov	r2,r3
 100393c:	dfc01017 	ldw	ra,64(sp)
 1003940:	dc000f17 	ldw	r16,60(sp)
 1003944:	dec01104 	addi	sp,sp,68
 1003948:	f800283a 	ret

0100394c <lseek>:
 * ALT_LSEEK is mapped onto the lseek() system call in alt_syscall.h
 *
 */

off_t ALT_LSEEK (int file, off_t ptr, int dir)
{
 100394c:	defffd04 	addi	sp,sp,-12
 1003950:	dc400115 	stw	r17,4(sp)
 1003954:	dc000015 	stw	r16,0(sp)
 1003958:	dfc00215 	stw	ra,8(sp)
 100395c:	2821883a 	mov	r16,r5
 1003960:	3023883a 	mov	r17,r6
   * A common error case is that when the file descriptor was created, the call
   * to open() failed resulting in a negative file descriptor. This is trapped
   * below so that we don't try and process an invalid file descriptor.
   */

  fd = (file < 0) ? NULL : &alt_fd_list[file];
 1003964:	20002416 	blt	r4,zero,10039f8 <lseek+0xac>
 1003968:	01400304 	movi	r5,12
 100396c:	1000cc40 	call	1000cc4 <__mulsi3>
 1003970:	00c04074 	movhi	r3,257
 1003974:	18e35b04 	addi	r3,r3,-29332
 1003978:	10c9883a 	add	r4,r2,r3
  
  if (fd) 
 100397c:	20002026 	beq	r4,zero,1003a00 <lseek+0xb4>
    /*
     * If the device driver provides an implementation of the lseek() function,
     * then call that to process the request.
     */
 
    if (fd->dev->lseek)
 1003980:	20800017 	ldw	r2,0(r4)
 1003984:	10800717 	ldw	r2,28(r2)
 1003988:	10000926 	beq	r2,zero,10039b0 <lseek+0x64>
    {
      rc = fd->dev->lseek(fd, ptr, dir);
 100398c:	800b883a 	mov	r5,r16
 1003990:	880d883a 	mov	r6,r17
 1003994:	103ee83a 	callr	r2
  else  
  {
    rc = -EBADFD;
  }

  if (rc < 0)
 1003998:	10000616 	blt	r2,zero,10039b4 <lseek+0x68>
    ALT_ERRNO = -rc;
    rc = -1;
  }

  return rc;
}
 100399c:	dfc00217 	ldw	ra,8(sp)
 10039a0:	dc400117 	ldw	r17,4(sp)
 10039a4:	dc000017 	ldw	r16,0(sp)
 10039a8:	dec00304 	addi	sp,sp,12
 10039ac:	f800283a 	ret
    /*
     * If the device driver provides an implementation of the lseek() function,
     * then call that to process the request.
     */
 
    if (fd->dev->lseek)
 10039b0:	00bfde84 	movi	r2,-134
  else  
  {
    rc = -EBADFD;
  }

  if (rc < 0)
 10039b4:	00a1c83a 	sub	r16,zero,r2
 10039b8:	00804074 	movhi	r2,257
 10039bc:	10a8bf04 	addi	r2,r2,-23812
 10039c0:	10800017 	ldw	r2,0(r2)
 10039c4:	10000926 	beq	r2,zero,10039ec <lseek+0xa0>
 10039c8:	103ee83a 	callr	r2
 10039cc:	1007883a 	mov	r3,r2
  {
    ALT_ERRNO = -rc;
 10039d0:	00bfffc4 	movi	r2,-1
 10039d4:	1c000015 	stw	r16,0(r3)
    rc = -1;
  }

  return rc;
}
 10039d8:	dfc00217 	ldw	ra,8(sp)
 10039dc:	dc400117 	ldw	r17,4(sp)
 10039e0:	dc000017 	ldw	r16,0(sp)
 10039e4:	dec00304 	addi	sp,sp,12
 10039e8:	f800283a 	ret
 10039ec:	00c04074 	movhi	r3,257
 10039f0:	18e8d004 	addi	r3,r3,-23744
 10039f4:	003ff606 	br	10039d0 <lseek+0x84>
   * A common error case is that when the file descriptor was created, the call
   * to open() failed resulting in a negative file descriptor. This is trapped
   * below so that we don't try and process an invalid file descriptor.
   */

  fd = (file < 0) ? NULL : &alt_fd_list[file];
 10039f8:	04001444 	movi	r16,81
 10039fc:	003fee06 	br	10039b8 <lseek+0x6c>
    rc = -EBADFD;
  }

  if (rc < 0)
  {
    ALT_ERRNO = -rc;
 1003a00:	00bfebc4 	movi	r2,-81
 1003a04:	003feb06 	br	10039b4 <lseek+0x68>

01003a08 <alt_main>:
 * devices/filesystems/components in the system; and call the entry point for
 * the users application, i.e. main().
 */

void alt_main (void)
{
 1003a08:	defffe04 	addi	sp,sp,-8
#endif

  /* ALT LOG - please see HAL/sys/alt_log_printf.h for details */
  ALT_LOG_PRINT_BOOT("[alt_main.c] Entering alt_main, calling alt_irq_init.\r\n");
  /* Initialize the interrupt controller. */
  alt_irq_init (NULL);
 1003a0c:	0009883a 	mov	r4,zero
 * devices/filesystems/components in the system; and call the entry point for
 * the users application, i.e. main().
 */

void alt_main (void)
{
 1003a10:	dfc00115 	stw	ra,4(sp)
 1003a14:	dc400015 	stw	r17,0(sp)
#endif

  /* ALT LOG - please see HAL/sys/alt_log_printf.h for details */
  ALT_LOG_PRINT_BOOT("[alt_main.c] Entering alt_main, calling alt_irq_init.\r\n");
  /* Initialize the interrupt controller. */
  alt_irq_init (NULL);
 1003a18:	1003da00 	call	1003da0 <alt_irq_init>
  ALT_LOG_PRINT_BOOT("[alt_main.c] Done OS Init, calling alt_sem_create.\r\n");
  ALT_SEM_CREATE (&alt_fd_list_lock, 1);

  /* Initialize the device drivers/software components. */
  ALT_LOG_PRINT_BOOT("[alt_main.c] Calling alt_sys_init.\r\n");
  alt_sys_init();
 1003a1c:	1003dc00 	call	1003dc0 <alt_sys_init>
   * devices be present (not equal to /dev/null) and if direct drivers
   * aren't being used.
   */

    ALT_LOG_PRINT_BOOT("[alt_main.c] Redirecting IO.\r\n");
    alt_io_redirect(ALT_STDOUT, ALT_STDIN, ALT_STDERR);
 1003a20:	01004074 	movhi	r4,257
 1003a24:	21208c04 	addi	r4,r4,-32208
 1003a28:	200b883a 	mov	r5,r4
 1003a2c:	200d883a 	mov	r6,r4
 1003a30:	10070dc0 	call	10070dc <alt_io_redirect>
  /* 
   * Call the C++ constructors 
   */

  ALT_LOG_PRINT_BOOT("[alt_main.c] Calling C++ constructors.\r\n");
  _do_ctors ();
 1003a34:	1006e380 	call	1006e38 <_do_ctors>
   * redefined as _exit()). This is in the interest of reducing code footprint,
   * in that the atexit() overhead is removed when it's not needed.
   */

  ALT_LOG_PRINT_BOOT("[alt_main.c] Calling atexit.\r\n");
  atexit (_do_dtors);
 1003a38:	01004034 	movhi	r4,256
 1003a3c:	211ba104 	addi	r4,r4,28292
 1003a40:	1007cd40 	call	1007cd4 <atexit>
  ALT_LOG_PRINT_BOOT("[alt_main.c] Calling main.\r\n");

#ifdef ALT_NO_EXIT
  main (alt_argc, alt_argv, alt_envp);
#else
  result = main (alt_argc, alt_argv, alt_envp);
 1003a44:	d1201e17 	ldw	r4,-32648(gp)
 1003a48:	d1601f17 	ldw	r5,-32644(gp)
 1003a4c:	d1a02017 	ldw	r6,-32640(gp)
 1003a50:	1000c600 	call	1000c60 <main>
 1003a54:	1023883a 	mov	r17,r2
  close(STDOUT_FILENO);
 1003a58:	01000044 	movi	r4,1
 1003a5c:	10036400 	call	1003640 <close>
  exit (result);
 1003a60:	8809883a 	mov	r4,r17
 1003a64:	1007ce80 	call	1007ce8 <exit>

01003a68 <__malloc_lock>:
 * this requires that malloc is never called by an interrupt service routine.
 */

void __malloc_lock ( struct _reent *_r )
{
}
 1003a68:	f800283a 	ret

01003a6c <__malloc_unlock>:
 *
 */

void __malloc_unlock ( struct _reent *_r )
{
}
 1003a6c:	f800283a 	ret

01003a70 <read>:
}

#else /* !ALT_USE_DIRECT_DRIVERS */

int ALT_READ (int file, void *ptr, size_t len)
{
 1003a70:	defffd04 	addi	sp,sp,-12
 1003a74:	dc400115 	stw	r17,4(sp)
 1003a78:	dc000015 	stw	r16,0(sp)
 1003a7c:	dfc00215 	stw	ra,8(sp)
 1003a80:	2821883a 	mov	r16,r5
 1003a84:	3023883a 	mov	r17,r6
   * A common error case is that when the file descriptor was created, the call
   * to open() failed resulting in a negative file descriptor. This is trapped
   * below so that we don't try and process an invalid file descriptor.
   */

  fd = (file < 0) ? NULL : &alt_fd_list[file];
 1003a88:	20002a16 	blt	r4,zero,1003b34 <read+0xc4>
 1003a8c:	01400304 	movi	r5,12
 1003a90:	1000cc40 	call	1000cc4 <__mulsi3>
 1003a94:	00c04074 	movhi	r3,257
 1003a98:	18e35b04 	addi	r3,r3,-29332
 1003a9c:	10c9883a 	add	r4,r2,r3
  
  if (fd)
 1003aa0:	20002426 	beq	r4,zero,1003b34 <read+0xc4>
     * If the file has not been opened with read access, or if the driver does
     * not provide an implementation of read(), generate an error. Otherwise
     * call the drivers read() function to process the request.
     */

    if (((fd->fd_flags & O_ACCMODE) != O_WRONLY) && 
 1003aa4:	20800217 	ldw	r2,8(r4)
 1003aa8:	00c00044 	movi	r3,1
 1003aac:	108000cc 	andi	r2,r2,3
 1003ab0:	10c00e26 	beq	r2,r3,1003aec <read+0x7c>
 1003ab4:	20800017 	ldw	r2,0(r4)
 1003ab8:	10800517 	ldw	r2,20(r2)
 1003abc:	10000b26 	beq	r2,zero,1003aec <read+0x7c>
        (fd->dev->read))
      {
        if ((rval = fd->dev->read(fd, ptr, len)) < 0)
 1003ac0:	800b883a 	mov	r5,r16
 1003ac4:	880d883a 	mov	r6,r17
 1003ac8:	103ee83a 	callr	r2
 1003acc:	1021883a 	mov	r16,r2
 1003ad0:	10002a16 	blt	r2,zero,1003b7c <read+0x10c>
  else
  {
    ALT_ERRNO = EBADFD;
  }
  return -1;
}
 1003ad4:	8005883a 	mov	r2,r16
 1003ad8:	dfc00217 	ldw	ra,8(sp)
 1003adc:	dc400117 	ldw	r17,4(sp)
 1003ae0:	dc000017 	ldw	r16,0(sp)
 1003ae4:	dec00304 	addi	sp,sp,12
 1003ae8:	f800283a 	ret
 1003aec:	00804074 	movhi	r2,257
 1003af0:	10a8bf04 	addi	r2,r2,-23812
 1003af4:	10800017 	ldw	r2,0(r2)
 1003af8:	10000b26 	beq	r2,zero,1003b28 <read+0xb8>
 1003afc:	103ee83a 	callr	r2
 1003b00:	1007883a 	mov	r3,r2
        }
        return rval;
      }
      else
      {
        ALT_ERRNO = EACCES;
 1003b04:	043fffc4 	movi	r16,-1
 1003b08:	00800344 	movi	r2,13
 1003b0c:	18800015 	stw	r2,0(r3)
  else
  {
    ALT_ERRNO = EBADFD;
  }
  return -1;
}
 1003b10:	8005883a 	mov	r2,r16
 1003b14:	dfc00217 	ldw	ra,8(sp)
 1003b18:	dc400117 	ldw	r17,4(sp)
 1003b1c:	dc000017 	ldw	r16,0(sp)
 1003b20:	dec00304 	addi	sp,sp,12
 1003b24:	f800283a 	ret
 1003b28:	00c04074 	movhi	r3,257
 1003b2c:	18e8d004 	addi	r3,r3,-23744
 1003b30:	003ff406 	br	1003b04 <read+0x94>
 1003b34:	00804074 	movhi	r2,257
 1003b38:	10a8bf04 	addi	r2,r2,-23812
 1003b3c:	10800017 	ldw	r2,0(r2)
 1003b40:	10000b26 	beq	r2,zero,1003b70 <read+0x100>
 1003b44:	103ee83a 	callr	r2
 1003b48:	1007883a 	mov	r3,r2
        ALT_ERRNO = EACCES;
      }
    }
  else
  {
    ALT_ERRNO = EBADFD;
 1003b4c:	00801444 	movi	r2,81
 1003b50:	043fffc4 	movi	r16,-1
 1003b54:	18800015 	stw	r2,0(r3)
  }
  return -1;
}
 1003b58:	8005883a 	mov	r2,r16
 1003b5c:	dfc00217 	ldw	ra,8(sp)
 1003b60:	dc400117 	ldw	r17,4(sp)
 1003b64:	dc000017 	ldw	r16,0(sp)
 1003b68:	dec00304 	addi	sp,sp,12
 1003b6c:	f800283a 	ret
 1003b70:	00c04074 	movhi	r3,257
 1003b74:	18e8d004 	addi	r3,r3,-23744
 1003b78:	003ff406 	br	1003b4c <read+0xdc>
 1003b7c:	00804074 	movhi	r2,257
 1003b80:	10a8bf04 	addi	r2,r2,-23812
 1003b84:	10800017 	ldw	r2,0(r2)
 1003b88:	10000626 	beq	r2,zero,1003ba4 <read+0x134>
 1003b8c:	103ee83a 	callr	r2
 1003b90:	1007883a 	mov	r3,r2
    if (((fd->fd_flags & O_ACCMODE) != O_WRONLY) && 
        (fd->dev->read))
      {
        if ((rval = fd->dev->read(fd, ptr, len)) < 0)
        {
          ALT_ERRNO = -rval;
 1003b94:	0405c83a 	sub	r2,zero,r16
 1003b98:	043fffc4 	movi	r16,-1
 1003b9c:	18800015 	stw	r2,0(r3)
 1003ba0:	003fcc06 	br	1003ad4 <read+0x64>
 1003ba4:	00c04074 	movhi	r3,257
 1003ba8:	18e8d004 	addi	r3,r3,-23744
 1003bac:	003ff906 	br	1003b94 <read+0x124>

01003bb0 <alt_release_fd>:
 * File descriptors correcponding to standard in, standard out and standard 
 * error cannont be released backed to the pool. They are always reserved.
 */

void alt_release_fd (int fd)
{
 1003bb0:	defffd04 	addi	sp,sp,-12
  if (fd > 2)
 1003bb4:	00800084 	movi	r2,2
 * File descriptors correcponding to standard in, standard out and standard 
 * error cannont be released backed to the pool. They are always reserved.
 */

void alt_release_fd (int fd)
{
 1003bb8:	dc400115 	stw	r17,4(sp)
 1003bbc:	dc000015 	stw	r16,0(sp)
 1003bc0:	dfc00215 	stw	ra,8(sp)
  if (fd > 2)
  {
    alt_fd_list[fd].fd_flags = 0;
 1003bc4:	01400304 	movi	r5,12
 1003bc8:	04404074 	movhi	r17,257
 1003bcc:	8c635b04 	addi	r17,r17,-29332
 * File descriptors correcponding to standard in, standard out and standard 
 * error cannont be released backed to the pool. They are always reserved.
 */

void alt_release_fd (int fd)
{
 1003bd0:	2021883a 	mov	r16,r4
  if (fd > 2)
 1003bd4:	1100080e 	bge	r2,r4,1003bf8 <alt_release_fd+0x48>
  {
    alt_fd_list[fd].fd_flags = 0;
 1003bd8:	1000cc40 	call	1000cc4 <__mulsi3>
 1003bdc:	1445883a 	add	r2,r2,r17
    alt_fd_list[fd].dev      = 0;
 1003be0:	8009883a 	mov	r4,r16
 1003be4:	01400304 	movi	r5,12

void alt_release_fd (int fd)
{
  if (fd > 2)
  {
    alt_fd_list[fd].fd_flags = 0;
 1003be8:	10000215 	stw	zero,8(r2)
    alt_fd_list[fd].dev      = 0;
 1003bec:	1000cc40 	call	1000cc4 <__mulsi3>
 1003bf0:	1445883a 	add	r2,r2,r17
 1003bf4:	10000015 	stw	zero,0(r2)
  }
}
 1003bf8:	dfc00217 	ldw	ra,8(sp)
 1003bfc:	dc400117 	ldw	r17,4(sp)
 1003c00:	dc000017 	ldw	r16,0(sp)
 1003c04:	dec00304 	addi	sp,sp,12
 1003c08:	f800283a 	ret

01003c0c <sbrk>:
static ALT_INLINE alt_irq_context ALT_ALWAYS_INLINE 
       alt_irq_disable_all (void)
{
  alt_irq_context context;

  NIOS2_READ_STATUS (context);
 1003c0c:	000b303a 	rdctl	r5,status

  NIOS2_WRITE_STATUS (context & ~NIOS2_STATUS_PIE_MSK);
 1003c10:	00bfff84 	movi	r2,-2
 1003c14:	2884703a 	and	r2,r5,r2
 1003c18:	1001703a 	wrctl	status,r2
  char *prev_heap_end; 

  context = alt_irq_disable_all();

  /* Always return data aligned on a word boundary */
  heap_end = (char *)(((unsigned int)heap_end + 3) & ~3);
 1003c1c:	d0e00d17 	ldw	r3,-32716(gp)
 1003c20:	00bfff04 	movi	r2,-4
 1003c24:	18c000c4 	addi	r3,r3,3
 1003c28:	1886703a 	and	r3,r3,r2
  if (((heap_end + incr) - __alt_heap_start) > ALT_MAX_HEAP_BYTES) {
    alt_irq_enable_all(context);
    return (caddr_t)-1;
  }
#else
  if ((heap_end + incr) > __alt_heap_limit) {
 1003c2c:	1909883a 	add	r4,r3,r4
 1003c30:	00806034 	movhi	r2,384
 1003c34:	10800004 	addi	r2,r2,0
  char *prev_heap_end; 

  context = alt_irq_disable_all();

  /* Always return data aligned on a word boundary */
  heap_end = (char *)(((unsigned int)heap_end + 3) & ~3);
 1003c38:	d0e00d15 	stw	r3,-32716(gp)
  if (((heap_end + incr) - __alt_heap_start) > ALT_MAX_HEAP_BYTES) {
    alt_irq_enable_all(context);
    return (caddr_t)-1;
  }
#else
  if ((heap_end + incr) > __alt_heap_limit) {
 1003c3c:	1100042e 	bgeu	r2,r4,1003c50 <sbrk+0x44>
  status &= ~NIOS2_STATUS_PIE_MSK;
  status |= (context & NIOS2_STATUS_PIE_MSK);
  
  NIOS2_WRITE_STATUS (status);
#else
  NIOS2_WRITE_STATUS (context);
 1003c40:	2801703a 	wrctl	status,r5
 1003c44:	00ffffc4 	movi	r3,-1
#endif

  alt_irq_enable_all(context);

  return (caddr_t) prev_heap_end; 
} 
 1003c48:	1805883a 	mov	r2,r3
 1003c4c:	f800283a 	ret
    return (caddr_t)-1;
  }
#endif

  prev_heap_end = heap_end; 
  heap_end += incr; 
 1003c50:	d1200d15 	stw	r4,-32716(gp)
 1003c54:	2801703a 	wrctl	status,r5
#endif

  alt_irq_enable_all(context);

  return (caddr_t) prev_heap_end; 
} 
 1003c58:	1805883a 	mov	r2,r3
 1003c5c:	f800283a 	ret

01003c60 <usleep>:
int ALT_USLEEP (useconds_t us)
#else
unsigned int ALT_USLEEP (unsigned int us)
#endif
{
  return alt_busy_sleep(us);
 1003c60:	1006d141 	jmpi	1006d14 <alt_busy_sleep>

01003c64 <write>:
}

#else /* !ALT_USE_DIRECT_DRIVERS */

int ALT_WRITE (int file, const void *ptr, size_t len)
{
 1003c64:	defffd04 	addi	sp,sp,-12
 1003c68:	dc400115 	stw	r17,4(sp)
 1003c6c:	dc000015 	stw	r16,0(sp)
 1003c70:	dfc00215 	stw	ra,8(sp)
 1003c74:	2821883a 	mov	r16,r5
 1003c78:	3023883a 	mov	r17,r6
   * A common error case is that when the file descriptor was created, the call
   * to open() failed resulting in a negative file descriptor. This is trapped
   * below so that we don't try and process an invalid file descriptor.
   */

  fd = (file < 0) ? NULL : &alt_fd_list[file];
 1003c7c:	20002916 	blt	r4,zero,1003d24 <write+0xc0>
 1003c80:	01400304 	movi	r5,12
 1003c84:	1000cc40 	call	1000cc4 <__mulsi3>
 1003c88:	00c04074 	movhi	r3,257
 1003c8c:	18e35b04 	addi	r3,r3,-29332
 1003c90:	10c9883a 	add	r4,r2,r3
  
  if (fd)
 1003c94:	20002326 	beq	r4,zero,1003d24 <write+0xc0>
     * If the file has not been opened with write access, or if the driver does
     * not provide an implementation of write(), generate an error. Otherwise
     * call the drivers write() function to process the request.
     */

    if (((fd->fd_flags & O_ACCMODE) != O_RDONLY) && fd->dev->write)
 1003c98:	20800217 	ldw	r2,8(r4)
 1003c9c:	108000cc 	andi	r2,r2,3
 1003ca0:	10000e26 	beq	r2,zero,1003cdc <write+0x78>
 1003ca4:	20800017 	ldw	r2,0(r4)
 1003ca8:	10800617 	ldw	r2,24(r2)
 1003cac:	10000b26 	beq	r2,zero,1003cdc <write+0x78>
    {
      
      /* ALT_LOG - see altera_hal/HAL/inc/sys/alt_log_printf.h */
      ALT_LOG_WRITE_FUNCTION(ptr,len);

      if ((rval = fd->dev->write(fd, ptr, len)) < 0)
 1003cb0:	800b883a 	mov	r5,r16
 1003cb4:	880d883a 	mov	r6,r17
 1003cb8:	103ee83a 	callr	r2
 1003cbc:	1021883a 	mov	r16,r2
 1003cc0:	10002a16 	blt	r2,zero,1003d6c <write+0x108>
  else  
  {
    ALT_ERRNO = EBADFD;
  }
  return -1;
}
 1003cc4:	8005883a 	mov	r2,r16
 1003cc8:	dfc00217 	ldw	ra,8(sp)
 1003ccc:	dc400117 	ldw	r17,4(sp)
 1003cd0:	dc000017 	ldw	r16,0(sp)
 1003cd4:	dec00304 	addi	sp,sp,12
 1003cd8:	f800283a 	ret
 1003cdc:	00804074 	movhi	r2,257
 1003ce0:	10a8bf04 	addi	r2,r2,-23812
 1003ce4:	10800017 	ldw	r2,0(r2)
 1003ce8:	10000b26 	beq	r2,zero,1003d18 <write+0xb4>
 1003cec:	103ee83a 	callr	r2
 1003cf0:	1007883a 	mov	r3,r2
      }
      return rval;
    }
    else
    {
      ALT_ERRNO = EACCES;
 1003cf4:	043fffc4 	movi	r16,-1
 1003cf8:	00800344 	movi	r2,13
 1003cfc:	18800015 	stw	r2,0(r3)
  else  
  {
    ALT_ERRNO = EBADFD;
  }
  return -1;
}
 1003d00:	8005883a 	mov	r2,r16
 1003d04:	dfc00217 	ldw	ra,8(sp)
 1003d08:	dc400117 	ldw	r17,4(sp)
 1003d0c:	dc000017 	ldw	r16,0(sp)
 1003d10:	dec00304 	addi	sp,sp,12
 1003d14:	f800283a 	ret
 1003d18:	00c04074 	movhi	r3,257
 1003d1c:	18e8d004 	addi	r3,r3,-23744
 1003d20:	003ff406 	br	1003cf4 <write+0x90>
 1003d24:	00804074 	movhi	r2,257
 1003d28:	10a8bf04 	addi	r2,r2,-23812
 1003d2c:	10800017 	ldw	r2,0(r2)
 1003d30:	10000b26 	beq	r2,zero,1003d60 <write+0xfc>
 1003d34:	103ee83a 	callr	r2
 1003d38:	1007883a 	mov	r3,r2
      ALT_ERRNO = EACCES;
    }
  }
  else  
  {
    ALT_ERRNO = EBADFD;
 1003d3c:	00801444 	movi	r2,81
 1003d40:	043fffc4 	movi	r16,-1
 1003d44:	18800015 	stw	r2,0(r3)
  }
  return -1;
}
 1003d48:	8005883a 	mov	r2,r16
 1003d4c:	dfc00217 	ldw	ra,8(sp)
 1003d50:	dc400117 	ldw	r17,4(sp)
 1003d54:	dc000017 	ldw	r16,0(sp)
 1003d58:	dec00304 	addi	sp,sp,12
 1003d5c:	f800283a 	ret
 1003d60:	00c04074 	movhi	r3,257
 1003d64:	18e8d004 	addi	r3,r3,-23744
 1003d68:	003ff406 	br	1003d3c <write+0xd8>
 1003d6c:	00804074 	movhi	r2,257
 1003d70:	10a8bf04 	addi	r2,r2,-23812
 1003d74:	10800017 	ldw	r2,0(r2)
 1003d78:	10000626 	beq	r2,zero,1003d94 <write+0x130>
 1003d7c:	103ee83a 	callr	r2
 1003d80:	1007883a 	mov	r3,r2
      /* ALT_LOG - see altera_hal/HAL/inc/sys/alt_log_printf.h */
      ALT_LOG_WRITE_FUNCTION(ptr,len);

      if ((rval = fd->dev->write(fd, ptr, len)) < 0)
      {
        ALT_ERRNO = -rval;
 1003d84:	0405c83a 	sub	r2,zero,r16
 1003d88:	043fffc4 	movi	r16,-1
 1003d8c:	18800015 	stw	r2,0(r3)
 1003d90:	003fcc06 	br	1003cc4 <write+0x60>
 1003d94:	00c04074 	movhi	r3,257
 1003d98:	18e8d004 	addi	r3,r3,-23744
 1003d9c:	003ff906 	br	1003d84 <write+0x120>

01003da0 <alt_irq_init>:
 * The "base" parameter is ignored and only
 * present for backwards-compatibility.
 */

void alt_irq_init ( const void* base )
{
 1003da0:	deffff04 	addi	sp,sp,-4
 1003da4:	dfc00015 	stw	ra,0(sp)
    ALTERA_NIOS2_QSYS_IRQ_INIT ( CPU_0, cpu_0);
 1003da8:	10073e80 	call	10073e8 <altera_nios2_qsys_irq_init>
 * alt_irq_cpu_enable_interrupts() enables the CPU to start taking interrupts.
 */
static ALT_INLINE void ALT_ALWAYS_INLINE 
       alt_irq_cpu_enable_interrupts ()
{
    NIOS2_WRITE_STATUS(NIOS2_STATUS_PIE_MSK
 1003dac:	00800044 	movi	r2,1
 1003db0:	1001703a 	wrctl	status,r2
    alt_irq_cpu_enable_interrupts();
}
 1003db4:	dfc00017 	ldw	ra,0(sp)
 1003db8:	dec00104 	addi	sp,sp,4
 1003dbc:	f800283a 	ret

01003dc0 <alt_sys_init>:
 * Initialize the non-interrupt controller devices.
 * Called after alt_irq_init().
 */

void alt_sys_init( void )
{
 1003dc0:	defffd04 	addi	sp,sp,-12
    ALTERA_AVALON_TIMER_INIT ( TIMER_0, timer_0);
 1003dc4:	01c0fa04 	movi	r7,1000
 1003dc8:	000b883a 	mov	r5,zero
 1003dcc:	018000c4 	movi	r6,3
 1003dd0:	01000234 	movhi	r4,8
 1003dd4:	21084804 	addi	r4,r4,8480
 * Initialize the non-interrupt controller devices.
 * Called after alt_irq_init().
 */

void alt_sys_init( void )
{
 1003dd8:	dfc00215 	stw	ra,8(sp)
 1003ddc:	dc800115 	stw	r18,4(sp)
 1003de0:	dc000015 	stw	r16,0(sp)
    ALTERA_AVALON_TIMER_INIT ( TIMER_0, timer_0);
 1003de4:	10062bc0 	call	10062bc <alt_avalon_timer_sc_init>
    ALTERA_AVALON_TIMER_INIT ( TIMER_1, timer_1);
    ALTERA_AVALON_CFI_FLASH_INIT ( CFI_FLASH_0, cfi_flash_0);
 1003de8:	01004074 	movhi	r4,257
 1003dec:	2123bb04 	addi	r4,r4,-28948
 1003df0:	10042e00 	call	10042e0 <alt_flash_cfi_init>
    ALTERA_AVALON_EPCS_FLASH_CONTROLLER_INIT ( EPCS_CONTROLLER, epcs_controller);
 1003df4:	01004074 	movhi	r4,257
 1003df8:	2123f104 	addi	r4,r4,-28732
 1003dfc:	100515c0 	call	100515c <alt_epcs_flash_init>
    ALTERA_AVALON_JTAG_UART_INIT ( JTAG_UART_0, jtag_uart_0);
 1003e00:	04004074 	movhi	r16,257
 1003e04:	84242d04 	addi	r16,r16,-28492
 1003e08:	01800044 	movi	r6,1

static ALT_INLINE int alt_dev_reg (alt_dev* dev)
{
  extern alt_llist alt_dev_list;

  return alt_dev_llist_insert ((alt_dev_llist*) dev, &alt_dev_list);
 1003e0c:	04804074 	movhi	r18,257
 1003e10:	94a8bc04 	addi	r18,r18,-23824
 1003e14:	8009883a 	mov	r4,r16
 1003e18:	000b883a 	mov	r5,zero
 1003e1c:	100544c0 	call	100544c <altera_avalon_jtag_uart_init>
 1003e20:	900b883a 	mov	r5,r18
 1003e24:	813ff604 	addi	r4,r16,-40
    ALTERA_AVALON_LCD_16207_INIT ( LCD_16207_0, lcd_16207_0);
 1003e28:	04004074 	movhi	r16,257
 1003e2c:	84284504 	addi	r16,r16,-24300
 1003e30:	1006dbc0 	call	1006dbc <alt_dev_llist_insert>
 1003e34:	8009883a 	mov	r4,r16
 1003e38:	1005c7c0 	call	1005c7c <altera_avalon_lcd_16207_init>
 1003e3c:	900b883a 	mov	r5,r18
 1003e40:	813ff604 	addi	r4,r16,-40
 1003e44:	1006dbc0 	call	1006dbc <alt_dev_llist_insert>
    ALTERA_AVALON_SYSID_QSYS_INIT ( SYSID_QSYS_0, sysid_qsys_0);
    ALTERA_AVALON_UART_INIT ( UART_0, uart_0);
 1003e48:	04004074 	movhi	r16,257
 1003e4c:	84288d04 	addi	r16,r16,-24012
 1003e50:	8009883a 	mov	r4,r16
 1003e54:	000b883a 	mov	r5,zero
 1003e58:	01800084 	movi	r6,2
 1003e5c:	10064e40 	call	10064e4 <altera_avalon_uart_init>
 1003e60:	813ff604 	addi	r4,r16,-40
 1003e64:	900b883a 	mov	r5,r18
}
 1003e68:	dfc00217 	ldw	ra,8(sp)
 1003e6c:	dc800117 	ldw	r18,4(sp)
 1003e70:	dc000017 	ldw	r16,0(sp)
 1003e74:	dec00304 	addi	sp,sp,12
 1003e78:	1006dbc1 	jmpi	1006dbc <alt_dev_llist_insert>

01003e7c <alt_flash_cfi_get_info>:
                            int* number_of_regions)
{
  int ret_code = 0;
  alt_flash_dev* flash = (alt_flash_dev*)fd;

  *number_of_regions = flash->number_of_regions;
 1003e7c:	20800c17 	ldw	r2,48(r4)

  if (!flash->number_of_regions)
 1003e80:	01fffec4 	movi	r7,-5
                            int* number_of_regions)
{
  int ret_code = 0;
  alt_flash_dev* flash = (alt_flash_dev*)fd;

  *number_of_regions = flash->number_of_regions;
 1003e84:	30800015 	stw	r2,0(r6)

  if (!flash->number_of_regions)
 1003e88:	20c00c17 	ldw	r3,48(r4)
 1003e8c:	1800021e 	bne	r3,zero,1003e98 <alt_flash_cfi_get_info+0x1c>
  {
    *info = &flash->region_info[0];
  }

  return ret_code;
}
 1003e90:	3805883a 	mov	r2,r7
 1003e94:	f800283a 	ret

  if (!flash->number_of_regions)
  {
    ret_code = -EIO;
  }
  else if (flash->number_of_regions > ALT_MAX_NUMBER_OF_FLASH_REGIONS)
 1003e98:	00800204 	movi	r2,8
  {
    ret_code = -ENOMEM;
  }
  else
  {
    *info = &flash->region_info[0];
 1003e9c:	21000d04 	addi	r4,r4,52

  if (!flash->number_of_regions)
  {
    ret_code = -EIO;
  }
  else if (flash->number_of_regions > ALT_MAX_NUMBER_OF_FLASH_REGIONS)
 1003ea0:	01fffd04 	movi	r7,-12
 1003ea4:	10fffa16 	blt	r2,r3,1003e90 <alt_flash_cfi_get_info+0x14>
  {
    ret_code = -ENOMEM;
  }
  else
  {
    *info = &flash->region_info[0];
 1003ea8:	000f883a 	mov	r7,zero
 1003eac:	29000015 	stw	r4,0(r5)
 1003eb0:	003ff706 	br	1003e90 <alt_flash_cfi_get_info+0x14>

01003eb4 <alt_flash_program_block>:
*/
int alt_flash_program_block(  alt_flash_cfi_dev* flash, const int offset, 
                        const alt_u8* src_addr, 
                        const int length,
                        alt_program_word_fn program_word_func)
{
 1003eb4:	defff504 	addi	sp,sp,-44
 1003eb8:	dc400215 	stw	r17,8(sp)
 1003ebc:	dc000115 	stw	r16,4(sp)

  /*
   * First take care of any writes which are on none native boundaries
   * as far as the flash is concerned.
   */
  bytes_to_preserve = ((int)((alt_u8*)flash->dev.base_addr + offset) % 
 1003ec0:	24400a17 	ldw	r17,40(r4)
 1003ec4:	24002e17 	ldw	r16,184(r4)
*/
int alt_flash_program_block(  alt_flash_cfi_dev* flash, const int offset, 
                        const alt_u8* src_addr, 
                        const int length,
                        alt_program_word_fn program_word_func)
{
 1003ec8:	dd800715 	stw	r22,28(sp)
 1003ecc:	282d883a 	mov	r22,r5
 1003ed0:	dcc00415 	stw	r19,16(sp)

  /*
   * First take care of any writes which are on none native boundaries
   * as far as the flash is concerned.
   */
  bytes_to_preserve = ((int)((alt_u8*)flash->dev.base_addr + offset) % 
 1003ed4:	800b883a 	mov	r5,r16
*/
int alt_flash_program_block(  alt_flash_cfi_dev* flash, const int offset, 
                        const alt_u8* src_addr, 
                        const int length,
                        alt_program_word_fn program_word_func)
{
 1003ed8:	2027883a 	mov	r19,r4

  /*
   * First take care of any writes which are on none native boundaries
   * as far as the flash is concerned.
   */
  bytes_to_preserve = ((int)((alt_u8*)flash->dev.base_addr + offset) % 
 1003edc:	b449883a 	add	r4,r22,r17
*/
int alt_flash_program_block(  alt_flash_cfi_dev* flash, const int offset, 
                        const alt_u8* src_addr, 
                        const int length,
                        alt_program_word_fn program_word_func)
{
 1003ee0:	df000915 	stw	fp,36(sp)
 1003ee4:	dd400615 	stw	r21,24(sp)
 1003ee8:	dc800315 	stw	r18,12(sp)
 1003eec:	dfc00a15 	stw	ra,40(sp)
 1003ef0:	3825883a 	mov	r18,r7
 1003ef4:	ddc00815 	stw	r23,32(sp)
 1003ef8:	dd000515 	stw	r20,20(sp)
 1003efc:	302b883a 	mov	r21,r6

  /*
   * First take care of any writes which are on none native boundaries
   * as far as the flash is concerned.
   */
  bytes_to_preserve = ((int)((alt_u8*)flash->dev.base_addr + offset) % 
 1003f00:	10081580 	call	1008158 <__modsi3>
 1003f04:	100f883a 	mov	r7,r2
*/
int alt_flash_program_block(  alt_flash_cfi_dev* flash, const int offset, 
                        const alt_u8* src_addr, 
                        const int length,
                        alt_program_word_fn program_word_func)
{
 1003f08:	df000b17 	ldw	fp,44(sp)
   * First take care of any writes which are on none native boundaries
   * as far as the flash is concerned.
   */
  bytes_to_preserve = ((int)((alt_u8*)flash->dev.base_addr + offset) % 
                      flash->mode_width);
  if ( bytes_to_preserve != 0)
 1003f0c:	10004826 	beq	r2,zero,1004030 <alt_flash_program_block+0x17c>
  {
    unaligned_bytes = flash->mode_width - bytes_to_preserve;
 1003f10:	80a1c83a 	sub	r16,r16,r2
    /*
     * Read the bytes we wish to preserve out of flash
     */
    for (i=0;i<bytes_to_preserve;i++)
 1003f14:	0080590e 	bge	zero,r2,100407c <alt_flash_program_block+0x1c8>
 1003f18:	b08bc83a 	sub	r5,r22,r2
 1003f1c:	000d883a 	mov	r6,zero
    {
      unaligned[i] = IORD_8DIRECT(flash->dev.base_addr, 
 1003f20:	2985883a 	add	r2,r5,r6
 1003f24:	1445883a 	add	r2,r2,r17
 1003f28:	11000023 	ldbuio	r4,0(r2)
 1003f2c:	d987883a 	add	r3,sp,r6
  {
    unaligned_bytes = flash->mode_width - bytes_to_preserve;
    /*
     * Read the bytes we wish to preserve out of flash
     */
    for (i=0;i<bytes_to_preserve;i++)
 1003f30:	31800044 	addi	r6,r6,1
    {
      unaligned[i] = IORD_8DIRECT(flash->dev.base_addr, 
 1003f34:	19000005 	stb	r4,0(r3)
  {
    unaligned_bytes = flash->mode_width - bytes_to_preserve;
    /*
     * Read the bytes we wish to preserve out of flash
     */
    for (i=0;i<bytes_to_preserve;i++)
 1003f38:	39bff91e 	bne	r7,r6,1003f20 <alt_flash_program_block+0x6c>
    {
      unaligned[i] = IORD_8DIRECT(flash->dev.base_addr, 
                                offset-bytes_to_preserve+i);
    }

    for (i=0;i<unaligned_bytes;i++)
 1003f3c:	0400080e 	bge	zero,r16,1003f60 <alt_flash_program_block+0xac>
 1003f40:	d9c9883a 	add	r4,sp,r7
 1003f44:	000d883a 	mov	r6,zero
    {
      unaligned[bytes_to_preserve + i] = *(alt_u8*)(src_addr + i);
 1003f48:	a985883a 	add	r2,r21,r6
 1003f4c:	10c00003 	ldbu	r3,0(r2)
    {
      unaligned[i] = IORD_8DIRECT(flash->dev.base_addr, 
                                offset-bytes_to_preserve+i);
    }

    for (i=0;i<unaligned_bytes;i++)
 1003f50:	31800044 	addi	r6,r6,1
    {
      unaligned[bytes_to_preserve + i] = *(alt_u8*)(src_addr + i);
 1003f54:	20c00005 	stb	r3,0(r4)
    {
      unaligned[i] = IORD_8DIRECT(flash->dev.base_addr, 
                                offset-bytes_to_preserve+i);
    }

    for (i=0;i<unaligned_bytes;i++)
 1003f58:	21000044 	addi	r4,r4,1
 1003f5c:	81bffa1e 	bne	r16,r6,1003f48 <alt_flash_program_block+0x94>
    {
      unaligned[bytes_to_preserve + i] = *(alt_u8*)(src_addr + i);
    }
    
    ret_code = (*program_word_func)(flash, offset-bytes_to_preserve, unaligned);
 1003f60:	9809883a 	mov	r4,r19
 1003f64:	d80d883a 	mov	r6,sp
 1003f68:	e03ee83a 	callr	fp
  else
  {
    i = 0;
  }

  unaligned_end_bytes = (offset+length) % flash->mode_width;
 1003f6c:	99402e17 	ldw	r5,184(r19)
 1003f70:	b4af883a 	add	r23,r22,r18
 1003f74:	b809883a 	mov	r4,r23
    for (i=0;i<unaligned_bytes;i++)
    {
      unaligned[bytes_to_preserve + i] = *(alt_u8*)(src_addr + i);
    }
    
    ret_code = (*program_word_func)(flash, offset-bytes_to_preserve, unaligned);
 1003f78:	1023883a 	mov	r17,r2
  else
  {
    i = 0;
  }

  unaligned_end_bytes = (offset+length) % flash->mode_width;
 1003f7c:	10081580 	call	1008158 <__modsi3>
 1003f80:	1029883a 	mov	r20,r2
  while ((ret_code == 0) && (i < (length-unaligned_end_bytes)))
 1003f84:	88003026 	beq	r17,zero,1004048 <alt_flash_program_block+0x194>

  /*
   * Now take care of any writes at the end of the buffer which are on none 
   * native boundaries as far as the flash is concerned.
   */
  if (unaligned_end_bytes && !ret_code)
 1003f88:	a0001c26 	beq	r20,zero,1003ffc <alt_flash_program_block+0x148>
 1003f8c:	88001b1e 	bne	r17,zero,1003ffc <alt_flash_program_block+0x148>
  {
    bytes_to_preserve = flash->mode_width - unaligned_end_bytes;
 1003f90:	98802e17 	ldw	r2,184(r19)
 1003f94:	150fc83a 	sub	r7,r2,r20
    
    for (j=0;j<unaligned_end_bytes;j++)
 1003f98:	0500080e 	bge	zero,r20,1003fbc <alt_flash_program_block+0x108>
 1003f9c:	ac0d883a 	add	r6,r21,r16
 1003fa0:	000b883a 	mov	r5,zero
    {
      unaligned[j] = *(alt_u8*)(src_addr+i+j);
 1003fa4:	3145883a 	add	r2,r6,r5
 1003fa8:	11000003 	ldbu	r4,0(r2)
 1003fac:	d947883a 	add	r3,sp,r5
   */
  if (unaligned_end_bytes && !ret_code)
  {
    bytes_to_preserve = flash->mode_width - unaligned_end_bytes;
    
    for (j=0;j<unaligned_end_bytes;j++)
 1003fb0:	29400044 	addi	r5,r5,1
    {
      unaligned[j] = *(alt_u8*)(src_addr+i+j);
 1003fb4:	19000005 	stb	r4,0(r3)
   */
  if (unaligned_end_bytes && !ret_code)
  {
    bytes_to_preserve = flash->mode_width - unaligned_end_bytes;
    
    for (j=0;j<unaligned_end_bytes;j++)
 1003fb8:	2d3ffa1e 	bne	r5,r20,1003fa4 <alt_flash_program_block+0xf0>
    {
      unaligned[j] = *(alt_u8*)(src_addr+i+j);
    }
    
    for (j=0;j<bytes_to_preserve;j++)
 1003fbc:	01c00a0e 	bge	zero,r7,1003fe8 <alt_flash_program_block+0x134>
 1003fc0:	9c400a17 	ldw	r17,40(r19)
 1003fc4:	dd09883a 	add	r4,sp,r20
 1003fc8:	000b883a 	mov	r5,zero
    {
      unaligned[unaligned_end_bytes+j] = IORD_8DIRECT(flash->dev.base_addr, 
 1003fcc:	b945883a 	add	r2,r23,r5
 1003fd0:	1445883a 	add	r2,r2,r17
 1003fd4:	10c00023 	ldbuio	r3,0(r2)
    for (j=0;j<unaligned_end_bytes;j++)
    {
      unaligned[j] = *(alt_u8*)(src_addr+i+j);
    }
    
    for (j=0;j<bytes_to_preserve;j++)
 1003fd8:	29400044 	addi	r5,r5,1
    {
      unaligned[unaligned_end_bytes+j] = IORD_8DIRECT(flash->dev.base_addr, 
 1003fdc:	20c00005 	stb	r3,0(r4)
    for (j=0;j<unaligned_end_bytes;j++)
    {
      unaligned[j] = *(alt_u8*)(src_addr+i+j);
    }
    
    for (j=0;j<bytes_to_preserve;j++)
 1003fe0:	21000044 	addi	r4,r4,1
 1003fe4:	397ff91e 	bne	r7,r5,1003fcc <alt_flash_program_block+0x118>
    {
      unaligned[unaligned_end_bytes+j] = IORD_8DIRECT(flash->dev.base_addr, 
                                                      offset+length+j);
    }

    ret_code = (*program_word_func)(flash, offset+i, unaligned);      
 1003fe8:	b40b883a 	add	r5,r22,r16
 1003fec:	9809883a 	mov	r4,r19
 1003ff0:	d80d883a 	mov	r6,sp
 1003ff4:	e03ee83a 	callr	fp
 1003ff8:	1023883a 	mov	r17,r2
  }

  return ret_code;
}
 1003ffc:	8805883a 	mov	r2,r17
 1004000:	dfc00a17 	ldw	ra,40(sp)
 1004004:	df000917 	ldw	fp,36(sp)
 1004008:	ddc00817 	ldw	r23,32(sp)
 100400c:	dd800717 	ldw	r22,28(sp)
 1004010:	dd400617 	ldw	r21,24(sp)
 1004014:	dd000517 	ldw	r20,20(sp)
 1004018:	dcc00417 	ldw	r19,16(sp)
 100401c:	dc800317 	ldw	r18,12(sp)
 1004020:	dc400217 	ldw	r17,8(sp)
 1004024:	dc000117 	ldw	r16,4(sp)
 1004028:	dec00b04 	addi	sp,sp,44
 100402c:	f800283a 	ret
  else
  {
    i = 0;
  }

  unaligned_end_bytes = (offset+length) % flash->mode_width;
 1004030:	b4af883a 	add	r23,r22,r18
 1004034:	800b883a 	mov	r5,r16
 1004038:	b809883a 	mov	r4,r23
 100403c:	10081580 	call	1008158 <__modsi3>
 1004040:	1029883a 	mov	r20,r2
 1004044:	0021883a 	mov	r16,zero
  while ((ret_code == 0) && (i < (length-unaligned_end_bytes)))
 1004048:	9525c83a 	sub	r18,r18,r20
 100404c:	84800216 	blt	r16,r18,1004058 <alt_flash_program_block+0x1a4>
 1004050:	00000c06 	br	1004084 <alt_flash_program_block+0x1d0>
 1004054:	84bfcc0e 	bge	r16,r18,1003f88 <alt_flash_program_block+0xd4>
  {
    ret_code = (*program_word_func)(flash, offset+i, src_addr+i);
 1004058:	b40b883a 	add	r5,r22,r16
 100405c:	ac0d883a 	add	r6,r21,r16
 1004060:	9809883a 	mov	r4,r19
 1004064:	e03ee83a 	callr	fp
 1004068:	1023883a 	mov	r17,r2
    i += flash->mode_width;     
 100406c:	98802e17 	ldw	r2,184(r19)
 1004070:	80a1883a 	add	r16,r16,r2
  {
    i = 0;
  }

  unaligned_end_bytes = (offset+length) % flash->mode_width;
  while ((ret_code == 0) && (i < (length-unaligned_end_bytes)))
 1004074:	883ff726 	beq	r17,zero,1004054 <alt_flash_program_block+0x1a0>
 1004078:	003fc306 	br	1003f88 <alt_flash_program_block+0xd4>
 100407c:	b08bc83a 	sub	r5,r22,r2
 1004080:	003fae06 	br	1003f3c <alt_flash_program_block+0x88>
 1004084:	0023883a 	mov	r17,zero
 1004088:	003fbf06 	br	1003f88 <alt_flash_program_block+0xd4>

0100408c <alt_write_value_to_flash>:
void alt_write_value_to_flash(alt_flash_cfi_dev* flash, int offset, const alt_u8* src_addr)
{
  alt_u16 half_word_value;
  alt_u32 word_value;

  if (flash->mode_width == 1)
 100408c:	20c02e17 	ldw	r3,184(r4)
 1004090:	00800044 	movi	r2,1
* It writes the largest word size that the flash can support
* so if it's an 8 bit flash it writes bytes
* 16 bit half word etc.
*/
void alt_write_value_to_flash(alt_flash_cfi_dev* flash, int offset, const alt_u8* src_addr)
{
 1004094:	2011883a 	mov	r8,r4
 1004098:	300f883a 	mov	r7,r6
 100409c:	2813883a 	mov	r9,r5
  alt_u16 half_word_value;
  alt_u32 word_value;

  if (flash->mode_width == 1)
 10040a0:	18801326 	beq	r3,r2,10040f0 <alt_write_value_to_flash+0x64>
  {
    IOWR_8DIRECT(flash->dev.base_addr, offset, *src_addr);
  }
  else if (flash->mode_width == 2)
 10040a4:	00800084 	movi	r2,2
 10040a8:	18801626 	beq	r3,r2,1004104 <alt_write_value_to_flash+0x78>
  {
    half_word_value = (alt_u16)(*src_addr);
    half_word_value |= (alt_u16)(*(src_addr + 1)) << 8;
    IOWR_16DIRECT(flash->dev.base_addr, offset, half_word_value);
  }
  else if (flash->mode_width == 4)
 10040ac:	00800104 	movi	r2,4
 10040b0:	18800126 	beq	r3,r2,10040b8 <alt_write_value_to_flash+0x2c>
 10040b4:	f800283a 	ret
  {
    word_value = (alt_u32)(*src_addr);
    word_value |= ((alt_u32)(*(src_addr + 1)) << 8);
    word_value |= ((alt_u32)(*(src_addr + 2)) << 16);
 10040b8:	318000c3 	ldbu	r6,3(r6)
    IOWR_16DIRECT(flash->dev.base_addr, offset, half_word_value);
  }
  else if (flash->mode_width == 4)
  {
    word_value = (alt_u32)(*src_addr);
    word_value |= ((alt_u32)(*(src_addr + 1)) << 8);
 10040bc:	39400043 	ldbu	r5,1(r7)
    word_value |= ((alt_u32)(*(src_addr + 2)) << 16);
 10040c0:	38c00083 	ldbu	r3,2(r7)
    half_word_value |= (alt_u16)(*(src_addr + 1)) << 8;
    IOWR_16DIRECT(flash->dev.base_addr, offset, half_word_value);
  }
  else if (flash->mode_width == 4)
  {
    word_value = (alt_u32)(*src_addr);
 10040c4:	39000003 	ldbu	r4,0(r7)
    word_value |= ((alt_u32)(*(src_addr + 1)) << 8);
 10040c8:	280a923a 	slli	r5,r5,8
    word_value |= ((alt_u32)(*(src_addr + 2)) << 16);
 10040cc:	300c963a 	slli	r6,r6,24
 10040d0:	1806943a 	slli	r3,r3,16
    word_value |= ((alt_u32)(*(src_addr + 3)) << 24);
    IOWR_32DIRECT(flash->dev.base_addr, offset, word_value);
 10040d4:	40800a17 	ldw	r2,40(r8)
    IOWR_16DIRECT(flash->dev.base_addr, offset, half_word_value);
  }
  else if (flash->mode_width == 4)
  {
    word_value = (alt_u32)(*src_addr);
    word_value |= ((alt_u32)(*(src_addr + 1)) << 8);
 10040d8:	2148b03a 	or	r4,r4,r5
    word_value |= ((alt_u32)(*(src_addr + 2)) << 16);
 10040dc:	1986b03a 	or	r3,r3,r6
    word_value |= ((alt_u32)(*(src_addr + 3)) << 24);
    IOWR_32DIRECT(flash->dev.base_addr, offset, word_value);
 10040e0:	4885883a 	add	r2,r9,r2
 10040e4:	20c8b03a 	or	r4,r4,r3
 10040e8:	11000035 	stwio	r4,0(r2)
 10040ec:	f800283a 	ret
  alt_u16 half_word_value;
  alt_u32 word_value;

  if (flash->mode_width == 1)
  {
    IOWR_8DIRECT(flash->dev.base_addr, offset, *src_addr);
 10040f0:	20800a17 	ldw	r2,40(r4)
 10040f4:	30c00003 	ldbu	r3,0(r6)
 10040f8:	2885883a 	add	r2,r5,r2
 10040fc:	10c00025 	stbio	r3,0(r2)
 1004100:	f800283a 	ret
  }
  else if (flash->mode_width == 2)
  {
    half_word_value = (alt_u16)(*src_addr);
    half_word_value |= (alt_u16)(*(src_addr + 1)) << 8;
    IOWR_16DIRECT(flash->dev.base_addr, offset, half_word_value);
 1004104:	30800043 	ldbu	r2,1(r6)
 1004108:	20c00a17 	ldw	r3,40(r4)
 100410c:	31000003 	ldbu	r4,0(r6)
 1004110:	1004923a 	slli	r2,r2,8
 1004114:	28c7883a 	add	r3,r5,r3
 1004118:	1104b03a 	or	r2,r2,r4
 100411c:	1880002d 	sthio	r2,0(r3)
 1004120:	f800283a 	ret

01004124 <alt_flash_cfi_read>:
 */
int alt_flash_cfi_read( alt_flash_dev* flash_info, int offset, 
                        void* dest_addr, int length )
{
  alt_flash_cfi_dev* flash = (alt_flash_cfi_dev*)flash_info;
  memcpy(dest_addr, (alt_u8*)flash->dev.base_addr+offset, length);
 1004124:	20800a17 	ldw	r2,40(r4)
 *  Read from an area in flash, you could use memcopy yourself
 *  for these flash types, but we're trying to be generic and future proof
 */
int alt_flash_cfi_read( alt_flash_dev* flash_info, int offset, 
                        void* dest_addr, int length )
{
 1004128:	deffff04 	addi	sp,sp,-4
  alt_flash_cfi_dev* flash = (alt_flash_cfi_dev*)flash_info;
  memcpy(dest_addr, (alt_u8*)flash->dev.base_addr+offset, length);
 100412c:	3009883a 	mov	r4,r6
 1004130:	288b883a 	add	r5,r5,r2
 1004134:	380d883a 	mov	r6,r7
 *  Read from an area in flash, you could use memcopy yourself
 *  for these flash types, but we're trying to be generic and future proof
 */
int alt_flash_cfi_read( alt_flash_dev* flash_info, int offset, 
                        void* dest_addr, int length )
{
 1004138:	dfc00015 	stw	ra,0(sp)
  alt_flash_cfi_dev* flash = (alt_flash_cfi_dev*)flash_info;
  memcpy(dest_addr, (alt_u8*)flash->dev.base_addr+offset, length);
 100413c:	1001ae40 	call	1001ae4 <memcpy>
  return 0;
}
 1004140:	0005883a 	mov	r2,zero
 1004144:	dfc00017 	ldw	ra,0(sp)
 1004148:	dec00104 	addi	sp,sp,4
 100414c:	f800283a 	ret

01004150 <alt_flash_cfi_write>:
 * large buffer to tie up in our programming library, when not all users will 
 * want that functionality.
 */
 int alt_flash_cfi_write( alt_flash_dev* flash_info, int offset, 
                          const void* src_addr, int length )
 {
 1004150:	defff104 	addi	sp,sp,-60
 1004154:	ddc00c15 	stw	r23,48(sp)
 1004158:	202f883a 	mov	r23,r4
  alt_flash_cfi_dev* flash = (alt_flash_cfi_dev*)flash_info;

  /*
   * First and foremost which sectors are affected?
   */   
  for(i=0;i<flash->dev.number_of_regions;i++)
 100415c:	21000c17 	ldw	r4,48(r4)
 * large buffer to tie up in our programming library, when not all users will 
 * want that functionality.
 */
 int alt_flash_cfi_write( alt_flash_dev* flash_info, int offset, 
                          const void* src_addr, int length )
 {
 1004160:	dd800b15 	stw	r22,44(sp)
 1004164:	dfc00e15 	stw	ra,56(sp)
 1004168:	df000d15 	stw	fp,52(sp)
 100416c:	dd400a15 	stw	r21,40(sp)
 1004170:	dd000915 	stw	r20,36(sp)
 1004174:	dcc00815 	stw	r19,32(sp)
 1004178:	dc800715 	stw	r18,28(sp)
 100417c:	dc400615 	stw	r17,24(sp)
 1004180:	dc000515 	stw	r16,20(sp)
 1004184:	d9400215 	stw	r5,8(sp)
 1004188:	302d883a 	mov	r22,r6
 100418c:	d9c00315 	stw	r7,12(sp)
  alt_flash_cfi_dev* flash = (alt_flash_cfi_dev*)flash_info;

  /*
   * First and foremost which sectors are affected?
   */   
  for(i=0;i<flash->dev.number_of_regions;i++)
 1004190:	0100500e 	bge	zero,r4,10042d4 <alt_flash_cfi_write+0x184>
 1004194:	b9c00a17 	ldw	r7,40(r23)
 1004198:	dc400217 	ldw	r17,8(sp)
 100419c:	dd400317 	ldw	r21,12(sp)
 10041a0:	b829883a 	mov	r20,r23
 10041a4:	d8000115 	stw	zero,4(sp)
 10041a8:	0039883a 	mov	fp,zero
  {
    /* Is it in this erase block region?*/
    if((offset >= flash->dev.region_info[i].offset) &&
 10041ac:	a4000d17 	ldw	r16,52(r20)
 10041b0:	8c000f16 	blt	r17,r16,10041f0 <alt_flash_cfi_write+0xa0>
 10041b4:	a0800e17 	ldw	r2,56(r20)
 10041b8:	8085883a 	add	r2,r16,r2
 10041bc:	88800c0e 	bge	r17,r2,10041f0 <alt_flash_cfi_write+0xa0>
      (offset < (flash->dev.region_info[i].offset + 
      flash->dev.region_info[i].region_size)))
    {
      current_offset = flash->dev.region_info[i].offset;

      for(j=0;j<flash->dev.region_info[i].number_of_blocks;j++)
 10041c0:	a0c00f17 	ldw	r3,60(r20)
 10041c4:	00c00a0e 	bge	zero,r3,10041f0 <alt_flash_cfi_write+0xa0>
 10041c8:	a0801017 	ldw	r2,64(r20)
 10041cc:	0027883a 	mov	r19,zero
      {
        if ((offset >= current_offset ) && 
 10041d0:	8c000216 	blt	r17,r16,10041dc <alt_flash_cfi_write+0x8c>
 10041d4:	808d883a 	add	r6,r16,r2
 10041d8:	89801916 	blt	r17,r6,1004240 <alt_flash_cfi_write+0xf0>
      (offset < (flash->dev.region_info[i].offset + 
      flash->dev.region_info[i].region_size)))
    {
      current_offset = flash->dev.region_info[i].offset;

      for(j=0;j<flash->dev.region_info[i].number_of_blocks;j++)
 10041dc:	9cc00044 	addi	r19,r19,1
 10041e0:	98c0020e 	bge	r19,r3,10041ec <alt_flash_cfi_write+0x9c>
          
          length -= data_to_write;
          offset = current_offset + flash->dev.region_info[i].block_size;
          src_addr = (alt_u8*)src_addr + data_to_write;
        }
        current_offset += flash->dev.region_info[i].block_size;
 10041e4:	80a1883a 	add	r16,r16,r2
 10041e8:	003ff906 	br	10041d0 <alt_flash_cfi_write+0x80>
 10041ec:	b9000c17 	ldw	r4,48(r23)
  alt_flash_cfi_dev* flash = (alt_flash_cfi_dev*)flash_info;

  /*
   * First and foremost which sectors are affected?
   */   
  for(i=0;i<flash->dev.number_of_regions;i++)
 10041f0:	e7000044 	addi	fp,fp,1
 10041f4:	a5000404 	addi	r20,r20,16
 10041f8:	e13fec16 	blt	fp,r4,10041ac <alt_flash_cfi_write+0x5c>
      }     
    } 
  }
finished:    

  alt_dcache_flush((alt_u8*)flash->dev.base_addr+start_offset, full_length);
 10041fc:	d8800217 	ldw	r2,8(sp)
 1004200:	d9400317 	ldw	r5,12(sp)
 1004204:	11c9883a 	add	r4,r2,r7
 1004208:	1006db80 	call	1006db8 <alt_dcache_flush>
  return ret_code;
}
 100420c:	d8800117 	ldw	r2,4(sp)
 1004210:	dfc00e17 	ldw	ra,56(sp)
 1004214:	df000d17 	ldw	fp,52(sp)
 1004218:	ddc00c17 	ldw	r23,48(sp)
 100421c:	dd800b17 	ldw	r22,44(sp)
 1004220:	dd400a17 	ldw	r21,40(sp)
 1004224:	dd000917 	ldw	r20,36(sp)
 1004228:	dcc00817 	ldw	r19,32(sp)
 100422c:	dc800717 	ldw	r18,28(sp)
 1004230:	dc400617 	ldw	r17,24(sp)
 1004234:	dc000517 	ldw	r16,20(sp)
 1004238:	dec00f04 	addi	sp,sp,60
 100423c:	f800283a 	ret
        {
          /*
           * Check if the contents of the block are different
           * from the data we wish to put there
           */
          data_to_write = ( current_offset + flash->dev.region_info[i].block_size 
 1004240:	3465c83a 	sub	r18,r6,r17
                            - offset); 
          data_to_write = MIN(data_to_write, length);
 1004244:	ac80010e 	bge	r21,r18,100424c <alt_flash_cfi_write+0xfc>
 1004248:	a825883a 	mov	r18,r21
          if(memcmp(src_addr, 
 100424c:	89cb883a 	add	r5,r17,r7
 1004250:	d9c00415 	stw	r7,16(sp)
 1004254:	b009883a 	mov	r4,r22
 1004258:	900d883a 	mov	r6,r18
 100425c:	1007d200 	call	1007d20 <memcmp>
 1004260:	d9c00417 	ldw	r7,16(sp)
 1004264:	1000091e 	bne	r2,zero,100428c <alt_flash_cfi_write+0x13c>
                                                  data_to_write);
            }
          }    
    
          /* Was this the last block? */    
          if ((length == data_to_write) || ret_code)
 1004268:	957fe426 	beq	r18,r21,10041fc <alt_flash_cfi_write+0xac>
 100426c:	d8800117 	ldw	r2,4(sp)
 1004270:	103fe21e 	bne	r2,zero,10041fc <alt_flash_cfi_write+0xac>
          {
            goto finished;
          }
          
          length -= data_to_write;
          offset = current_offset + flash->dev.region_info[i].block_size;
 1004274:	a0801017 	ldw	r2,64(r20)
 1004278:	a0c00f17 	ldw	r3,60(r20)
          src_addr = (alt_u8*)src_addr + data_to_write;
 100427c:	b4ad883a 	add	r22,r22,r18
          if ((length == data_to_write) || ret_code)
          {
            goto finished;
          }
          
          length -= data_to_write;
 1004280:	acabc83a 	sub	r21,r21,r18
          offset = current_offset + flash->dev.region_info[i].block_size;
 1004284:	80a3883a 	add	r17,r16,r2
 1004288:	003fd406 	br	10041dc <alt_flash_cfi_write+0x8c>
          data_to_write = MIN(data_to_write, length);
          if(memcmp(src_addr, 
                    (alt_u8*)flash->dev.base_addr+offset,
                    data_to_write))
          {
            ret_code = (*flash->dev.erase_block)( &flash->dev, current_offset);
 100428c:	b8c00817 	ldw	r3,32(r23)
 1004290:	b809883a 	mov	r4,r23
 1004294:	800b883a 	mov	r5,r16
 1004298:	183ee83a 	callr	r3
 100429c:	d8800115 	stw	r2,4(sp)

            if (!ret_code)
 10042a0:	10000226 	beq	r2,zero,10042ac <alt_flash_cfi_write+0x15c>
 10042a4:	b9c00a17 	ldw	r7,40(r23)
 10042a8:	003fef06 	br	1004268 <alt_flash_cfi_write+0x118>
            {
              ret_code = (*flash->dev.write_block)( 
 10042ac:	b8c00917 	ldw	r3,36(r23)
 10042b0:	b00f883a 	mov	r7,r22
 10042b4:	dc800015 	stw	r18,0(sp)
 10042b8:	880d883a 	mov	r6,r17
 10042bc:	b809883a 	mov	r4,r23
 10042c0:	800b883a 	mov	r5,r16
 10042c4:	183ee83a 	callr	r3
 10042c8:	b9c00a17 	ldw	r7,40(r23)
 10042cc:	d8800115 	stw	r2,4(sp)
 10042d0:	003fe506 	br	1004268 <alt_flash_cfi_write+0x118>
 10042d4:	b9c00a17 	ldw	r7,40(r23)
  alt_flash_cfi_dev* flash = (alt_flash_cfi_dev*)flash_info;

  /*
   * First and foremost which sectors are affected?
   */   
  for(i=0;i<flash->dev.number_of_regions;i++)
 10042d8:	d8000115 	stw	zero,4(sp)
 10042dc:	003fc706 	br	10041fc <alt_flash_cfi_write+0xac>

010042e0 <alt_flash_cfi_init>:
 * Read the CFI table and fill out the alt_flash_cfi_dev structure with all the 
 * information we need to program the flash.
 * 
 */
int alt_flash_cfi_init( alt_flash_cfi_dev* flash  )
{
 10042e0:	defffe04 	addi	sp,sp,-8
 10042e4:	dc000015 	stw	r16,0(sp)
 10042e8:	dfc00115 	stw	ra,4(sp)
 10042ec:	2021883a 	mov	r16,r4
  int ret_code = 0;
 
  ret_code = alt_read_cfi_width( flash );
 10042f0:	10049e00 	call	10049e0 <alt_read_cfi_width>
  
  if (!ret_code)
    ret_code = alt_set_flash_width_func( flash );
 10042f4:	8009883a 	mov	r4,r16
{
  int ret_code = 0;
 
  ret_code = alt_read_cfi_width( flash );
  
  if (!ret_code)
 10042f8:	10000426 	beq	r2,zero,100430c <alt_flash_cfi_init+0x2c>
  */ 
  if (!ret_code)
    ret_code = alt_flash_device_register(&(flash->dev));
 
  return ret_code;
}
 10042fc:	dfc00117 	ldw	ra,4(sp)
 1004300:	dc000017 	ldw	r16,0(sp)
 1004304:	dec00204 	addi	sp,sp,8
 1004308:	f800283a 	ret
  int ret_code = 0;
 
  ret_code = alt_read_cfi_width( flash );
  
  if (!ret_code)
    ret_code = alt_set_flash_width_func( flash );
 100430c:	10043480 	call	1004348 <alt_set_flash_width_func>
  
  if (!ret_code)
    ret_code = alt_read_cfi_table( flash );
 1004310:	8009883a 	mov	r4,r16
  ret_code = alt_read_cfi_width( flash );
  
  if (!ret_code)
    ret_code = alt_set_flash_width_func( flash );
  
  if (!ret_code)
 1004314:	103ff91e 	bne	r2,zero,10042fc <alt_flash_cfi_init+0x1c>
    ret_code = alt_read_cfi_table( flash );
 1004318:	10045e40 	call	10045e4 <alt_read_cfi_table>

  if (!ret_code) 
    ret_code = alt_set_flash_algorithm_func( flash);
 100431c:	8009883a 	mov	r4,r16
    ret_code = alt_set_flash_width_func( flash );
  
  if (!ret_code)
    ret_code = alt_read_cfi_table( flash );

  if (!ret_code) 
 1004320:	103ff61e 	bne	r2,zero,10042fc <alt_flash_cfi_init+0x1c>
    ret_code = alt_set_flash_algorithm_func( flash);
 1004324:	10044780 	call	1004478 <alt_set_flash_algorithm_func>

static ALT_INLINE int alt_flash_device_register( alt_flash_fd* fd)
{
  extern alt_llist alt_flash_dev_list;

  return alt_dev_llist_insert ((alt_dev_llist*) fd, &alt_flash_dev_list);
 1004328:	01404074 	movhi	r5,257
 100432c:	2968c304 	addi	r5,r5,-23796
 1004330:	8009883a 	mov	r4,r16

  /*
  *  Register this device as a valid flash device type
  */ 
  if (!ret_code)
 1004334:	103ff11e 	bne	r2,zero,10042fc <alt_flash_cfi_init+0x1c>
    ret_code = alt_flash_device_register(&(flash->dev));
 
  return ret_code;
}
 1004338:	dfc00117 	ldw	ra,4(sp)
 100433c:	dc000017 	ldw	r16,0(sp)
 1004340:	dec00204 	addi	sp,sp,8
 1004344:	1006dbc1 	jmpi	1006dbc <alt_dev_llist_insert>

01004348 <alt_set_flash_width_func>:
 */
int alt_set_flash_width_func( alt_flash_cfi_dev* flash)
{ 
  int ret_code = 0;
  
  switch(flash->mode_width)
 1004348:	20c02e17 	ldw	r3,184(r4)
 100434c:	01800084 	movi	r6,2
 1004350:	19800726 	beq	r3,r6,1004370 <alt_set_flash_width_func+0x28>
 1004354:	01c00104 	movi	r7,4
 1004358:	19c01726 	beq	r3,r7,10043b8 <alt_set_flash_width_func+0x70>
 100435c:	00800044 	movi	r2,1
 1004360:	18802426 	beq	r3,r2,10043f4 <alt_set_flash_width_func+0xac>
        break;
      }
      case 4:
      {
        flash->read_query = alt_read_query_entry_32bit;
        break;
 1004364:	00fffcc4 	movi	r3,-13
      }
    }
  }

  return ret_code;
}
 1004368:	1805883a 	mov	r2,r3
 100436c:	f800283a 	ret
    }
    case 2:
    {
      flash->write_native = alt_write_native_16bit;

      if (flash->device_width == 2)
 1004370:	21402f17 	ldw	r5,188(r4)
      }
      break;
    }
    case 2:
    {
      flash->write_native = alt_write_native_16bit;
 1004374:	00804034 	movhi	r2,256
 1004378:	10925304 	addi	r2,r2,18764
 100437c:	20803515 	stw	r2,212(r4)

      if (flash->device_width == 2)
 1004380:	28c03126 	beq	r5,r3,1004448 <alt_set_flash_width_func+0x100>
      {
        flash->write_command = alt_write_flash_command_16bit_device_16bit_mode;
      }
      else if (flash->device_width == 4)
 1004384:	00800104 	movi	r2,4
 1004388:	28802526 	beq	r5,r2,1004420 <alt_set_flash_width_func+0xd8>
    }
  }

  if (!ret_code)
  {
    switch(flash->device_width)
 100438c:	00800084 	movi	r2,2
 1004390:	28801226 	beq	r5,r2,10043dc <alt_set_flash_width_func+0x94>
 1004394:	00800104 	movi	r2,4
 1004398:	28802526 	beq	r5,r2,1004430 <alt_set_flash_width_func+0xe8>
 100439c:	00800044 	movi	r2,1
 10043a0:	28bff01e 	bne	r5,r2,1004364 <alt_set_flash_width_func+0x1c>
    {
      case 1:
      {
        flash->read_query = alt_read_query_entry_8bit;
 10043a4:	00804034 	movhi	r2,256
 10043a8:	10923904 	addi	r2,r2,18660
 10043ac:	0007883a 	mov	r3,zero
 10043b0:	20803415 	stw	r2,208(r4)
 10043b4:	003fec06 	br	1004368 <alt_set_flash_width_func+0x20>
 10043b8:	21402f17 	ldw	r5,188(r4)

      break;
    }
    case 4:
    {
      flash->write_native = alt_write_native_32bit;
 10043bc:	00804034 	movhi	r2,256
 10043c0:	10924b04 	addi	r2,r2,18732
 10043c4:	20803515 	stw	r2,212(r4)
      flash->write_command = alt_write_flash_command_32bit_device_32bit_mode;
 10043c8:	00c04034 	movhi	r3,256
 10043cc:	18d24d04 	addi	r3,r3,18740
    }
  }

  if (!ret_code)
  {
    switch(flash->device_width)
 10043d0:	00800084 	movi	r2,2
      break;
    }
    case 4:
    {
      flash->write_native = alt_write_native_32bit;
      flash->write_command = alt_write_flash_command_32bit_device_32bit_mode;
 10043d4:	20c03315 	stw	r3,204(r4)
    }
  }

  if (!ret_code)
  {
    switch(flash->device_width)
 10043d8:	28bfee1e 	bne	r5,r2,1004394 <alt_set_flash_width_func+0x4c>
        flash->read_query = alt_read_query_entry_8bit;
        break;
      }
      case 2:
      {
        flash->read_query = alt_read_query_entry_16bit;
 10043dc:	0007883a 	mov	r3,zero
 10043e0:	00804034 	movhi	r2,256
 10043e4:	10923e04 	addi	r2,r2,18680
 10043e8:	20803415 	stw	r2,208(r4)
      }
    }
  }

  return ret_code;
}
 10043ec:	1805883a 	mov	r2,r3
 10043f0:	f800283a 	ret
  {
    case 1:
    {
      flash->write_native = alt_write_native_8bit;

      if (flash->device_width == 1)
 10043f4:	21402f17 	ldw	r5,188(r4)
  
  switch(flash->mode_width)
  {
    case 1:
    {
      flash->write_native = alt_write_native_8bit;
 10043f8:	00804034 	movhi	r2,256
 10043fc:	10926104 	addi	r2,r2,18820
 1004400:	20803515 	stw	r2,212(r4)

      if (flash->device_width == 1)
 1004404:	28c01426 	beq	r5,r3,1004458 <alt_set_flash_width_func+0x110>
      {
        flash->write_command = alt_write_flash_command_8bit_device_8bit_mode;
      }
      else if (flash->device_width == 2)
 1004408:	29801726 	beq	r5,r6,1004468 <alt_set_flash_width_func+0x120>
      {
        flash->write_command = alt_write_flash_command_16bit_device_8bit_mode;
      }
      else if (flash->device_width == 4)
 100440c:	29ffdf1e 	bne	r5,r7,100438c <alt_set_flash_width_func+0x44>
      {
        flash->write_command = alt_write_flash_command_32bit_device_8bit_mode;
 1004410:	00804034 	movhi	r2,256
 1004414:	10926404 	addi	r2,r2,18832
 1004418:	20803315 	stw	r2,204(r4)
 100441c:	003fdb06 	br	100438c <alt_set_flash_width_func+0x44>
      {
        flash->write_command = alt_write_flash_command_16bit_device_16bit_mode;
      }
      else if (flash->device_width == 4)
      {
        flash->write_command = alt_write_flash_command_32bit_device_16bit_mode;
 1004420:	00804034 	movhi	r2,256
 1004424:	10925604 	addi	r2,r2,18776
 1004428:	20803315 	stw	r2,204(r4)
 100442c:	003fd706 	br	100438c <alt_set_flash_width_func+0x44>
        flash->read_query = alt_read_query_entry_16bit;
        break;
      }
      case 4:
      {
        flash->read_query = alt_read_query_entry_32bit;
 1004430:	0007883a 	mov	r3,zero
 1004434:	00804034 	movhi	r2,256
 1004438:	10924404 	addi	r2,r2,18704
 100443c:	20803415 	stw	r2,208(r4)
      }
    }
  }

  return ret_code;
}
 1004440:	1805883a 	mov	r2,r3
 1004444:	f800283a 	ret
    {
      flash->write_native = alt_write_native_16bit;

      if (flash->device_width == 2)
      {
        flash->write_command = alt_write_flash_command_16bit_device_16bit_mode;
 1004448:	00804034 	movhi	r2,256
 100444c:	10925c04 	addi	r2,r2,18800
 1004450:	20803315 	stw	r2,204(r4)
 1004454:	003fcd06 	br	100438c <alt_set_flash_width_func+0x44>
    {
      flash->write_native = alt_write_native_8bit;

      if (flash->device_width == 1)
      {
        flash->write_command = alt_write_flash_command_8bit_device_8bit_mode;
 1004458:	00804034 	movhi	r2,256
 100445c:	10927404 	addi	r2,r2,18896
 1004460:	20803315 	stw	r2,204(r4)
 1004464:	003fc906 	br	100438c <alt_set_flash_width_func+0x44>
      }
      else if (flash->device_width == 2)
      {
        flash->write_command = alt_write_flash_command_16bit_device_8bit_mode;
 1004468:	00804034 	movhi	r2,256
 100446c:	10926a04 	addi	r2,r2,18856
 1004470:	20803315 	stw	r2,204(r4)
 1004474:	003fc506 	br	100438c <alt_set_flash_width_func+0x44>

01004478 <alt_set_flash_algorithm_func>:
 */
int alt_set_flash_algorithm_func( alt_flash_cfi_dev* flash)
{
  int ret_code = 0;
 
  switch(flash->algorithm)
 1004478:	20c02d17 	ldw	r3,180(r4)
 100447c:	00800084 	movi	r2,2
  {
    case CFI_ALG_AMD:
    {
      flash->dev.erase_block = alt_erase_block_amd;
      flash->dev.write_block = alt_program_amd;
 1004480:	000b883a 	mov	r5,zero
 */
int alt_set_flash_algorithm_func( alt_flash_cfi_dev* flash)
{
  int ret_code = 0;
 
  switch(flash->algorithm)
 1004484:	18801026 	beq	r3,r2,10044c8 <alt_set_flash_algorithm_func+0x50>
 1004488:	008000c4 	movi	r2,3
 100448c:	18800526 	beq	r3,r2,10044a4 <alt_set_flash_algorithm_func+0x2c>
 1004490:	00800044 	movi	r2,1
 1004494:	017ffec4 	movi	r5,-5
 1004498:	18800226 	beq	r3,r2,10044a4 <alt_set_flash_algorithm_func+0x2c>
    {
      ret_code = -EIO;
    }
  } 
  return ret_code;  
}
 100449c:	2805883a 	mov	r2,r5
 10044a0:	f800283a 	ret
    }
    case CFI_ALG_INTEL:
    case CFI_ALG_INTEL_STRATA:
    {
      flash->dev.erase_block = alt_erase_block_intel;
      flash->dev.write_block = alt_program_intel;
 10044a4:	00804034 	movhi	r2,256
 10044a8:	109e3a04 	addi	r2,r2,30952
 10044ac:	000b883a 	mov	r5,zero
 10044b0:	20800915 	stw	r2,36(r4)
      break;
    }
    case CFI_ALG_INTEL:
    case CFI_ALG_INTEL_STRATA:
    {
      flash->dev.erase_block = alt_erase_block_intel;
 10044b4:	00c04034 	movhi	r3,256
 10044b8:	18ddf904 	addi	r3,r3,30692
    {
      ret_code = -EIO;
    }
  } 
  return ret_code;  
}
 10044bc:	2805883a 	mov	r2,r5
      break;
    }
    case CFI_ALG_INTEL:
    case CFI_ALG_INTEL_STRATA:
    {
      flash->dev.erase_block = alt_erase_block_intel;
 10044c0:	20c00815 	stw	r3,32(r4)
    {
      ret_code = -EIO;
    }
  } 
  return ret_code;  
}
 10044c4:	f800283a 	ret
  switch(flash->algorithm)
  {
    case CFI_ALG_AMD:
    {
      flash->dev.erase_block = alt_erase_block_amd;
      flash->dev.write_block = alt_program_amd;
 10044c8:	00804034 	movhi	r2,256
 10044cc:	109d5b04 	addi	r2,r2,30060
 10044d0:	20800915 	stw	r2,36(r4)
 
  switch(flash->algorithm)
  {
    case CFI_ALG_AMD:
    {
      flash->dev.erase_block = alt_erase_block_amd;
 10044d4:	00c04034 	movhi	r3,256
 10044d8:	18dcfc04 	addi	r3,r3,29680
    {
      ret_code = -EIO;
    }
  } 
  return ret_code;  
}
 10044dc:	2805883a 	mov	r2,r5
 
  switch(flash->algorithm)
  {
    case CFI_ALG_AMD:
    {
      flash->dev.erase_block = alt_erase_block_amd;
 10044e0:	20c00815 	stw	r3,32(r4)
    {
      ret_code = -EIO;
    }
  } 
  return ret_code;  
}
 10044e4:	f800283a 	ret

010044e8 <alt_read_16bit_query_entry>:
 */
static alt_u16 alt_read_16bit_query_entry(alt_flash_cfi_dev* flash, int address)
{
  alt_u16 ret_code;

  ret_code = (*flash->read_query)( flash, address);
 10044e8:	20c03417 	ldw	r3,208(r4)
 * read_16bit_query_entry
 * 
 * Read a 16 bit entry from the CFI Query table
 */
static alt_u16 alt_read_16bit_query_entry(alt_flash_cfi_dev* flash, int address)
{
 10044ec:	defffc04 	addi	sp,sp,-16
 10044f0:	dfc00315 	stw	ra,12(sp)
 10044f4:	dd000215 	stw	r20,8(sp)
 10044f8:	dcc00115 	stw	r19,4(sp)
 10044fc:	dc400015 	stw	r17,0(sp)
 1004500:	2023883a 	mov	r17,r4
 1004504:	2829883a 	mov	r20,r5
  alt_u16 ret_code;

  ret_code = (*flash->read_query)( flash, address);
 1004508:	183ee83a 	callr	r3
  ret_code |= (((int)(*flash->read_query)(flash, address+1)) << 8);                   
 100450c:	88c03417 	ldw	r3,208(r17)
 1004510:	8809883a 	mov	r4,r17
 1004514:	a1400044 	addi	r5,r20,1
 */
static alt_u16 alt_read_16bit_query_entry(alt_flash_cfi_dev* flash, int address)
{
  alt_u16 ret_code;

  ret_code = (*flash->read_query)( flash, address);
 1004518:	1027883a 	mov	r19,r2
  ret_code |= (((int)(*flash->read_query)(flash, address+1)) << 8);                   
 100451c:	183ee83a 	callr	r3
 1004520:	10803fcc 	andi	r2,r2,255
 1004524:	1004923a 	slli	r2,r2,8
 1004528:	9cc03fcc 	andi	r19,r19,255

  return ret_code;
}
 100452c:	9884b03a 	or	r2,r19,r2
 1004530:	dfc00317 	ldw	ra,12(sp)
 1004534:	dd000217 	ldw	r20,8(sp)
 1004538:	dcc00117 	ldw	r19,4(sp)
 100453c:	dc400017 	ldw	r17,0(sp)
 1004540:	dec00404 	addi	sp,sp,16
 1004544:	f800283a 	ret

01004548 <alt_check_primary_table>:
 * 
 * Check that the primary Vendor table starts with the 
 * correct pattern
 */
int alt_check_primary_table(alt_flash_cfi_dev* flash)
{
 1004548:	defffb04 	addi	sp,sp,-20
  int i;
  int ret_code = 0;
  alt_u8 primary_query_string[3];
  
  flash->primary_address = alt_read_16bit_query_entry( flash, 
 100454c:	01400544 	movi	r5,21
 * 
 * Check that the primary Vendor table starts with the 
 * correct pattern
 */
int alt_check_primary_table(alt_flash_cfi_dev* flash)
{
 1004550:	dc800315 	stw	r18,12(sp)
 1004554:	dc400215 	stw	r17,8(sp)
 1004558:	dc000115 	stw	r16,4(sp)
 100455c:	dfc00415 	stw	ra,16(sp)
 1004560:	2021883a 	mov	r16,r4
  int i;
  int ret_code = 0;
  alt_u8 primary_query_string[3];
  
  flash->primary_address = alt_read_16bit_query_entry( flash, 
 1004564:	10044e80 	call	10044e8 <alt_read_16bit_query_entry>
 1004568:	10bfffcc 	andi	r2,r2,65535
 100456c:	80803215 	stw	r2,200(r16)
 1004570:	0023883a 	mov	r17,zero
 1004574:	048000c4 	movi	r18,3
                            PRIMARY_ADDR);
  
  for(i=0;i<3;i++)
  {
    primary_query_string[i] = 
 1004578:	81403217 	ldw	r5,200(r16)
 100457c:	81803417 	ldw	r6,208(r16)
 1004580:	8009883a 	mov	r4,r16
 1004584:	894b883a 	add	r5,r17,r5
 1004588:	303ee83a 	callr	r6
 100458c:	dc47883a 	add	r3,sp,r17
  alt_u8 primary_query_string[3];
  
  flash->primary_address = alt_read_16bit_query_entry( flash, 
                            PRIMARY_ADDR);
  
  for(i=0;i<3;i++)
 1004590:	8c400044 	addi	r17,r17,1
  {
    primary_query_string[i] = 
 1004594:	18800005 	stb	r2,0(r3)
  alt_u8 primary_query_string[3];
  
  flash->primary_address = alt_read_16bit_query_entry( flash, 
                            PRIMARY_ADDR);
  
  for(i=0;i<3;i++)
 1004598:	8cbff71e 	bne	r17,r18,1004578 <alt_check_primary_table+0x30>
  {
    primary_query_string[i] = 
          (*flash->read_query)( flash,(flash->primary_address + i));
  }
    
  if ((primary_query_string[0] != 'P') ||
 100459c:	d8c00003 	ldbu	r3,0(sp)
 10045a0:	00801404 	movi	r2,80
 10045a4:	1880031e 	bne	r3,r2,10045b4 <alt_check_primary_table+0x6c>
 10045a8:	d8c00043 	ldbu	r3,1(sp)
 10045ac:	00801484 	movi	r2,82
 10045b0:	18800726 	beq	r3,r2,10045d0 <alt_check_primary_table+0x88>
 10045b4:	00bffb44 	movi	r2,-19
  {
    ret_code = -ENODEV;
  }
  
  return ret_code;
}
 10045b8:	dfc00417 	ldw	ra,16(sp)
 10045bc:	dc800317 	ldw	r18,12(sp)
 10045c0:	dc400217 	ldw	r17,8(sp)
 10045c4:	dc000117 	ldw	r16,4(sp)
 10045c8:	dec00504 	addi	sp,sp,20
 10045cc:	f800283a 	ret
  {
    primary_query_string[i] = 
          (*flash->read_query)( flash,(flash->primary_address + i));
  }
    
  if ((primary_query_string[0] != 'P') ||
 10045d0:	d8c00083 	ldbu	r3,2(sp)
 10045d4:	00801244 	movi	r2,73
 10045d8:	18bff61e 	bne	r3,r2,10045b4 <alt_check_primary_table+0x6c>
 10045dc:	0005883a 	mov	r2,zero
 10045e0:	003ff506 	br	10045b8 <alt_check_primary_table+0x70>

010045e4 <alt_read_cfi_table>:
 * read_cfi_table
 * 
 * Read the CFI Table
 */
int alt_read_cfi_table(alt_flash_cfi_dev* flash)
{
 10045e4:	defff804 	addi	sp,sp,-32
 10045e8:	dc800215 	stw	r18,8(sp)
 10045ec:	dc000015 	stw	r16,0(sp)
 10045f0:	dfc00715 	stw	ra,28(sp)
 10045f4:	dd800615 	stw	r22,24(sp)
 10045f8:	dd400515 	stw	r21,20(sp)
 10045fc:	dd000415 	stw	r20,16(sp)
 1004600:	dcc00315 	stw	r19,12(sp)
 1004604:	dc400115 	stw	r17,4(sp)
 1004608:	2021883a 	mov	r16,r4
   
  /*
  * Check that the Primary Vendor Specific table
  * starts with the letters PRI                                                         
  */
  ret_code = alt_check_primary_table(flash);
 100460c:	10045480 	call	1004548 <alt_check_primary_table>
 1004610:	1025883a 	mov	r18,r2

  if (!ret_code)
 1004614:	10000b26 	beq	r2,zero,1004644 <alt_read_cfi_table+0x60>
      }
    } 
  }  

  return ret_code;
}
 1004618:	9005883a 	mov	r2,r18
 100461c:	dfc00717 	ldw	ra,28(sp)
 1004620:	dd800617 	ldw	r22,24(sp)
 1004624:	dd400517 	ldw	r21,20(sp)
 1004628:	dd000417 	ldw	r20,16(sp)
 100462c:	dcc00317 	ldw	r19,12(sp)
 1004630:	dc800217 	ldw	r18,8(sp)
 1004634:	dc400117 	ldw	r17,4(sp)
 1004638:	dc000017 	ldw	r16,0(sp)
 100463c:	dec00804 	addi	sp,sp,32
 1004640:	f800283a 	ret
  */
  ret_code = alt_check_primary_table(flash);

  if (!ret_code)
  {
    flash->algorithm = (*flash->read_query)(flash, 0x13);
 1004644:	80c03417 	ldw	r3,208(r16)
 1004648:	8009883a 	mov	r4,r16
 100464c:	014004c4 	movi	r5,19
 1004650:	183ee83a 	callr	r3
  
    /* 
     * Let's read the write timeout values from the flash 
     * 
     */
    typical_timeout = (*flash->read_query)( flash, 0x1f);
 1004654:	81803417 	ldw	r6,208(r16)
  */
  ret_code = alt_check_primary_table(flash);

  if (!ret_code)
  {
    flash->algorithm = (*flash->read_query)(flash, 0x13);
 1004658:	10803fcc 	andi	r2,r2,255
  
    /* 
     * Let's read the write timeout values from the flash 
     * 
     */
    typical_timeout = (*flash->read_query)( flash, 0x1f);
 100465c:	8009883a 	mov	r4,r16
 1004660:	014007c4 	movi	r5,31
  */
  ret_code = alt_check_primary_table(flash);

  if (!ret_code)
  {
    flash->algorithm = (*flash->read_query)(flash, 0x13);
 1004664:	80802d15 	stw	r2,180(r16)
  
    /* 
     * Let's read the write timeout values from the flash 
     * 
     */
    typical_timeout = (*flash->read_query)( flash, 0x1f);
 1004668:	303ee83a 	callr	r6
    max_timeout = (*flash->read_query)( flash, 0x23);
 100466c:	80c03417 	ldw	r3,208(r16)
  
    /* 
     * Let's read the write timeout values from the flash 
     * 
     */
    typical_timeout = (*flash->read_query)( flash, 0x1f);
 1004670:	1023883a 	mov	r17,r2
    max_timeout = (*flash->read_query)( flash, 0x23);
 1004674:	8009883a 	mov	r4,r16
 1004678:	014008c4 	movi	r5,35
    
    if ((typical_timeout == 0 ) || (max_timeout == 0))
 100467c:	8c403fcc 	andi	r17,r17,255
    /* 
     * Let's read the write timeout values from the flash 
     * 
     */
    typical_timeout = (*flash->read_query)( flash, 0x1f);
    max_timeout = (*flash->read_query)( flash, 0x23);
 1004680:	183ee83a 	callr	r3
    
    if ((typical_timeout == 0 ) || (max_timeout == 0))
 1004684:	88006226 	beq	r17,zero,1004810 <alt_read_cfi_table+0x22c>
 1004688:	10c03fcc 	andi	r3,r2,255
 100468c:	18006026 	beq	r3,zero,1004810 <alt_read_cfi_table+0x22c>
    {
      flash->write_timeout = 1000; /* 1ms should be more than enough */
    }
    else
    {
      flash->write_timeout = (1 << typical_timeout) * (1 << max_timeout);
 1004690:	00800044 	movi	r2,1
 1004694:	1444983a 	sll	r2,r2,r17
 1004698:	10c4983a 	sll	r2,r2,r3
 100469c:	80803015 	stw	r2,192(r16)
    }
   
    /* Let's read the block erase timeout values from the flash */
    typical_timeout = (*flash->read_query)( flash, 0x21);
 10046a0:	80c03417 	ldw	r3,208(r16)
 10046a4:	8009883a 	mov	r4,r16
 10046a8:	01400844 	movi	r5,33
 10046ac:	183ee83a 	callr	r3
    max_timeout = (*flash->read_query)( flash, 0x25);
 10046b0:	80c03417 	ldw	r3,208(r16)
    {
      flash->write_timeout = (1 << typical_timeout) * (1 << max_timeout);
    }
   
    /* Let's read the block erase timeout values from the flash */
    typical_timeout = (*flash->read_query)( flash, 0x21);
 10046b4:	1023883a 	mov	r17,r2
    max_timeout = (*flash->read_query)( flash, 0x25);
 10046b8:	8009883a 	mov	r4,r16
 10046bc:	01400944 	movi	r5,37
    
    if ((typical_timeout == 0 ) || (max_timeout == 0))
 10046c0:	8c403fcc 	andi	r17,r17,255
      flash->write_timeout = (1 << typical_timeout) * (1 << max_timeout);
    }
   
    /* Let's read the block erase timeout values from the flash */
    typical_timeout = (*flash->read_query)( flash, 0x21);
    max_timeout = (*flash->read_query)( flash, 0x25);
 10046c4:	183ee83a 	callr	r3
    
    if ((typical_timeout == 0 ) || (max_timeout == 0))
 10046c8:	88005426 	beq	r17,zero,100481c <alt_read_cfi_table+0x238>
 10046cc:	10803fcc 	andi	r2,r2,255
 10046d0:	10005226 	beq	r2,zero,100481c <alt_read_cfi_table+0x238>
    {
      flash->erase_timeout = 20000000; /* 20s should be more than enough */
    }
    else
    {
      flash->erase_timeout = (1 << typical_timeout) * (1 << max_timeout) * 1000;
 10046d4:	01000044 	movi	r4,1
 10046d8:	2448983a 	sll	r4,r4,r17
 10046dc:	0140fa04 	movi	r5,1000
 10046e0:	2088983a 	sll	r4,r4,r2
 10046e4:	1000cc40 	call	1000cc4 <__mulsi3>
 10046e8:	80803115 	stw	r2,196(r16)
    }
   
    device_size = 0x1 << (*flash->read_query)( flash, 0x27);
 10046ec:	80c03417 	ldw	r3,208(r16)
 10046f0:	8009883a 	mov	r4,r16
 10046f4:	014009c4 	movi	r5,39
 10046f8:	183ee83a 	callr	r3
  
    flash->dev.number_of_regions = (*flash->read_query)(flash, 0x2c);
 10046fc:	80c03417 	ldw	r3,208(r16)
 1004700:	8009883a 	mov	r4,r16
 1004704:	01400b04 	movi	r5,44
    else
    {
      flash->erase_timeout = (1 << typical_timeout) * (1 << max_timeout) * 1000;
    }
   
    device_size = 0x1 << (*flash->read_query)( flash, 0x27);
 1004708:	102d883a 	mov	r22,r2
  
    flash->dev.number_of_regions = (*flash->read_query)(flash, 0x2c);
 100470c:	183ee83a 	callr	r3
 1004710:	10c03fcc 	andi	r3,r2,255
    
    if (flash->dev.number_of_regions > ALT_MAX_NUMBER_OF_FLASH_REGIONS)
 1004714:	00800204 	movi	r2,8
      flash->erase_timeout = (1 << typical_timeout) * (1 << max_timeout) * 1000;
    }
   
    device_size = 0x1 << (*flash->read_query)( flash, 0x27);
  
    flash->dev.number_of_regions = (*flash->read_query)(flash, 0x2c);
 1004718:	80c00c15 	stw	r3,48(r16)
    
    if (flash->dev.number_of_regions > ALT_MAX_NUMBER_OF_FLASH_REGIONS)
 100471c:	10c0430e 	bge	r2,r3,100482c <alt_read_cfi_table+0x248>
 1004720:	04bffd04 	movi	r18,-12
      {
        ret_code = -ENODEV;
      }
    }
    
    boot_mode = (*flash->read_query)( flash, flash->primary_address + 0xf);
 1004724:	81403217 	ldw	r5,200(r16)
 1004728:	80c03417 	ldw	r3,208(r16)
 100472c:	8009883a 	mov	r4,r16
 1004730:	294003c4 	addi	r5,r5,15
 1004734:	183ee83a 	callr	r3
     * Intel Flash parts describe the sections in the order they appear
     * for AMD they just put all the small ones first then the bigger ones
     * So if it's a top boot part we have to reverse the order of the sectors
     * so they're in the correct order
     */
    if ((flash->algorithm == CFI_ALG_AMD) && (boot_mode == TOP_BOOT_DEVICE))
 1004738:	80c02d17 	ldw	r3,180(r16)
      {
        ret_code = -ENODEV;
      }
    }
    
    boot_mode = (*flash->read_query)( flash, flash->primary_address + 0xf);
 100473c:	1009883a 	mov	r4,r2
     * Intel Flash parts describe the sections in the order they appear
     * for AMD they just put all the small ones first then the bigger ones
     * So if it's a top boot part we have to reverse the order of the sectors
     * so they're in the correct order
     */
    if ((flash->algorithm == CFI_ALG_AMD) && (boot_mode == TOP_BOOT_DEVICE))
 1004740:	00800084 	movi	r2,2
 1004744:	18801526 	beq	r3,r2,100479c <alt_read_cfi_table+0x1b8>
 1004748:	80c00c17 	ldw	r3,48(r16)
        flash->dev.region_info[j].number_of_blocks = swap;

      } 
    }
    
    for(i=0;i<flash->dev.number_of_regions;i++)
 100474c:	00c00a0e 	bge	zero,r3,1004778 <alt_read_cfi_table+0x194>
 1004750:	8009883a 	mov	r4,r16
 1004754:	000d883a 	mov	r6,zero
 1004758:	000b883a 	mov	r5,zero
    {
      flash->dev.region_info[i].offset = offset;
 100475c:	21400d15 	stw	r5,52(r4)
      offset += flash->dev.region_info[i].region_size;
 1004760:	20800e17 	ldw	r2,56(r4)
        flash->dev.region_info[j].number_of_blocks = swap;

      } 
    }
    
    for(i=0;i<flash->dev.number_of_regions;i++)
 1004764:	80c00c17 	ldw	r3,48(r16)
 1004768:	31800044 	addi	r6,r6,1
    {
      flash->dev.region_info[i].offset = offset;
      offset += flash->dev.region_info[i].region_size;
 100476c:	288b883a 	add	r5,r5,r2
        flash->dev.region_info[j].number_of_blocks = swap;

      } 
    }
    
    for(i=0;i<flash->dev.number_of_regions;i++)
 1004770:	21000404 	addi	r4,r4,16
 1004774:	30fff916 	blt	r6,r3,100475c <alt_read_cfi_table+0x178>
    {
      flash->dev.region_info[i].offset = offset;
      offset += flash->dev.region_info[i].region_size;
    }

    switch(flash->algorithm)
 1004778:	80c02d17 	ldw	r3,180(r16)
 100477c:	00800084 	movi	r2,2
 1004780:	18805026 	beq	r3,r2,10048c4 <alt_read_cfi_table+0x2e0>
 1004784:	008000c4 	movi	r2,3
 1004788:	18804826 	beq	r3,r2,10048ac <alt_read_cfi_table+0x2c8>
 100478c:	00800044 	movi	r2,1
 1004790:	18804626 	beq	r3,r2,10048ac <alt_read_cfi_table+0x2c8>
 1004794:	04bffec4 	movi	r18,-5
 1004798:	003f9f06 	br	1004618 <alt_read_cfi_table+0x34>
     * Intel Flash parts describe the sections in the order they appear
     * for AMD they just put all the small ones first then the bigger ones
     * So if it's a top boot part we have to reverse the order of the sectors
     * so they're in the correct order
     */
    if ((flash->algorithm == CFI_ALG_AMD) && (boot_mode == TOP_BOOT_DEVICE))
 100479c:	20c03fcc 	andi	r3,r4,255
 10047a0:	008000c4 	movi	r2,3
 10047a4:	18bfe81e 	bne	r3,r2,1004748 <alt_read_cfi_table+0x164>
    {
      for(i=flash->dev.number_of_regions-1, j=0;
 10047a8:	80c00c17 	ldw	r3,48(r16)
 10047ac:	1abfffc4 	addi	r10,r3,-1
          j<=i;i--,j++)
 10047b0:	503fe616 	blt	r10,zero,100474c <alt_read_cfi_table+0x168>
 10047b4:	5004913a 	slli	r2,r10,4
 10047b8:	8013883a 	mov	r9,r16
 10047bc:	0017883a 	mov	r11,zero
 10047c0:	1411883a 	add	r8,r2,r16
      {
        swap = flash->dev.region_info[i].region_size;
        flash->dev.region_info[i].region_size =  
 10047c4:	48800e17 	ldw	r2,56(r9)
                                flash->dev.region_info[j].region_size;
        flash->dev.region_info[j].region_size = swap;

        swap = flash->dev.region_info[i].block_size;
        flash->dev.region_info[i].block_size =  
 10047c8:	48c01017 	ldw	r3,64(r9)
                                flash->dev.region_info[j].block_size;
        flash->dev.region_info[j].block_size = swap;
 
        swap = flash->dev.region_info[i].number_of_blocks;
        flash->dev.region_info[i].number_of_blocks =  
 10047cc:	49000f17 	ldw	r4,60(r9)
    if ((flash->algorithm == CFI_ALG_AMD) && (boot_mode == TOP_BOOT_DEVICE))
    {
      for(i=flash->dev.number_of_regions-1, j=0;
          j<=i;i--,j++)
      {
        swap = flash->dev.region_info[i].region_size;
 10047d0:	41400e17 	ldw	r5,56(r8)
        flash->dev.region_info[i].region_size =  
                                flash->dev.region_info[j].region_size;
        flash->dev.region_info[j].region_size = swap;

        swap = flash->dev.region_info[i].block_size;
 10047d4:	41801017 	ldw	r6,64(r8)
        flash->dev.region_info[i].block_size =  
                                flash->dev.region_info[j].block_size;
        flash->dev.region_info[j].block_size = swap;
 
        swap = flash->dev.region_info[i].number_of_blocks;
 10047d8:	41c00f17 	ldw	r7,60(r8)
    {
      for(i=flash->dev.number_of_regions-1, j=0;
          j<=i;i--,j++)
      {
        swap = flash->dev.region_info[i].region_size;
        flash->dev.region_info[i].region_size =  
 10047dc:	40800e15 	stw	r2,56(r8)
                                flash->dev.region_info[j].region_size;
        flash->dev.region_info[j].region_size = swap;

        swap = flash->dev.region_info[i].block_size;
        flash->dev.region_info[i].block_size =  
 10047e0:	40c01015 	stw	r3,64(r8)
                                flash->dev.region_info[j].block_size;
        flash->dev.region_info[j].block_size = swap;
 
        swap = flash->dev.region_info[i].number_of_blocks;
        flash->dev.region_info[i].number_of_blocks =  
 10047e4:	41000f15 	stw	r4,60(r8)
     * so they're in the correct order
     */
    if ((flash->algorithm == CFI_ALG_AMD) && (boot_mode == TOP_BOOT_DEVICE))
    {
      for(i=flash->dev.number_of_regions-1, j=0;
          j<=i;i--,j++)
 10047e8:	52bfffc4 	addi	r10,r10,-1
 10047ec:	5ac00044 	addi	r11,r11,1
      {
        swap = flash->dev.region_info[i].region_size;
        flash->dev.region_info[i].region_size =  
                                flash->dev.region_info[j].region_size;
        flash->dev.region_info[j].region_size = swap;
 10047f0:	49400e15 	stw	r5,56(r9)

        swap = flash->dev.region_info[i].block_size;
        flash->dev.region_info[i].block_size =  
                                flash->dev.region_info[j].block_size;
        flash->dev.region_info[j].block_size = swap;
 10047f4:	49801015 	stw	r6,64(r9)
 
        swap = flash->dev.region_info[i].number_of_blocks;
        flash->dev.region_info[i].number_of_blocks =  
                                flash->dev.region_info[j].number_of_blocks;
        flash->dev.region_info[j].number_of_blocks = swap;
 10047f8:	49c00f15 	stw	r7,60(r9)
     * so they're in the correct order
     */
    if ((flash->algorithm == CFI_ALG_AMD) && (boot_mode == TOP_BOOT_DEVICE))
    {
      for(i=flash->dev.number_of_regions-1, j=0;
          j<=i;i--,j++)
 10047fc:	423ffc04 	addi	r8,r8,-16
 1004800:	4a400404 	addi	r9,r9,16
 1004804:	52ffef0e 	bge	r10,r11,10047c4 <alt_read_cfi_table+0x1e0>
 1004808:	80c00c17 	ldw	r3,48(r16)
 100480c:	003fcf06 	br	100474c <alt_read_cfi_table+0x168>
    typical_timeout = (*flash->read_query)( flash, 0x1f);
    max_timeout = (*flash->read_query)( flash, 0x23);
    
    if ((typical_timeout == 0 ) || (max_timeout == 0))
    {
      flash->write_timeout = 1000; /* 1ms should be more than enough */
 1004810:	0080fa04 	movi	r2,1000
 1004814:	80803015 	stw	r2,192(r16)
 1004818:	003fa106 	br	10046a0 <alt_read_cfi_table+0xbc>
    typical_timeout = (*flash->read_query)( flash, 0x21);
    max_timeout = (*flash->read_query)( flash, 0x25);
    
    if ((typical_timeout == 0 ) || (max_timeout == 0))
    {
      flash->erase_timeout = 20000000; /* 20s should be more than enough */
 100481c:	00804c74 	movhi	r2,305
 1004820:	108b4004 	addi	r2,r2,11520
 1004824:	80803115 	stw	r2,196(r16)
 1004828:	003fb006 	br	10046ec <alt_read_cfi_table+0x108>
    {
      ret_code = -ENOMEM;
    }
    else
    {
      for(i=0;i<flash->dev.number_of_regions;i++)
 100482c:	00c02b0e 	bge	zero,r3,10048dc <alt_read_cfi_table+0x2f8>
 1004830:	8023883a 	mov	r17,r16
 1004834:	0029883a 	mov	r20,zero
 1004838:	002b883a 	mov	r21,zero
 100483c:	04c00b44 	movi	r19,45
      {
        flash->dev.region_info[i].number_of_blocks =  alt_read_16bit_query_entry( 
 1004840:	980b883a 	mov	r5,r19
 1004844:	8009883a 	mov	r4,r16
 1004848:	10044e80 	call	10044e8 <alt_read_16bit_query_entry>
                                                            flash,
                                                            (0x2D+i*4));
        flash->dev.region_info[i].number_of_blocks += 1; 
 100484c:	10bfffcc 	andi	r2,r2,65535
 1004850:	10800044 	addi	r2,r2,1
        flash->dev.region_info[i].block_size =  alt_read_16bit_query_entry( flash, 
 1004854:	99400084 	addi	r5,r19,2
      for(i=0;i<flash->dev.number_of_regions;i++)
      {
        flash->dev.region_info[i].number_of_blocks =  alt_read_16bit_query_entry( 
                                                            flash,
                                                            (0x2D+i*4));
        flash->dev.region_info[i].number_of_blocks += 1; 
 1004858:	88800f15 	stw	r2,60(r17)
        flash->dev.region_info[i].block_size =  alt_read_16bit_query_entry( flash, 
 100485c:	8009883a 	mov	r4,r16
 1004860:	10044e80 	call	10044e8 <alt_read_16bit_query_entry>
 1004864:	113fffcc 	andi	r4,r2,65535
                                                              (0x2F+i*4));
        flash->dev.region_info[i].block_size *= 256;
 1004868:	2008923a 	slli	r4,r4,8
        flash->dev.region_info[i].region_size = 
 100486c:	89400f17 	ldw	r5,60(r17)
    {
      ret_code = -ENOMEM;
    }
    else
    {
      for(i=0;i<flash->dev.number_of_regions;i++)
 1004870:	a5000044 	addi	r20,r20,1
                                                            flash,
                                                            (0x2D+i*4));
        flash->dev.region_info[i].number_of_blocks += 1; 
        flash->dev.region_info[i].block_size =  alt_read_16bit_query_entry( flash, 
                                                              (0x2F+i*4));
        flash->dev.region_info[i].block_size *= 256;
 1004874:	89001015 	stw	r4,64(r17)
        flash->dev.region_info[i].region_size = 
 1004878:	1000cc40 	call	1000cc4 <__mulsi3>
 100487c:	88800e15 	stw	r2,56(r17)
    {
      ret_code = -ENOMEM;
    }
    else
    {
      for(i=0;i<flash->dev.number_of_regions;i++)
 1004880:	80c00c17 	ldw	r3,48(r16)
                                                              (0x2F+i*4));
        flash->dev.region_info[i].block_size *= 256;
        flash->dev.region_info[i].region_size = 
                                    flash->dev.region_info[i].number_of_blocks 
                                    * flash->dev.region_info[i].block_size;
        size += flash->dev.region_info[i].region_size;
 1004884:	a8ab883a 	add	r21,r21,r2
    {
      ret_code = -ENOMEM;
    }
    else
    {
      for(i=0;i<flash->dev.number_of_regions;i++)
 1004888:	9cc00104 	addi	r19,r19,4
 100488c:	8c400404 	addi	r17,r17,16
 1004890:	a0ffeb16 	blt	r20,r3,1004840 <alt_read_cfi_table+0x25c>
                                    flash->dev.region_info[i].number_of_blocks 
                                    * flash->dev.region_info[i].block_size;
        size += flash->dev.region_info[i].region_size;
      }
       
      if (size != device_size)
 1004894:	b0c03fcc 	andi	r3,r22,255
 1004898:	00800044 	movi	r2,1
 100489c:	10c4983a 	sll	r2,r2,r3
 10048a0:	157fa026 	beq	r2,r21,1004724 <alt_read_cfi_table+0x140>
 10048a4:	04bffb44 	movi	r18,-19
 10048a8:	003f9e06 	br	1004724 <alt_read_cfi_table+0x140>
        break;
      }
      case CFI_ALG_INTEL:
      case CFI_ALG_INTEL_STRATA:
      {
        (*flash->write_command)(flash->dev.base_addr, 
 10048ac:	81000a17 	ldw	r4,40(r16)
 10048b0:	80803317 	ldw	r2,204(r16)
 10048b4:	01401544 	movi	r5,85
 10048b8:	01803fc4 	movi	r6,255
 10048bc:	103ee83a 	callr	r2
 10048c0:	003f5506 	br	1004618 <alt_read_cfi_table+0x34>

    switch(flash->algorithm)
    {
      case CFI_ALG_AMD:
      {
        (*flash->write_command)(flash->dev.base_addr, 
 10048c4:	81000a17 	ldw	r4,40(r16)
 10048c8:	80803317 	ldw	r2,204(r16)
 10048cc:	01401544 	movi	r5,85
 10048d0:	01803c04 	movi	r6,240
 10048d4:	103ee83a 	callr	r2
 10048d8:	003f4f06 	br	1004618 <alt_read_cfi_table+0x34>
    {
      ret_code = -ENOMEM;
    }
    else
    {
      for(i=0;i<flash->dev.number_of_regions;i++)
 10048dc:	002b883a 	mov	r21,zero
 10048e0:	003fec06 	br	1004894 <alt_read_cfi_table+0x2b0>

010048e4 <alt_read_query_entry_8bit>:
/*
 *  Read an 8 bit value from the CFI query table in flash
 */
alt_u8 alt_read_query_entry_8bit( alt_flash_cfi_dev* flash, int address)
{
  return IORD_8DIRECT((alt_u8*)flash->dev.base_addr, address);
 10048e4:	20800a17 	ldw	r2,40(r4)
 10048e8:	288b883a 	add	r5,r5,r2
 10048ec:	28800023 	ldbuio	r2,0(r5)
}
 10048f0:	10803fcc 	andi	r2,r2,255
 10048f4:	f800283a 	ret

010048f8 <alt_read_query_entry_16bit>:

alt_u8 alt_read_query_entry_16bit( alt_flash_cfi_dev* flash, int address)
{
  return (IORD_16DIRECT((alt_u8*)flash->dev.base_addr, address*2) & 0xff);
 10048f8:	20800a17 	ldw	r2,40(r4)
 10048fc:	294b883a 	add	r5,r5,r5
 1004900:	288b883a 	add	r5,r5,r2
 1004904:	2880002b 	ldhuio	r2,0(r5)
}
 1004908:	10803fcc 	andi	r2,r2,255
 100490c:	f800283a 	ret

01004910 <alt_read_query_entry_32bit>:

alt_u8 alt_read_query_entry_32bit( alt_flash_cfi_dev* flash, int address)
{
  return (IORD_32DIRECT((alt_u8*)flash->dev.base_addr, address*4) & 0xff);
 1004910:	20800a17 	ldw	r2,40(r4)
 1004914:	294b883a 	add	r5,r5,r5
 1004918:	294b883a 	add	r5,r5,r5
 100491c:	288b883a 	add	r5,r5,r2
 1004920:	28800037 	ldwio	r2,0(r5)
}
 1004924:	10803fcc 	andi	r2,r2,255
 1004928:	f800283a 	ret

0100492c <alt_write_native_32bit>:
  return;
}

void alt_write_native_32bit( void* address, alt_u32 value)
{
  IOWR_32DIRECT(address, 0, value);
 100492c:	21400035 	stwio	r5,0(r4)
  return;
}
 1004930:	f800283a 	ret

01004934 <alt_write_flash_command_32bit_device_32bit_mode>:
  return;
}

void alt_write_flash_command_32bit_device_32bit_mode( void* base_addr, int offset, alt_u8 value)
{
  IOWR_32DIRECT(base_addr, offset*4, ((alt_u32)value)& 0x000000ff);
 1004934:	294b883a 	add	r5,r5,r5
 1004938:	294b883a 	add	r5,r5,r5
 100493c:	290b883a 	add	r5,r5,r4
 1004940:	31803fcc 	andi	r6,r6,255
 1004944:	29800035 	stwio	r6,0(r5)
  return;
}
 1004948:	f800283a 	ret

0100494c <alt_write_native_16bit>:
  return;
}

void alt_write_native_16bit( void* address, alt_u32 value)
{
  IOWR_16DIRECT(address, 0, ((alt_u16)value)& 0xffff);
 100494c:	297fffcc 	andi	r5,r5,65535
 1004950:	2140002d 	sthio	r5,0(r4)
  return;
}
 1004954:	f800283a 	ret

01004958 <alt_write_flash_command_32bit_device_16bit_mode>:
  return;
}

void alt_write_flash_command_32bit_device_16bit_mode( void* base_addr, int offset, alt_u8 value)
{
  IOWR_16DIRECT(base_addr, offset*4, ((alt_u16)value)& 0x00ff);
 1004958:	294b883a 	add	r5,r5,r5
 100495c:	294b883a 	add	r5,r5,r5
 1004960:	290b883a 	add	r5,r5,r4
 1004964:	31803fcc 	andi	r6,r6,255
 1004968:	2980002d 	sthio	r6,0(r5)
  return;
}
 100496c:	f800283a 	ret

01004970 <alt_write_flash_command_16bit_device_16bit_mode>:
  return;
}

void alt_write_flash_command_16bit_device_16bit_mode( void* base_addr, int offset, alt_u8 value)
{
  IOWR_16DIRECT(base_addr, offset*2, ((alt_u16)value)& 0x00ff);
 1004970:	294b883a 	add	r5,r5,r5
 1004974:	290b883a 	add	r5,r5,r4
 1004978:	31803fcc 	andi	r6,r6,255
 100497c:	2980002d 	sthio	r6,0(r5)
  return;
}
 1004980:	f800283a 	ret

01004984 <alt_write_native_8bit>:
/*
 * Write the value passed to the flash
 */
void alt_write_native_8bit( void* address, alt_u32 value)
{
  IOWR_8DIRECT(address, 0, (alt_u8)(value&0xff));
 1004984:	29403fcc 	andi	r5,r5,255
 1004988:	21400025 	stbio	r5,0(r4)
  return;
}
 100498c:	f800283a 	ret

01004990 <alt_write_flash_command_32bit_device_8bit_mode>:
  return;
}

void alt_write_flash_command_32bit_device_8bit_mode( void* base_addr, int offset, alt_u8 value)
{
  IOWR_8DIRECT(base_addr, offset*4, value);
 1004990:	294b883a 	add	r5,r5,r5
 1004994:	294b883a 	add	r5,r5,r5
 1004998:	290b883a 	add	r5,r5,r4
 100499c:	31803fcc 	andi	r6,r6,255
 10049a0:	29800025 	stbio	r6,0(r5)
  return;
}
 10049a4:	f800283a 	ret

010049a8 <alt_write_flash_command_16bit_device_8bit_mode>:

void alt_write_flash_command_16bit_device_8bit_mode( void* base_addr, int offset, alt_u8 value)
{
  if (offset % 2)
  {
    IOWR_8DIRECT(base_addr, offset*2, value);
 10049a8:	2945883a 	add	r2,r5,r5
  return;
}

void alt_write_flash_command_16bit_device_8bit_mode( void* base_addr, int offset, alt_u8 value)
{
  if (offset % 2)
 10049ac:	2940004c 	andi	r5,r5,1
 10049b0:	280b003a 	cmpeq	r5,r5,zero
  {
    IOWR_8DIRECT(base_addr, offset*2, value);
 10049b4:	1105883a 	add	r2,r2,r4
 10049b8:	31003fcc 	andi	r4,r6,255
  return;
}

void alt_write_flash_command_16bit_device_8bit_mode( void* base_addr, int offset, alt_u8 value)
{
  if (offset % 2)
 10049bc:	2800021e 	bne	r5,zero,10049c8 <alt_write_flash_command_16bit_device_8bit_mode+0x20>
  {
    IOWR_8DIRECT(base_addr, offset*2, value);
 10049c0:	11000025 	stbio	r4,0(r2)
 10049c4:	f800283a 	ret
  }
  else
  {
    IOWR_8DIRECT(base_addr, (offset*2)+1, value);
 10049c8:	11000065 	stbio	r4,1(r2)
 10049cc:	f800283a 	ret

010049d0 <alt_write_flash_command_8bit_device_8bit_mode>:
/*
 * Write an 8 bit command to a flash
 */
void alt_write_flash_command_8bit_device_8bit_mode( void* base_addr, int offset, alt_u8 value)
{
  IOWR_8DIRECT(base_addr, offset, value);
 10049d0:	2149883a 	add	r4,r4,r5
 10049d4:	31803fcc 	andi	r6,r6,255
 10049d8:	21800025 	stbio	r6,0(r4)
  return;
}
 10049dc:	f800283a 	ret

010049e0 <alt_read_cfi_width>:
 * 
 * Work out the width of the device we're talking to and sanity check that we  
 * can read the CFI and the Primary Vendor specific Table
 */
int alt_read_cfi_width(alt_flash_cfi_dev* flash)
{
 10049e0:	defffb04 	addi	sp,sp,-20
 10049e4:	dc000315 	stw	r16,12(sp)
 10049e8:	2021883a 	mov	r16,r4
  int ret_code = 0;

  /*
  * Check for 8 bit wide flash
  */
  alt_write_flash_command_8bit_device_8bit_mode(flash->dev.base_addr, 0x55, QUERY_MODE);
 10049ec:	21000a17 	ldw	r4,40(r4)
 10049f0:	01401544 	movi	r5,85
 10049f4:	01802604 	movi	r6,152
 * 
 * Work out the width of the device we're talking to and sanity check that we  
 * can read the CFI and the Primary Vendor specific Table
 */
int alt_read_cfi_width(alt_flash_cfi_dev* flash)
{
 10049f8:	dfc00415 	stw	ra,16(sp)
  int ret_code = 0;

  /*
  * Check for 8 bit wide flash
  */
  alt_write_flash_command_8bit_device_8bit_mode(flash->dev.base_addr, 0x55, QUERY_MODE);
 10049fc:	10049d00 	call	10049d0 <alt_write_flash_command_8bit_device_8bit_mode>
 1004a00:	81000a17 	ldw	r4,40(r16)
 1004a04:	000d883a 	mov	r6,zero
 1004a08:	02000044 	movi	r8,1
 1004a0c:	01c000c4 	movi	r7,3
 1004a10:	21400404 	addi	r5,r4,16

  for(i=0;i<3;i++)
  {
    byte_id[i] = IORD_8DIRECT(flash->dev.base_addr, QUERY_ADDR+i);
 1004a14:	28c00023 	ldbuio	r3,0(r5)
 1004a18:	d985883a 	add	r2,sp,r6
  /*
  * Check for 8 bit wide flash
  */
  alt_write_flash_command_8bit_device_8bit_mode(flash->dev.base_addr, 0x55, QUERY_MODE);

  for(i=0;i<3;i++)
 1004a1c:	31800044 	addi	r6,r6,1
  {
    byte_id[i] = IORD_8DIRECT(flash->dev.base_addr, QUERY_ADDR+i);
 1004a20:	10c00005 	stb	r3,0(r2)
  /*
  * Check for 8 bit wide flash
  */
  alt_write_flash_command_8bit_device_8bit_mode(flash->dev.base_addr, 0x55, QUERY_MODE);

  for(i=0;i<3;i++)
 1004a24:	29400044 	addi	r5,r5,1
 1004a28:	31fffa1e 	bne	r6,r7,1004a14 <alt_read_cfi_width+0x34>
  {
    byte_id[i] = IORD_8DIRECT(flash->dev.base_addr, QUERY_ADDR+i);
  }

  if ((byte_id[0] == 'Q') &&
 1004a2c:	d8c00003 	ldbu	r3,0(sp)
 1004a30:	00801444 	movi	r2,81
 1004a34:	1880ba26 	beq	r3,r2,1004d20 <alt_read_cfi_width+0x340>
  else
  {
    /*
    * Check for 8/16 bit in byte wide mode
    */
    alt_write_flash_command_16bit_device_8bit_mode(flash->dev.base_addr, 0x55, QUERY_MODE);
 1004a38:	01401544 	movi	r5,85
 1004a3c:	01802604 	movi	r6,152
 1004a40:	10049a80 	call	10049a8 <alt_write_flash_command_16bit_device_8bit_mode>
 1004a44:	81000a17 	ldw	r4,40(r16)
 1004a48:	000d883a 	mov	r6,zero
 1004a4c:	01c00184 	movi	r7,6
 1004a50:	21400804 	addi	r5,r4,32
    for(i=0;i<6;i++)
    {
      byte_id[i] = IORD_8DIRECT(flash->dev.base_addr, (QUERY_ADDR*2)+i);
 1004a54:	28c00023 	ldbuio	r3,0(r5)
 1004a58:	d985883a 	add	r2,sp,r6
  {
    /*
    * Check for 8/16 bit in byte wide mode
    */
    alt_write_flash_command_16bit_device_8bit_mode(flash->dev.base_addr, 0x55, QUERY_MODE);
    for(i=0;i<6;i++)
 1004a5c:	31800044 	addi	r6,r6,1
    {
      byte_id[i] = IORD_8DIRECT(flash->dev.base_addr, (QUERY_ADDR*2)+i);
 1004a60:	10c00005 	stb	r3,0(r2)
  {
    /*
    * Check for 8/16 bit in byte wide mode
    */
    alt_write_flash_command_16bit_device_8bit_mode(flash->dev.base_addr, 0x55, QUERY_MODE);
    for(i=0;i<6;i++)
 1004a64:	29400044 	addi	r5,r5,1
 1004a68:	31fffa1e 	bne	r6,r7,1004a54 <alt_read_cfi_width+0x74>
    {
      byte_id[i] = IORD_8DIRECT(flash->dev.base_addr, (QUERY_ADDR*2)+i);
    }

    if ((byte_id[0] == 'Q') && 
 1004a6c:	d8c00003 	ldbu	r3,0(sp)
 1004a70:	00801444 	movi	r2,81
 1004a74:	1880cd26 	beq	r3,r2,1004dac <alt_read_cfi_width+0x3cc>
    else
    {
      /*
      * Check for 16 bit flash in word mode
      */
      alt_write_flash_command_16bit_device_16bit_mode(flash->dev.base_addr, 0x55, QUERY_MODE);
 1004a78:	01401544 	movi	r5,85
 1004a7c:	01802604 	movi	r6,152
 1004a80:	10049700 	call	1004970 <alt_write_flash_command_16bit_device_16bit_mode>
 1004a84:	81000a17 	ldw	r4,40(r16)
 1004a88:	000d883a 	mov	r6,zero
 1004a8c:	01c00184 	movi	r7,6
 1004a90:	21400804 	addi	r5,r4,32
      for(i=0;i<6;i++)
      {
        byte_id[i] = IORD_8DIRECT(flash->dev.base_addr, (QUERY_ADDR*2)+i);
 1004a94:	28c00023 	ldbuio	r3,0(r5)
 1004a98:	d985883a 	add	r2,sp,r6
    {
      /*
      * Check for 16 bit flash in word mode
      */
      alt_write_flash_command_16bit_device_16bit_mode(flash->dev.base_addr, 0x55, QUERY_MODE);
      for(i=0;i<6;i++)
 1004a9c:	31800044 	addi	r6,r6,1
      {
        byte_id[i] = IORD_8DIRECT(flash->dev.base_addr, (QUERY_ADDR*2)+i);
 1004aa0:	10c00005 	stb	r3,0(r2)
    {
      /*
      * Check for 16 bit flash in word mode
      */
      alt_write_flash_command_16bit_device_16bit_mode(flash->dev.base_addr, 0x55, QUERY_MODE);
      for(i=0;i<6;i++)
 1004aa4:	29400044 	addi	r5,r5,1
 1004aa8:	31fffa1e 	bne	r6,r7,1004a94 <alt_read_cfi_width+0xb4>
      {
        byte_id[i] = IORD_8DIRECT(flash->dev.base_addr, (QUERY_ADDR*2)+i);
      }

      if ((byte_id[0] == 'Q') && 
 1004aac:	d8c00003 	ldbu	r3,0(sp)
 1004ab0:	00801444 	movi	r2,81
 1004ab4:	1880a926 	beq	r3,r2,1004d5c <alt_read_cfi_width+0x37c>
      else
      {
        /*
        * Check for 32bit wide flash in 32 bit mode
        */
        alt_write_flash_command_32bit_device_32bit_mode(flash->dev.base_addr, 0x55, QUERY_MODE);
 1004ab8:	01401544 	movi	r5,85
 1004abc:	01802604 	movi	r6,152
 1004ac0:	10049340 	call	1004934 <alt_write_flash_command_32bit_device_32bit_mode>
 1004ac4:	81000a17 	ldw	r4,40(r16)
 1004ac8:	000d883a 	mov	r6,zero
 1004acc:	01c00304 	movi	r7,12
 1004ad0:	21401004 	addi	r5,r4,64
        for(i=0;i<12;i++)
        {
          byte_id[i] = IORD_8DIRECT(flash->dev.base_addr, (QUERY_ADDR*4)+i);
 1004ad4:	28c00023 	ldbuio	r3,0(r5)
 1004ad8:	d985883a 	add	r2,sp,r6
      {
        /*
        * Check for 32bit wide flash in 32 bit mode
        */
        alt_write_flash_command_32bit_device_32bit_mode(flash->dev.base_addr, 0x55, QUERY_MODE);
        for(i=0;i<12;i++)
 1004adc:	31800044 	addi	r6,r6,1
        {
          byte_id[i] = IORD_8DIRECT(flash->dev.base_addr, (QUERY_ADDR*4)+i);
 1004ae0:	10c00005 	stb	r3,0(r2)
      {
        /*
        * Check for 32bit wide flash in 32 bit mode
        */
        alt_write_flash_command_32bit_device_32bit_mode(flash->dev.base_addr, 0x55, QUERY_MODE);
        for(i=0;i<12;i++)
 1004ae4:	29400044 	addi	r5,r5,1
 1004ae8:	31fffa1e 	bne	r6,r7,1004ad4 <alt_read_cfi_width+0xf4>
        {
          byte_id[i] = IORD_8DIRECT(flash->dev.base_addr, (QUERY_ADDR*4)+i);
        }

        if ((byte_id[0] == 'Q') &&
 1004aec:	d8c00003 	ldbu	r3,0(sp)
 1004af0:	00801444 	movi	r2,81
 1004af4:	18802526 	beq	r3,r2,1004b8c <alt_read_cfi_width+0x1ac>
        else
        {
          /*
          * Check for 32 bit wide in 16 bit mode
          */
          alt_write_flash_command_32bit_device_16bit_mode(flash->dev.base_addr, 0x55, QUERY_MODE);
 1004af8:	01401544 	movi	r5,85
 1004afc:	01802604 	movi	r6,152
 1004b00:	10049580 	call	1004958 <alt_write_flash_command_32bit_device_16bit_mode>
 1004b04:	81000a17 	ldw	r4,40(r16)
 1004b08:	000d883a 	mov	r6,zero
 1004b0c:	01c00304 	movi	r7,12
 1004b10:	21401004 	addi	r5,r4,64
          for(i=0;i<12;i++)
          {
            byte_id[i] = IORD_8DIRECT(flash->dev.base_addr, (QUERY_ADDR*4)+i);
 1004b14:	28c00023 	ldbuio	r3,0(r5)
 1004b18:	d985883a 	add	r2,sp,r6
        {
          /*
          * Check for 32 bit wide in 16 bit mode
          */
          alt_write_flash_command_32bit_device_16bit_mode(flash->dev.base_addr, 0x55, QUERY_MODE);
          for(i=0;i<12;i++)
 1004b1c:	31800044 	addi	r6,r6,1
          {
            byte_id[i] = IORD_8DIRECT(flash->dev.base_addr, (QUERY_ADDR*4)+i);
 1004b20:	10c00005 	stb	r3,0(r2)
        {
          /*
          * Check for 32 bit wide in 16 bit mode
          */
          alt_write_flash_command_32bit_device_16bit_mode(flash->dev.base_addr, 0x55, QUERY_MODE);
          for(i=0;i<12;i++)
 1004b24:	29400044 	addi	r5,r5,1
 1004b28:	31fffa1e 	bne	r6,r7,1004b14 <alt_read_cfi_width+0x134>
          {
            byte_id[i] = IORD_8DIRECT(flash->dev.base_addr, (QUERY_ADDR*4)+i);
          }

          if ((byte_id[0] == 'Q') &&
 1004b2c:	d8c00003 	ldbu	r3,0(sp)
 1004b30:	00801444 	movi	r2,81
 1004b34:	18803626 	beq	r3,r2,1004c10 <alt_read_cfi_width+0x230>
          else
          {
            /*
            * 32 Bit wide flash in byte mode
            */
            alt_write_flash_command_32bit_device_8bit_mode(flash->dev.base_addr, 0x55, QUERY_MODE);
 1004b38:	01401544 	movi	r5,85
 1004b3c:	01802604 	movi	r6,152
 1004b40:	10049900 	call	1004990 <alt_write_flash_command_32bit_device_8bit_mode>
 1004b44:	81000a17 	ldw	r4,40(r16)
 1004b48:	000d883a 	mov	r6,zero
 1004b4c:	01c00304 	movi	r7,12
 1004b50:	21401004 	addi	r5,r4,64
            for(i=0;i<12;i++)
            {
              byte_id[i] = IORD_8DIRECT(flash->dev.base_addr, (QUERY_ADDR*4)+i);
 1004b54:	28c00023 	ldbuio	r3,0(r5)
 1004b58:	d985883a 	add	r2,sp,r6
          {
            /*
            * 32 Bit wide flash in byte mode
            */
            alt_write_flash_command_32bit_device_8bit_mode(flash->dev.base_addr, 0x55, QUERY_MODE);
            for(i=0;i<12;i++)
 1004b5c:	31800044 	addi	r6,r6,1
            {
              byte_id[i] = IORD_8DIRECT(flash->dev.base_addr, (QUERY_ADDR*4)+i);
 1004b60:	10c00005 	stb	r3,0(r2)
          {
            /*
            * 32 Bit wide flash in byte mode
            */
            alt_write_flash_command_32bit_device_8bit_mode(flash->dev.base_addr, 0x55, QUERY_MODE);
            for(i=0;i<12;i++)
 1004b64:	29400044 	addi	r5,r5,1
 1004b68:	31fffa1e 	bne	r6,r7,1004b54 <alt_read_cfi_width+0x174>
            {
              byte_id[i] = IORD_8DIRECT(flash->dev.base_addr, (QUERY_ADDR*4)+i);
            }

            if ((byte_id[0] == 'Q') &&
 1004b6c:	d8c00003 	ldbu	r3,0(sp)
 1004b70:	00801444 	movi	r2,81
 1004b74:	18804826 	beq	r3,r2,1004c98 <alt_read_cfi_width+0x2b8>
            {
              flash->mode_width = 1;
              flash->device_width = 4; 
              iface = IORD_32DIRECT(flash->dev.base_addr, INTERFACE_ADDR*4);
              iface += 1;
              if (!(iface & 0x4))
 1004b78:	0005883a 	mov	r2,zero
      }
    }
  }
  
  return ret_code;
}
 1004b7c:	dfc00417 	ldw	ra,16(sp)
 1004b80:	dc000317 	ldw	r16,12(sp)
 1004b84:	dec00504 	addi	sp,sp,20
 1004b88:	f800283a 	ret
        for(i=0;i<12;i++)
        {
          byte_id[i] = IORD_8DIRECT(flash->dev.base_addr, (QUERY_ADDR*4)+i);
        }

        if ((byte_id[0] == 'Q') &&
 1004b8c:	d8800043 	ldbu	r2,1(sp)
 1004b90:	103fd91e 	bne	r2,zero,1004af8 <alt_read_cfi_width+0x118>
 1004b94:	d8800083 	ldbu	r2,2(sp)
 1004b98:	103fd71e 	bne	r2,zero,1004af8 <alt_read_cfi_width+0x118>
 1004b9c:	d88000c3 	ldbu	r2,3(sp)
 1004ba0:	103fd51e 	bne	r2,zero,1004af8 <alt_read_cfi_width+0x118>
 1004ba4:	d8c00103 	ldbu	r3,4(sp)
 1004ba8:	00801484 	movi	r2,82
 1004bac:	18bfd21e 	bne	r3,r2,1004af8 <alt_read_cfi_width+0x118>
 1004bb0:	d8800143 	ldbu	r2,5(sp)
 1004bb4:	103fd01e 	bne	r2,zero,1004af8 <alt_read_cfi_width+0x118>
 1004bb8:	d8800183 	ldbu	r2,6(sp)
 1004bbc:	103fce1e 	bne	r2,zero,1004af8 <alt_read_cfi_width+0x118>
 1004bc0:	d88001c3 	ldbu	r2,7(sp)
 1004bc4:	103fcc1e 	bne	r2,zero,1004af8 <alt_read_cfi_width+0x118>
 1004bc8:	d8c00203 	ldbu	r3,8(sp)
 1004bcc:	00801644 	movi	r2,89
 1004bd0:	18bfc91e 	bne	r3,r2,1004af8 <alt_read_cfi_width+0x118>
 1004bd4:	d8800243 	ldbu	r2,9(sp)
 1004bd8:	103fc71e 	bne	r2,zero,1004af8 <alt_read_cfi_width+0x118>
 1004bdc:	d8800283 	ldbu	r2,10(sp)
 1004be0:	103fc51e 	bne	r2,zero,1004af8 <alt_read_cfi_width+0x118>
 1004be4:	d88002c3 	ldbu	r2,11(sp)
 1004be8:	103fc31e 	bne	r2,zero,1004af8 <alt_read_cfi_width+0x118>
          (byte_id[8] == 'Y') && 
          (byte_id[9] == '\0') && 
          (byte_id[10] == '\0') && 
          (byte_id[11] == '\0'))
        {
          flash->mode_width = 4;
 1004bec:	00c00104 	movi	r3,4
          flash->device_width = 4; 
 1004bf0:	80c02f15 	stw	r3,188(r16)
          (byte_id[8] == 'Y') && 
          (byte_id[9] == '\0') && 
          (byte_id[10] == '\0') && 
          (byte_id[11] == '\0'))
        {
          flash->mode_width = 4;
 1004bf4:	80c02e15 	stw	r3,184(r16)
          flash->device_width = 4; 
          iface = IORD_32DIRECT(flash->dev.base_addr, INTERFACE_ADDR*4);
 1004bf8:	20802837 	ldwio	r2,160(r4)
          iface += 1;
          if (!(iface & 0x4))
 1004bfc:	10800044 	addi	r2,r2,1
 1004c00:	10c4703a 	and	r2,r2,r3
 1004c04:	103fdc1e 	bne	r2,zero,1004b78 <alt_read_cfi_width+0x198>
            {
              flash->mode_width = 1;
              flash->device_width = 4; 
              iface = IORD_32DIRECT(flash->dev.base_addr, INTERFACE_ADDR*4);
              iface += 1;
              if (!(iface & 0x4))
 1004c08:	00bffb44 	movi	r2,-19
 1004c0c:	003fdb06 	br	1004b7c <alt_read_cfi_width+0x19c>
          for(i=0;i<12;i++)
          {
            byte_id[i] = IORD_8DIRECT(flash->dev.base_addr, (QUERY_ADDR*4)+i);
          }

          if ((byte_id[0] == 'Q') &&
 1004c10:	d8800043 	ldbu	r2,1(sp)
 1004c14:	103fc81e 	bne	r2,zero,1004b38 <alt_read_cfi_width+0x158>
 1004c18:	d8800083 	ldbu	r2,2(sp)
 1004c1c:	10ffc61e 	bne	r2,r3,1004b38 <alt_read_cfi_width+0x158>
 1004c20:	d88000c3 	ldbu	r2,3(sp)
 1004c24:	103fc41e 	bne	r2,zero,1004b38 <alt_read_cfi_width+0x158>
 1004c28:	d8c00103 	ldbu	r3,4(sp)
 1004c2c:	00801484 	movi	r2,82
 1004c30:	18bfc11e 	bne	r3,r2,1004b38 <alt_read_cfi_width+0x158>
 1004c34:	d8800143 	ldbu	r2,5(sp)
 1004c38:	103fbf1e 	bne	r2,zero,1004b38 <alt_read_cfi_width+0x158>
 1004c3c:	d8800183 	ldbu	r2,6(sp)
 1004c40:	10ffbd1e 	bne	r2,r3,1004b38 <alt_read_cfi_width+0x158>
 1004c44:	d88001c3 	ldbu	r2,7(sp)
 1004c48:	103fbb1e 	bne	r2,zero,1004b38 <alt_read_cfi_width+0x158>
 1004c4c:	d8c00203 	ldbu	r3,8(sp)
 1004c50:	00801644 	movi	r2,89
 1004c54:	18bfb81e 	bne	r3,r2,1004b38 <alt_read_cfi_width+0x158>
 1004c58:	d8800243 	ldbu	r2,9(sp)
 1004c5c:	103fb61e 	bne	r2,zero,1004b38 <alt_read_cfi_width+0x158>
 1004c60:	d8800283 	ldbu	r2,10(sp)
 1004c64:	10ffb41e 	bne	r2,r3,1004b38 <alt_read_cfi_width+0x158>
 1004c68:	d88002c3 	ldbu	r2,11(sp)
 1004c6c:	103fb21e 	bne	r2,zero,1004b38 <alt_read_cfi_width+0x158>
              (byte_id[9] == '\0') &&
              (byte_id[10] == 'Y') &&
              (byte_id[11] == '\0'))
          {
            flash->mode_width = 2;
            flash->device_width = 4; 
 1004c70:	00800104 	movi	r2,4
              (byte_id[8] == 'Y') &&
              (byte_id[9] == '\0') &&
              (byte_id[10] == 'Y') &&
              (byte_id[11] == '\0'))
          {
            flash->mode_width = 2;
 1004c74:	00c00084 	movi	r3,2
            flash->device_width = 4; 
 1004c78:	80802f15 	stw	r2,188(r16)
              (byte_id[8] == 'Y') &&
              (byte_id[9] == '\0') &&
              (byte_id[10] == 'Y') &&
              (byte_id[11] == '\0'))
          {
            flash->mode_width = 2;
 1004c7c:	80c02e15 	stw	r3,184(r16)
            flash->device_width = 4; 
            iface = IORD_32DIRECT(flash->dev.base_addr, INTERFACE_ADDR*4);
 1004c80:	20802837 	ldwio	r2,160(r4)
            iface += 1;
            if (!(iface & 0x4))
 1004c84:	10800044 	addi	r2,r2,1
 1004c88:	1080010c 	andi	r2,r2,4
 1004c8c:	103fba1e 	bne	r2,zero,1004b78 <alt_read_cfi_width+0x198>
            {
              flash->mode_width = 1;
              flash->device_width = 4; 
              iface = IORD_32DIRECT(flash->dev.base_addr, INTERFACE_ADDR*4);
              iface += 1;
              if (!(iface & 0x4))
 1004c90:	00bffb44 	movi	r2,-19
 1004c94:	003fb906 	br	1004b7c <alt_read_cfi_width+0x19c>
            for(i=0;i<12;i++)
            {
              byte_id[i] = IORD_8DIRECT(flash->dev.base_addr, (QUERY_ADDR*4)+i);
            }

            if ((byte_id[0] == 'Q') &&
 1004c98:	d8800043 	ldbu	r2,1(sp)
 1004c9c:	10ffb61e 	bne	r2,r3,1004b78 <alt_read_cfi_width+0x198>
 1004ca0:	d8c00083 	ldbu	r3,2(sp)
 1004ca4:	18bfb41e 	bne	r3,r2,1004b78 <alt_read_cfi_width+0x198>
 1004ca8:	d88000c3 	ldbu	r2,3(sp)
 1004cac:	10ffb21e 	bne	r2,r3,1004b78 <alt_read_cfi_width+0x198>
 1004cb0:	d8c00103 	ldbu	r3,4(sp)
 1004cb4:	00801484 	movi	r2,82
 1004cb8:	18bfaf1e 	bne	r3,r2,1004b78 <alt_read_cfi_width+0x198>
 1004cbc:	d8800143 	ldbu	r2,5(sp)
 1004cc0:	10ffad1e 	bne	r2,r3,1004b78 <alt_read_cfi_width+0x198>
 1004cc4:	d8c00183 	ldbu	r3,6(sp)
 1004cc8:	18bfab1e 	bne	r3,r2,1004b78 <alt_read_cfi_width+0x198>
 1004ccc:	d88001c3 	ldbu	r2,7(sp)
 1004cd0:	10ffa91e 	bne	r2,r3,1004b78 <alt_read_cfi_width+0x198>
 1004cd4:	d8c00203 	ldbu	r3,8(sp)
 1004cd8:	00801644 	movi	r2,89
 1004cdc:	18bfa61e 	bne	r3,r2,1004b78 <alt_read_cfi_width+0x198>
 1004ce0:	d8800243 	ldbu	r2,9(sp)
 1004ce4:	10ffa41e 	bne	r2,r3,1004b78 <alt_read_cfi_width+0x198>
 1004ce8:	d8c00283 	ldbu	r3,10(sp)
 1004cec:	18bfa21e 	bne	r3,r2,1004b78 <alt_read_cfi_width+0x198>
 1004cf0:	d88002c3 	ldbu	r2,11(sp)
 1004cf4:	10ffa01e 	bne	r2,r3,1004b78 <alt_read_cfi_width+0x198>
                (byte_id[9] == 'Y') && 
                (byte_id[10] == 'Y') && 
                (byte_id[11] == 'Y'))
            {
              flash->mode_width = 1;
              flash->device_width = 4; 
 1004cf8:	00800104 	movi	r2,4
                (byte_id[8] == 'Y') && 
                (byte_id[9] == 'Y') && 
                (byte_id[10] == 'Y') && 
                (byte_id[11] == 'Y'))
            {
              flash->mode_width = 1;
 1004cfc:	00c00044 	movi	r3,1
              flash->device_width = 4; 
 1004d00:	80802f15 	stw	r2,188(r16)
                (byte_id[8] == 'Y') && 
                (byte_id[9] == 'Y') && 
                (byte_id[10] == 'Y') && 
                (byte_id[11] == 'Y'))
            {
              flash->mode_width = 1;
 1004d04:	80c02e15 	stw	r3,184(r16)
              flash->device_width = 4; 
              iface = IORD_32DIRECT(flash->dev.base_addr, INTERFACE_ADDR*4);
 1004d08:	20802837 	ldwio	r2,160(r4)
              iface += 1;
              if (!(iface & 0x4))
 1004d0c:	10c5883a 	add	r2,r2,r3
 1004d10:	1080010c 	andi	r2,r2,4
 1004d14:	103f981e 	bne	r2,zero,1004b78 <alt_read_cfi_width+0x198>
 1004d18:	00bffb44 	movi	r2,-19
 1004d1c:	003f9706 	br	1004b7c <alt_read_cfi_width+0x19c>
  for(i=0;i<3;i++)
  {
    byte_id[i] = IORD_8DIRECT(flash->dev.base_addr, QUERY_ADDR+i);
  }

  if ((byte_id[0] == 'Q') &&
 1004d20:	d8c00043 	ldbu	r3,1(sp)
 1004d24:	00801484 	movi	r2,82
 1004d28:	18bf431e 	bne	r3,r2,1004a38 <alt_read_cfi_width+0x58>
 1004d2c:	d8c00083 	ldbu	r3,2(sp)
 1004d30:	00801644 	movi	r2,89
 1004d34:	18bf401e 	bne	r3,r2,1004a38 <alt_read_cfi_width+0x58>
      (byte_id[1] == 'R') &&
      (byte_id[2] == 'Y'))
  {
    flash->mode_width = 1;
    flash->device_width = 1; 
 1004d38:	82002f15 	stw	r8,188(r16)

  if ((byte_id[0] == 'Q') &&
      (byte_id[1] == 'R') &&
      (byte_id[2] == 'Y'))
  {
    flash->mode_width = 1;
 1004d3c:	82002e15 	stw	r8,184(r16)
    flash->device_width = 1; 
    iface = IORD_16DIRECT(flash->dev.base_addr, INTERFACE_ADDR);
 1004d40:	20800a2b 	ldhuio	r2,40(r4)
    iface += 1;
    if (!(iface & 0x1))
 1004d44:	10800044 	addi	r2,r2,1
 1004d48:	1080004c 	andi	r2,r2,1
 1004d4c:	1005003a 	cmpeq	r2,r2,zero
 1004d50:	103f8926 	beq	r2,zero,1004b78 <alt_read_cfi_width+0x198>
            {
              flash->mode_width = 1;
              flash->device_width = 4; 
              iface = IORD_32DIRECT(flash->dev.base_addr, INTERFACE_ADDR*4);
              iface += 1;
              if (!(iface & 0x4))
 1004d54:	00bffb44 	movi	r2,-19
 1004d58:	003f8806 	br	1004b7c <alt_read_cfi_width+0x19c>
      for(i=0;i<6;i++)
      {
        byte_id[i] = IORD_8DIRECT(flash->dev.base_addr, (QUERY_ADDR*2)+i);
      }

      if ((byte_id[0] == 'Q') && 
 1004d5c:	d8800043 	ldbu	r2,1(sp)
 1004d60:	103f551e 	bne	r2,zero,1004ab8 <alt_read_cfi_width+0xd8>
 1004d64:	d8c00083 	ldbu	r3,2(sp)
 1004d68:	00801484 	movi	r2,82
 1004d6c:	18bf521e 	bne	r3,r2,1004ab8 <alt_read_cfi_width+0xd8>
 1004d70:	d88000c3 	ldbu	r2,3(sp)
 1004d74:	103f501e 	bne	r2,zero,1004ab8 <alt_read_cfi_width+0xd8>
 1004d78:	d8c00103 	ldbu	r3,4(sp)
 1004d7c:	00801644 	movi	r2,89
 1004d80:	18bf4d1e 	bne	r3,r2,1004ab8 <alt_read_cfi_width+0xd8>
 1004d84:	d8800143 	ldbu	r2,5(sp)
 1004d88:	103f4b1e 	bne	r2,zero,1004ab8 <alt_read_cfi_width+0xd8>
          (byte_id[2] == 'R') && 
          (byte_id[3] == '\0') && 
          (byte_id[4] == 'Y') && 
          (byte_id[5] == '\0'))
      {
        flash->mode_width = 2;
 1004d8c:	00c00084 	movi	r3,2
        flash->device_width = 2; 
 1004d90:	80c02f15 	stw	r3,188(r16)
          (byte_id[2] == 'R') && 
          (byte_id[3] == '\0') && 
          (byte_id[4] == 'Y') && 
          (byte_id[5] == '\0'))
      {
        flash->mode_width = 2;
 1004d94:	80c02e15 	stw	r3,184(r16)
        flash->device_width = 2; 
        iface = IORD_16DIRECT(flash->dev.base_addr, INTERFACE_ADDR*2);
 1004d98:	2080142b 	ldhuio	r2,80(r4)
        iface += 1;
        if (!(iface & 0x2))
 1004d9c:	10800044 	addi	r2,r2,1
 1004da0:	10c4703a 	and	r2,r2,r3
 1004da4:	103f741e 	bne	r2,zero,1004b78 <alt_read_cfi_width+0x198>
 1004da8:	003f9706 	br	1004c08 <alt_read_cfi_width+0x228>
    for(i=0;i<6;i++)
    {
      byte_id[i] = IORD_8DIRECT(flash->dev.base_addr, (QUERY_ADDR*2)+i);
    }

    if ((byte_id[0] == 'Q') && 
 1004dac:	d8800043 	ldbu	r2,1(sp)
 1004db0:	10ff311e 	bne	r2,r3,1004a78 <alt_read_cfi_width+0x98>
 1004db4:	d8c00083 	ldbu	r3,2(sp)
 1004db8:	00801484 	movi	r2,82
 1004dbc:	18bf2e1e 	bne	r3,r2,1004a78 <alt_read_cfi_width+0x98>
 1004dc0:	d88000c3 	ldbu	r2,3(sp)
 1004dc4:	10ff2c1e 	bne	r2,r3,1004a78 <alt_read_cfi_width+0x98>
 1004dc8:	d8c00103 	ldbu	r3,4(sp)
 1004dcc:	00801644 	movi	r2,89
 1004dd0:	18bf291e 	bne	r3,r2,1004a78 <alt_read_cfi_width+0x98>
 1004dd4:	d8800143 	ldbu	r2,5(sp)
 1004dd8:	10ff271e 	bne	r2,r3,1004a78 <alt_read_cfi_width+0x98>
        (byte_id[3] == 'R') && 
        (byte_id[4] == 'Y') && 
        (byte_id[5] == 'Y'))
    {
      flash->mode_width = 1;
      flash->device_width = 2; 
 1004ddc:	00800084 	movi	r2,2
        (byte_id[2] == 'R') &&
        (byte_id[3] == 'R') && 
        (byte_id[4] == 'Y') && 
        (byte_id[5] == 'Y'))
    {
      flash->mode_width = 1;
 1004de0:	00c00044 	movi	r3,1
      flash->device_width = 2; 
 1004de4:	80802f15 	stw	r2,188(r16)
        (byte_id[2] == 'R') &&
        (byte_id[3] == 'R') && 
        (byte_id[4] == 'Y') && 
        (byte_id[5] == 'Y'))
    {
      flash->mode_width = 1;
 1004de8:	80c02e15 	stw	r3,184(r16)
      flash->device_width = 2; 
      iface = IORD_16DIRECT(flash->dev.base_addr, INTERFACE_ADDR*2);
 1004dec:	2080142b 	ldhuio	r2,80(r4)
      iface += 1;
      if (!(iface & 0x1))
 1004df0:	10c5883a 	add	r2,r2,r3
 1004df4:	10c4703a 	and	r2,r2,r3
 1004df8:	1005003a 	cmpeq	r2,r2,zero
 1004dfc:	103f5e26 	beq	r2,zero,1004b78 <alt_read_cfi_width+0x198>
 1004e00:	003f8106 	br	1004c08 <alt_read_cfi_width+0x228>

01004e04 <alt_epcs_flash_get_info>:
{
  int ret_code = 0;

  alt_flash_dev* flash = (alt_flash_dev*)fd;

  *number_of_regions = flash->number_of_regions;
 1004e04:	20800c17 	ldw	r2,48(r4)

  if (!flash->number_of_regions)
 1004e08:	01fffec4 	movi	r7,-5
{
  int ret_code = 0;

  alt_flash_dev* flash = (alt_flash_dev*)fd;

  *number_of_regions = flash->number_of_regions;
 1004e0c:	30800015 	stw	r2,0(r6)

  if (!flash->number_of_regions)
 1004e10:	20c00c17 	ldw	r3,48(r4)
 1004e14:	1800021e 	bne	r3,zero,1004e20 <alt_epcs_flash_get_info+0x1c>
  {
    *info = &flash->region_info[0];
  }

  return ret_code;
}
 1004e18:	3805883a 	mov	r2,r7
 1004e1c:	f800283a 	ret

  if (!flash->number_of_regions)
  {
    ret_code = -EIO;
  }
  else if (flash->number_of_regions > ALT_MAX_NUMBER_OF_FLASH_REGIONS)
 1004e20:	00800204 	movi	r2,8
  {
    ret_code = -ENOMEM;
  }
  else
  {
    *info = &flash->region_info[0];
 1004e24:	21000d04 	addi	r4,r4,52

  if (!flash->number_of_regions)
  {
    ret_code = -EIO;
  }
  else if (flash->number_of_regions > ALT_MAX_NUMBER_OF_FLASH_REGIONS)
 1004e28:	01fffd04 	movi	r7,-12
 1004e2c:	10fffa16 	blt	r2,r3,1004e18 <alt_epcs_flash_get_info+0x14>
  {
    ret_code = -ENOMEM;
  }
  else
  {
    *info = &flash->region_info[0];
 1004e30:	000f883a 	mov	r7,zero
 1004e34:	29000015 	stw	r4,0(r5)
 1004e38:	003ff706 	br	1004e18 <alt_epcs_flash_get_info+0x14>

01004e3c <alt_epcs_flash_read>:
  /* Error checking:
   * if the block offset is outside of the memory, return -EIO.
   */
  alt_flash_epcs_dev *f = (alt_flash_epcs_dev*)flash_info;

  const alt_u32 last_region_index = f->dev.number_of_regions - 1;
 1004e3c:	20800c17 	ldw	r2,48(r4)
 *  to the beginning.  Reads that start beyond the end of the memory are
 *  flagged as errors with EIO (is there a better error code?).
 */
int alt_epcs_flash_read(alt_flash_dev* flash_info, int offset,
                        void* dest_addr, int length)
{
 1004e40:	2011883a 	mov	r8,r4
 1004e44:	defffd04 	addi	sp,sp,-12
  /* Error checking:
   * if the block offset is outside of the memory, return -EIO.
   */
  alt_flash_epcs_dev *f = (alt_flash_epcs_dev*)flash_info;

  const alt_u32 last_region_index = f->dev.number_of_regions - 1;
 1004e48:	10bfffc4 	addi	r2,r2,-1
  alt_u32 last_device_address =
    -1 +
    f->dev.region_info[last_region_index].offset +
    f->dev.region_info[last_region_index].region_size;

  if (offset > last_device_address)
 1004e4c:	1004913a 	slli	r2,r2,4
 *  to the beginning.  Reads that start beyond the end of the memory are
 *  flagged as errors with EIO (is there a better error code?).
 */
int alt_epcs_flash_read(alt_flash_dev* flash_info, int offset,
                        void* dest_addr, int length)
{
 1004e50:	dc000115 	stw	r16,4(sp)
 1004e54:	dfc00215 	stw	ra,8(sp)
  alt_u32 last_device_address =
    -1 +
    f->dev.region_info[last_region_index].offset +
    f->dev.region_info[last_region_index].region_size;

  if (offset > last_device_address)
 1004e58:	1105883a 	add	r2,r2,r4
 1004e5c:	10c00d17 	ldw	r3,52(r2)
 1004e60:	11000e17 	ldw	r4,56(r2)
 1004e64:	027ffec4 	movi	r9,-5
 1004e68:	18ffffc4 	addi	r3,r3,-1
 1004e6c:	1907883a 	add	r3,r3,r4
 *  to the beginning.  Reads that start beyond the end of the memory are
 *  flagged as errors with EIO (is there a better error code?).
 */
int alt_epcs_flash_read(alt_flash_dev* flash_info, int offset,
                        void* dest_addr, int length)
{
 1004e70:	3821883a 	mov	r16,r7
  alt_u32 last_device_address =
    -1 +
    f->dev.region_info[last_region_index].offset +
    f->dev.region_info[last_region_index].region_size;

  if (offset > last_device_address)
 1004e74:	19400636 	bltu	r3,r5,1004e90 <alt_epcs_flash_read+0x54>

  ret_code = alt_epcs_test_address(flash_info, offset);

  if (ret_code >= 0)
  {
    ret_code = epcs_read_buffer(f->register_base, offset, dest_addr, length,
 1004e78:	41002d17 	ldw	r4,180(r8)
 1004e7c:	40803117 	ldw	r2,196(r8)
 1004e80:	d8800015 	stw	r2,0(sp)
 1004e84:	1006b480 	call	1006b48 <epcs_read_buffer>
                                f->four_bytes_mode);

    /* epcs_read_buffer returns the number of buffers read, but
     * alt_epcs_flash_read returns 0 on success, <0 on failure.
     */
    if (ret_code == length)
 1004e88:	1013883a 	mov	r9,r2
 1004e8c:	80800526 	beq	r16,r2,1004ea4 <alt_epcs_flash_read+0x68>
    {
      ret_code = 0;
    }
  }
  return ret_code;
}
 1004e90:	4805883a 	mov	r2,r9
 1004e94:	dfc00217 	ldw	ra,8(sp)
 1004e98:	dc000117 	ldw	r16,4(sp)
 1004e9c:	dec00304 	addi	sp,sp,12
 1004ea0:	f800283a 	ret
                                f->four_bytes_mode);

    /* epcs_read_buffer returns the number of buffers read, but
     * alt_epcs_flash_read returns 0 on success, <0 on failure.
     */
    if (ret_code == length)
 1004ea4:	0013883a 	mov	r9,zero
    {
      ret_code = 0;
    }
  }
  return ret_code;
}
 1004ea8:	4805883a 	mov	r2,r9
 1004eac:	dfc00217 	ldw	ra,8(sp)
 1004eb0:	dc000117 	ldw	r16,4(sp)
 1004eb4:	dec00304 	addi	sp,sp,12
 1004eb8:	f800283a 	ret

01004ebc <alt_epcs_flash_write_block>:
  /* Error checking:
   * if the block offset is outside of the memory, return -EIO.
   */
  alt_flash_epcs_dev *f = (alt_flash_epcs_dev*)flash_info;

  const alt_u32 last_region_index = f->dev.number_of_regions - 1;
 1004ebc:	20800c17 	ldw	r2,48(r4)
 * function type compatibility.
 */
int alt_epcs_flash_write_block(alt_flash_dev* flash_info, int block_offset,
                                      int data_offset, const void* data,
                                      int length)
{
 1004ec0:	defff904 	addi	sp,sp,-28
 1004ec4:	dc800315 	stw	r18,12(sp)
  /* Error checking:
   * if the block offset is outside of the memory, return -EIO.
   */
  alt_flash_epcs_dev *f = (alt_flash_epcs_dev*)flash_info;

  const alt_u32 last_region_index = f->dev.number_of_regions - 1;
 1004ec8:	10bfffc4 	addi	r2,r2,-1
  alt_u32 last_device_address =
    -1 +
    f->dev.region_info[last_region_index].offset +
    f->dev.region_info[last_region_index].region_size;

  if (offset > last_device_address)
 1004ecc:	1004913a 	slli	r2,r2,4
 * function type compatibility.
 */
int alt_epcs_flash_write_block(alt_flash_dev* flash_info, int block_offset,
                                      int data_offset, const void* data,
                                      int length)
{
 1004ed0:	2025883a 	mov	r18,r4
 1004ed4:	dd000515 	stw	r20,20(sp)
  alt_u32 last_device_address =
    -1 +
    f->dev.region_info[last_region_index].offset +
    f->dev.region_info[last_region_index].region_size;

  if (offset > last_device_address)
 1004ed8:	1105883a 	add	r2,r2,r4
 1004edc:	10c00d17 	ldw	r3,52(r2)
 1004ee0:	11000e17 	ldw	r4,56(r2)
 * function type compatibility.
 */
int alt_epcs_flash_write_block(alt_flash_dev* flash_info, int block_offset,
                                      int data_offset, const void* data,
                                      int length)
{
 1004ee4:	dc000115 	stw	r16,4(sp)
  alt_u32 last_device_address =
    -1 +
    f->dev.region_info[last_region_index].offset +
    f->dev.region_info[last_region_index].region_size;

  if (offset > last_device_address)
 1004ee8:	18ffffc4 	addi	r3,r3,-1
 1004eec:	1907883a 	add	r3,r3,r4
 * function type compatibility.
 */
int alt_epcs_flash_write_block(alt_flash_dev* flash_info, int block_offset,
                                      int data_offset, const void* data,
                                      int length)
{
 1004ef0:	dfc00615 	stw	ra,24(sp)
 1004ef4:	dcc00415 	stw	r19,16(sp)
 1004ef8:	dc400215 	stw	r17,8(sp)
 1004efc:	3011883a 	mov	r8,r6
 1004f00:	3829883a 	mov	r20,r7
 1004f04:	dc000717 	ldw	r16,28(sp)
  alt_u32 last_device_address =
    -1 +
    f->dev.region_info[last_region_index].offset +
    f->dev.region_info[last_region_index].region_size;

  if (offset > last_device_address)
 1004f08:	19801e36 	bltu	r3,r6,1004f84 <alt_epcs_flash_write_block+0xc8>
  {

    /* "Block" writes must be broken up into the page writes that
     * the device understands.  Partial page writes are allowed.
     */
    while (length)
 1004f0c:	80001426 	beq	r16,zero,1004f60 <alt_epcs_flash_write_block+0xa4>
 1004f10:	0027883a 	mov	r19,zero
    {
      int next_page_start = (data_offset + f->page_size) & ~(f->page_size - 1);
 1004f14:	90803017 	ldw	r2,192(r18)
      length_of_current_write = MIN(length, next_page_start - data_offset);

      epcs_write_buffer(f->register_base, data_offset, &((const alt_u8*)data)[buffer_offset], length_of_current_write,
 1004f18:	400b883a 	mov	r5,r8
 1004f1c:	a4cd883a 	add	r6,r20,r19
    /* "Block" writes must be broken up into the page writes that
     * the device understands.  Partial page writes are allowed.
     */
    while (length)
    {
      int next_page_start = (data_offset + f->page_size) & ~(f->page_size - 1);
 1004f20:	0087c83a 	sub	r3,zero,r2
 1004f24:	1205883a 	add	r2,r2,r8
 1004f28:	10e2703a 	and	r17,r2,r3
      length_of_current_write = MIN(length, next_page_start - data_offset);
 1004f2c:	8a05c83a 	sub	r2,r17,r8
 1004f30:	8007883a 	mov	r3,r16
 1004f34:	1400010e 	bge	r2,r16,1004f3c <alt_epcs_flash_write_block+0x80>
 1004f38:	1007883a 	mov	r3,r2

      epcs_write_buffer(f->register_base, data_offset, &((const alt_u8*)data)[buffer_offset], length_of_current_write,
 1004f3c:	91002d17 	ldw	r4,180(r18)
 1004f40:	90803117 	ldw	r2,196(r18)
 1004f44:	180f883a 	mov	r7,r3
          f->four_bytes_mode);

      length -= length_of_current_write;
 1004f48:	80e1c83a 	sub	r16,r16,r3
    while (length)
    {
      int next_page_start = (data_offset + f->page_size) & ~(f->page_size - 1);
      length_of_current_write = MIN(length, next_page_start - data_offset);

      epcs_write_buffer(f->register_base, data_offset, &((const alt_u8*)data)[buffer_offset], length_of_current_write,
 1004f4c:	d8800015 	stw	r2,0(sp)
          f->four_bytes_mode);

      length -= length_of_current_write;
      buffer_offset += length_of_current_write;
 1004f50:	98e7883a 	add	r19,r19,r3
    while (length)
    {
      int next_page_start = (data_offset + f->page_size) & ~(f->page_size - 1);
      length_of_current_write = MIN(length, next_page_start - data_offset);

      epcs_write_buffer(f->register_base, data_offset, &((const alt_u8*)data)[buffer_offset], length_of_current_write,
 1004f54:	1006a3c0 	call	1006a3c <epcs_write_buffer>
          f->four_bytes_mode);

      length -= length_of_current_write;
      buffer_offset += length_of_current_write;
 1004f58:	8811883a 	mov	r8,r17
  {

    /* "Block" writes must be broken up into the page writes that
     * the device understands.  Partial page writes are allowed.
     */
    while (length)
 1004f5c:	803fed1e 	bne	r16,zero,1004f14 <alt_epcs_flash_write_block+0x58>
 1004f60:	0005883a 	mov	r2,zero
      buffer_offset += length_of_current_write;
      data_offset = next_page_start;
    }
  }
  return ret_code;
}
 1004f64:	dfc00617 	ldw	ra,24(sp)
 1004f68:	dd000517 	ldw	r20,20(sp)
 1004f6c:	dcc00417 	ldw	r19,16(sp)
 1004f70:	dc800317 	ldw	r18,12(sp)
 1004f74:	dc400217 	ldw	r17,8(sp)
 1004f78:	dc000117 	ldw	r16,4(sp)
 1004f7c:	dec00704 	addi	sp,sp,28
 1004f80:	f800283a 	ret
  alt_u32 last_device_address =
    -1 +
    f->dev.region_info[last_region_index].offset +
    f->dev.region_info[last_region_index].region_size;

  if (offset > last_device_address)
 1004f84:	00bffec4 	movi	r2,-5
 1004f88:	003ff606 	br	1004f64 <alt_epcs_flash_write_block+0xa8>

01004f8c <alt_epcs_flash_write>:
  int         current_offset;

  /*
   * First and foremost which sectors are affected?
   */
  for(i = 0; i < flash_info->number_of_regions; i++)
 1004f8c:	20c00c17 	ldw	r3,48(r4)
 * large buffer to tie up in our programming library, when not all users will
 * want that functionality.
 */
int alt_epcs_flash_write(alt_flash_dev* flash_info, int offset,
                          const void* src_addr, int length)
{
 1004f90:	deffe804 	addi	sp,sp,-96
 1004f94:	ddc01515 	stw	r23,84(sp)
 1004f98:	dd801415 	stw	r22,80(sp)
 1004f9c:	dcc01115 	stw	r19,68(sp)
 1004fa0:	dfc01715 	stw	ra,92(sp)
 1004fa4:	df001615 	stw	fp,88(sp)
 1004fa8:	dd401315 	stw	r21,76(sp)
 1004fac:	dd001215 	stw	r20,72(sp)
 1004fb0:	dc801015 	stw	r18,64(sp)
 1004fb4:	dc400f15 	stw	r17,60(sp)
 1004fb8:	dc000e15 	stw	r16,56(sp)
 1004fbc:	202d883a 	mov	r22,r4
 1004fc0:	2827883a 	mov	r19,r5
 1004fc4:	302f883a 	mov	r23,r6
 1004fc8:	d9c00d15 	stw	r7,52(sp)
  int         current_offset;

  /*
   * First and foremost which sectors are affected?
   */
  for(i = 0; i < flash_info->number_of_regions; i++)
 1004fcc:	00c0610e 	bge	zero,r3,1005154 <alt_epcs_flash_write+0x1c8>
 1004fd0:	d9000915 	stw	r4,36(sp)
 1004fd4:	d8000c15 	stw	zero,48(sp)
 1004fd8:	d8000b15 	stw	zero,44(sp)
  {
    /* Is it in this erase block region?*/
    if((offset >= flash_info->region_info[i].offset) &&
 1004fdc:	d8800917 	ldw	r2,36(sp)
 1004fe0:	15000d17 	ldw	r20,52(r2)
 1004fe4:	9d003e16 	blt	r19,r20,10050e0 <alt_epcs_flash_write+0x154>
 1004fe8:	10800e17 	ldw	r2,56(r2)
 1004fec:	a085883a 	add	r2,r20,r2
 1004ff0:	98803b0e 	bge	r19,r2,10050e0 <alt_epcs_flash_write+0x154>
      (offset < (flash_info->region_info[i].offset +
      flash_info->region_info[i].region_size)))
    {
      current_offset = flash_info->region_info[i].offset;

      for(j=0;j<flash_info->region_info[i].number_of_blocks;j++)
 1004ff4:	d8800917 	ldw	r2,36(sp)
 1004ff8:	11000f17 	ldw	r4,60(r2)
 1004ffc:	0100380e 	bge	zero,r4,10050e0 <alt_epcs_flash_write+0x154>
 1005000:	10c01017 	ldw	r3,64(r2)
 1005004:	d8000a15 	stw	zero,40(sp)
      {
        if ((offset >= current_offset ) &&
 1005008:	9d002e16 	blt	r19,r20,10050c4 <alt_epcs_flash_write+0x138>
 100500c:	a0c5883a 	add	r2,r20,r3
 1005010:	98802c0e 	bge	r19,r2,10050c4 <alt_epcs_flash_write+0x138>
           * Check if the contents of the block are different
           * from the data we wish to put there
           */
          data_to_write = ( current_offset + flash_info->region_info[i].block_size
                            - offset);
          data_to_write = MIN(data_to_write, length);
 1005014:	d9000d17 	ldw	r4,52(sp)
        {
          /*
           * Check if the contents of the block are different
           * from the data we wish to put there
           */
          data_to_write = ( current_offset + flash_info->region_info[i].block_size
 1005018:	14ebc83a 	sub	r21,r2,r19
                            - offset);
          data_to_write = MIN(data_to_write, length);
 100501c:	2540010e 	bge	r4,r21,1005024 <alt_epcs_flash_write+0x98>
 1005020:	202b883a 	mov	r21,r4
   */
  alt_u8 chunk_buffer[32];
  const int chunk_size = sizeof(chunk_buffer) / sizeof(*chunk_buffer);
  int current_offset = 0;

  while (n > 0)
 1005024:	a8001b26 	beq	r21,zero,1005094 <alt_epcs_flash_write+0x108>
           */
          data_to_write = ( current_offset + flash_info->region_info[i].block_size
                            - offset);
          data_to_write = MIN(data_to_write, length);

          if(alt_epcs_flash_memcmp(flash_info, src_addr, offset, data_to_write))
 1005028:	a823883a 	mov	r17,r21
 100502c:	0025883a 	mov	r18,zero
 1005030:	07000804 	movi	fp,32
 1005034:	00000306 	br	1005044 <alt_epcs_flash_write+0xb8>
      */
      return -1;
    }

    /* Compare this chunk against the source memory buffer. */
    this_chunk_cmp = memcmp(&((unsigned char*)(src_buffer))[current_offset], chunk_buffer, this_chunk_size);
 1005038:	1007d200 	call	1007d20 <memcmp>
 100503c:	10000f1e 	bne	r2,zero,100507c <alt_epcs_flash_write+0xf0>
   */
  alt_u8 chunk_buffer[32];
  const int chunk_size = sizeof(chunk_buffer) / sizeof(*chunk_buffer);
  int current_offset = 0;

  while (n > 0)
 1005040:	88001426 	beq	r17,zero,1005094 <alt_epcs_flash_write+0x108>
  {
    int this_chunk_size = n > chunk_size ? chunk_size : n;
    int this_chunk_cmp;

    if (
      alt_epcs_flash_read(
 1005044:	94cb883a 	add	r5,r18,r19
 1005048:	b009883a 	mov	r4,r22
 100504c:	d9800104 	addi	r6,sp,4
  const int chunk_size = sizeof(chunk_buffer) / sizeof(*chunk_buffer);
  int current_offset = 0;

  while (n > 0)
  {
    int this_chunk_size = n > chunk_size ? chunk_size : n;
 1005050:	8821883a 	mov	r16,r17
 1005054:	e440012e 	bgeu	fp,r17,100505c <alt_epcs_flash_write+0xd0>
 1005058:	04000804 	movi	r16,32
    int this_chunk_cmp;

    if (
      alt_epcs_flash_read(
 100505c:	800f883a 	mov	r7,r16
 1005060:	1004e3c0 	call	1004e3c <alt_epcs_flash_read>
    if (this_chunk_cmp)
    {
      return this_chunk_cmp;
    }

    n -= this_chunk_size;
 1005064:	8c23c83a 	sub	r17,r17,r16
      */
      return -1;
    }

    /* Compare this chunk against the source memory buffer. */
    this_chunk_cmp = memcmp(&((unsigned char*)(src_buffer))[current_offset], chunk_buffer, this_chunk_size);
 1005068:	bc89883a 	add	r4,r23,r18
 100506c:	d9400104 	addi	r5,sp,4
    {
      return this_chunk_cmp;
    }

    n -= this_chunk_size;
    current_offset += this_chunk_size;
 1005070:	9425883a 	add	r18,r18,r16
      */
      return -1;
    }

    /* Compare this chunk against the source memory buffer. */
    this_chunk_cmp = memcmp(&((unsigned char*)(src_buffer))[current_offset], chunk_buffer, this_chunk_size);
 1005074:	800d883a 	mov	r6,r16
  while (n > 0)
  {
    int this_chunk_size = n > chunk_size ? chunk_size : n;
    int this_chunk_cmp;

    if (
 1005078:	103fef0e 	bge	r2,zero,1005038 <alt_epcs_flash_write+0xac>
                            - offset);
          data_to_write = MIN(data_to_write, length);

          if(alt_epcs_flash_memcmp(flash_info, src_addr, offset, data_to_write))
          {
            ret_code = (*flash_info->erase_block)(flash_info, current_offset);
 100507c:	b0c00817 	ldw	r3,32(r22)
 1005080:	b009883a 	mov	r4,r22
 1005084:	a00b883a 	mov	r5,r20
 1005088:	183ee83a 	callr	r3
 100508c:	d8800c15 	stw	r2,48(sp)

            if (!ret_code)
 1005090:	10002726 	beq	r2,zero,1005130 <alt_epcs_flash_write+0x1a4>
                                                  data_to_write);
            }
          }

          /* Was this the last block? */
          if ((length == data_to_write) || ret_code)
 1005094:	d8800d17 	ldw	r2,52(sp)
 1005098:	a8801826 	beq	r21,r2,10050fc <alt_epcs_flash_write+0x170>
 100509c:	d9000c17 	ldw	r4,48(sp)
 10050a0:	2000161e 	bne	r4,zero,10050fc <alt_epcs_flash_write+0x170>
          {
            goto finished;
          }

          length -= data_to_write;
          offset = current_offset + flash_info->region_info[i].block_size;
 10050a4:	d8800917 	ldw	r2,36(sp)
          src_addr = (alt_u8*)src_addr + data_to_write;
 10050a8:	bd6f883a 	add	r23,r23,r21
          {
            goto finished;
          }

          length -= data_to_write;
          offset = current_offset + flash_info->region_info[i].block_size;
 10050ac:	10c01017 	ldw	r3,64(r2)
 10050b0:	11000f17 	ldw	r4,60(r2)
          if ((length == data_to_write) || ret_code)
          {
            goto finished;
          }

          length -= data_to_write;
 10050b4:	d8800d17 	ldw	r2,52(sp)
          offset = current_offset + flash_info->region_info[i].block_size;
 10050b8:	a0e7883a 	add	r19,r20,r3
          if ((length == data_to_write) || ret_code)
          {
            goto finished;
          }

          length -= data_to_write;
 10050bc:	1545c83a 	sub	r2,r2,r21
 10050c0:	d8800d15 	stw	r2,52(sp)
      (offset < (flash_info->region_info[i].offset +
      flash_info->region_info[i].region_size)))
    {
      current_offset = flash_info->region_info[i].offset;

      for(j=0;j<flash_info->region_info[i].number_of_blocks;j++)
 10050c4:	d8800a17 	ldw	r2,40(sp)
 10050c8:	10800044 	addi	r2,r2,1
 10050cc:	d8800a15 	stw	r2,40(sp)
 10050d0:	1100020e 	bge	r2,r4,10050dc <alt_epcs_flash_write+0x150>

          length -= data_to_write;
          offset = current_offset + flash_info->region_info[i].block_size;
          src_addr = (alt_u8*)src_addr + data_to_write;
        }
        current_offset += flash_info->region_info[i].block_size;
 10050d4:	a0e9883a 	add	r20,r20,r3
 10050d8:	003fcb06 	br	1005008 <alt_epcs_flash_write+0x7c>
 10050dc:	b0c00c17 	ldw	r3,48(r22)
  int         current_offset;

  /*
   * First and foremost which sectors are affected?
   */
  for(i = 0; i < flash_info->number_of_regions; i++)
 10050e0:	d9000b17 	ldw	r4,44(sp)
 10050e4:	d8800917 	ldw	r2,36(sp)
 10050e8:	21000044 	addi	r4,r4,1
 10050ec:	10800404 	addi	r2,r2,16
 10050f0:	d9000b15 	stw	r4,44(sp)
 10050f4:	d8800915 	stw	r2,36(sp)
 10050f8:	20ffb816 	blt	r4,r3,1004fdc <alt_epcs_flash_write+0x50>
    }
  }

finished:
  return ret_code;
}
 10050fc:	d8800c17 	ldw	r2,48(sp)
 1005100:	dfc01717 	ldw	ra,92(sp)
 1005104:	df001617 	ldw	fp,88(sp)
 1005108:	ddc01517 	ldw	r23,84(sp)
 100510c:	dd801417 	ldw	r22,80(sp)
 1005110:	dd401317 	ldw	r21,76(sp)
 1005114:	dd001217 	ldw	r20,72(sp)
 1005118:	dcc01117 	ldw	r19,68(sp)
 100511c:	dc801017 	ldw	r18,64(sp)
 1005120:	dc400f17 	ldw	r17,60(sp)
 1005124:	dc000e17 	ldw	r16,56(sp)
 1005128:	dec01804 	addi	sp,sp,96
 100512c:	f800283a 	ret
          {
            ret_code = (*flash_info->erase_block)(flash_info, current_offset);

            if (!ret_code)
            {
              ret_code = (*flash_info->write_block)(
 1005130:	b0c00917 	ldw	r3,36(r22)
 1005134:	980d883a 	mov	r6,r19
 1005138:	dd400015 	stw	r21,0(sp)
 100513c:	b009883a 	mov	r4,r22
 1005140:	a00b883a 	mov	r5,r20
 1005144:	b80f883a 	mov	r7,r23
 1005148:	183ee83a 	callr	r3
 100514c:	d8800c15 	stw	r2,48(sp)
 1005150:	003fd006 	br	1005094 <alt_epcs_flash_write+0x108>
  int         current_offset;

  /*
   * First and foremost which sectors are affected?
   */
  for(i = 0; i < flash_info->number_of_regions; i++)
 1005154:	d8000c15 	stw	zero,48(sp)
 1005158:	003fe806 	br	10050fc <alt_epcs_flash_write+0x170>

0100515c <alt_epcs_flash_init>:
/*
 * alt_epcs_flash_init
 *
 */
int alt_epcs_flash_init(alt_flash_epcs_dev* flash)
{
 100515c:	defffe04 	addi	sp,sp,-8
 1005160:	dc000015 	stw	r16,0(sp)
 1005164:	2021883a 	mov	r16,r4
  
  /* Disable 4-bytes address mode. */
  flash->four_bytes_mode = 0;
  
  /* Send the RES command sequence */
  flash->silicon_id =
 1005168:	21002d17 	ldw	r4,180(r4)
   * reset the device, or whatever, to ensure that
   * it's in a known working state.
  */
  
  /* Disable 4-bytes address mode. */
  flash->four_bytes_mode = 0;
 100516c:	80003115 	stw	zero,196(r16)
/*
 * alt_epcs_flash_init
 *
 */
int alt_epcs_flash_init(alt_flash_epcs_dev* flash)
{
 1005170:	dfc00115 	stw	ra,4(sp)
  
  /* Disable 4-bytes address mode. */
  flash->four_bytes_mode = 0;
  
  /* Send the RES command sequence */
  flash->silicon_id =
 1005174:	10068000 	call	1006800 <epcs_read_electronic_signature>
 1005178:	10c03fcc 	andi	r3,r2,255
    epcs_read_electronic_signature(flash->register_base);

  /* Fill in all device-specific parameters. */
  if (flash->silicon_id == 0x16) /* EPCS64 */
 100517c:	00800584 	movi	r2,22
  
  /* Disable 4-bytes address mode. */
  flash->four_bytes_mode = 0;
  
  /* Send the RES command sequence */
  flash->silicon_id =
 1005180:	80c02f15 	stw	r3,188(r16)
    epcs_read_electronic_signature(flash->register_base);

  /* Fill in all device-specific parameters. */
  if (flash->silicon_id == 0x16) /* EPCS64 */
 1005184:	18802026 	beq	r3,r2,1005208 <alt_epcs_flash_init+0xac>
  {
    flash->dev.region_info[0].region_size = 64 * 1024 * 1024 / 8;
    flash->dev.region_info[0].number_of_blocks = 128;
    flash->dev.region_info[0].block_size = 65536;
  }
  else if (flash->silicon_id == 0x14) /* EPCS16 */
 1005188:	00800504 	movi	r2,20
 100518c:	18803226 	beq	r3,r2,1005258 <alt_epcs_flash_init+0xfc>
  {
    flash->dev.region_info[0].region_size = 16 * 1024 * 1024 / 8;
    flash->dev.region_info[0].number_of_blocks = 32;
    flash->dev.region_info[0].block_size = 65536;
  }
  else if (flash->silicon_id == 0x13) /* EPCS8 */
 1005190:	008004c4 	movi	r2,19
 1005194:	18803726 	beq	r3,r2,1005274 <alt_epcs_flash_init+0x118>
  {
    flash->dev.region_info[0].region_size = 8 * 1024 * 1024 / 8;
    flash->dev.region_info[0].number_of_blocks = 16;
    flash->dev.region_info[0].block_size = 65536;
  }
  else if (flash->silicon_id == 0x12) /* EPCS4 */
 1005198:	00800484 	movi	r2,18
 100519c:	18804326 	beq	r3,r2,10052ac <alt_epcs_flash_init+0x150>
  {
    flash->dev.region_info[0].region_size = 4 * 1024 * 1024 / 8;
    flash->dev.region_info[0].number_of_blocks = 8;
    flash->dev.region_info[0].block_size = 65536;
  }
  else if (flash->silicon_id == 0x10) /* EPCS1 */
 10051a0:	00800404 	movi	r2,16
 10051a4:	18803a26 	beq	r3,r2,1005290 <alt_epcs_flash_init+0x134>
  {
    /* 
     * Read electronic signature doesn't work for the EPCS128; try 
     * the "Read Device ID" command" before giving up.
     */
    flash->silicon_id = epcs_read_device_id(flash->register_base);
 10051a8:	81002d17 	ldw	r4,180(r16)
 10051ac:	100679c0 	call	100679c <epcs_read_device_id>
 10051b0:	1009883a 	mov	r4,r2
    /*
     * Last byte is the density ID. Note the difference between
     * EPCS128 and EPCQ128 -- arranged differently, though the 
     * least significant byte of each is '0x18'.
     */
    if((flash->silicon_id & 0xFFFFFF) == 0x20BA18) /* EPCQ128 */
 10051b4:	00804034 	movhi	r2,256
 10051b8:	10bfffc4 	addi	r2,r2,-1
 10051bc:	2084703a 	and	r2,r4,r2
 10051c0:	00c00874 	movhi	r3,33
 10051c4:	18ee8604 	addi	r3,r3,-17896
  {
    /* 
     * Read electronic signature doesn't work for the EPCS128; try 
     * the "Read Device ID" command" before giving up.
     */
    flash->silicon_id = epcs_read_device_id(flash->register_base);
 10051c8:	81002f15 	stw	r4,188(r16)
    /*
     * Last byte is the density ID. Note the difference between
     * EPCS128 and EPCQ128 -- arranged differently, though the 
     * least significant byte of each is '0x18'.
     */
    if((flash->silicon_id & 0xFFFFFF) == 0x20BA18) /* EPCQ128 */
 10051cc:	10c03e26 	beq	r2,r3,10052c8 <alt_epcs_flash_init+0x16c>
    {
      flash->dev.region_info[0].region_size = 128 * 1024 * 1024 / 8;
      flash->dev.region_info[0].number_of_blocks = 256; /* number of sectors */
      flash->dev.region_info[0].block_size = 65536;  /* sector size */
    }
    else if((flash->silicon_id & 0xFF) == 0x18) /* EPCS128 */
 10051d0:	20c03fcc 	andi	r3,r4,255
 10051d4:	00800604 	movi	r2,24
 10051d8:	18804226 	beq	r3,r2,10052e4 <alt_epcs_flash_init+0x188>
    {
      flash->dev.region_info[0].region_size = 128 * 1024 * 1024 / 8;
      flash->dev.region_info[0].number_of_blocks = 64;
      flash->dev.region_info[0].block_size = 262144;
    }
    else if((flash->silicon_id & 0xFF ) == 0x19) /* EPCQ256 */
 10051dc:	00800644 	movi	r2,25
 10051e0:	1880471e 	bne	r3,r2,1005300 <alt_epcs_flash_init+0x1a4>
    {
      flash->dev.region_info[0].region_size = 256 * 1024 * 1024 / 8;
 10051e4:	00808034 	movhi	r2,512
      flash->dev.region_info[0].number_of_blocks = 512; /* number of sectors */
 10051e8:	00c08004 	movi	r3,512
      flash->dev.region_info[0].number_of_blocks = 64;
      flash->dev.region_info[0].block_size = 262144;
    }
    else if((flash->silicon_id & 0xFF ) == 0x19) /* EPCQ256 */
    {
      flash->dev.region_info[0].region_size = 256 * 1024 * 1024 / 8;
 10051ec:	80800e15 	stw	r2,56(r16)
      flash->dev.region_info[0].number_of_blocks = 512; /* number of sectors */
 10051f0:	80c00f15 	stw	r3,60(r16)
      flash->dev.region_info[0].block_size = 65536;  /* sector size */
 10051f4:	00800074 	movhi	r2,1
       * must first be programmed into the device, though. To complicate things, 
       * other Altera IP expects the chip to be in 3 byte address mode when they 
       * start using it. To be nice, we'll place the device into 4-byte address mode
       * when we need to, and take it back out when we're done.
       */
      flash->four_bytes_mode = 1;
 10051f8:	00c00044 	movi	r3,1
    }
    else if((flash->silicon_id & 0xFF ) == 0x19) /* EPCQ256 */
    {
      flash->dev.region_info[0].region_size = 256 * 1024 * 1024 / 8;
      flash->dev.region_info[0].number_of_blocks = 512; /* number of sectors */
      flash->dev.region_info[0].block_size = 65536;  /* sector size */
 10051fc:	80801015 	stw	r2,64(r16)
       * must first be programmed into the device, though. To complicate things, 
       * other Altera IP expects the chip to be in 3 byte address mode when they 
       * start using it. To be nice, we'll place the device into 4-byte address mode
       * when we need to, and take it back out when we're done.
       */
      flash->four_bytes_mode = 1;
 1005200:	80c03115 	stw	r3,196(r16)
 1005204:	00000606 	br	1005220 <alt_epcs_flash_init+0xc4>
    epcs_read_electronic_signature(flash->register_base);

  /* Fill in all device-specific parameters. */
  if (flash->silicon_id == 0x16) /* EPCS64 */
  {
    flash->dev.region_info[0].region_size = 64 * 1024 * 1024 / 8;
 1005208:	00802034 	movhi	r2,128
 100520c:	80800e15 	stw	r2,56(r16)
    flash->dev.region_info[0].number_of_blocks = 128;
 1005210:	00c02004 	movi	r3,128
    flash->dev.region_info[0].block_size = 65536;
 1005214:	00800074 	movhi	r2,1

  /* Fill in all device-specific parameters. */
  if (flash->silicon_id == 0x16) /* EPCS64 */
  {
    flash->dev.region_info[0].region_size = 64 * 1024 * 1024 / 8;
    flash->dev.region_info[0].number_of_blocks = 128;
 1005218:	80c00f15 	stw	r3,60(r16)
    flash->dev.region_info[0].block_size = 65536;
 100521c:	80801015 	stw	r2,64(r16)
    {
      ret_code = -ENODEV; /* No known device found! */
    }
  }
  
  flash->size_in_bytes = flash->dev.region_info[0].region_size;
 1005220:	80800e17 	ldw	r2,56(r16)
  flash->dev.number_of_regions = 1;
 1005224:	00c00044 	movi	r3,1
 1005228:	8009883a 	mov	r4,r16
    {
      ret_code = -ENODEV; /* No known device found! */
    }
  }
  
  flash->size_in_bytes = flash->dev.region_info[0].region_size;
 100522c:	80802e15 	stw	r2,184(r16)
 1005230:	01404074 	movhi	r5,257
 1005234:	2968c304 	addi	r5,r5,-23796
  flash->dev.number_of_regions = 1;
  flash->dev.region_info[0].offset = 0;
  flash->page_size = 256;
 1005238:	00804004 	movi	r2,256
      ret_code = -ENODEV; /* No known device found! */
    }
  }
  
  flash->size_in_bytes = flash->dev.region_info[0].region_size;
  flash->dev.number_of_regions = 1;
 100523c:	80c00c15 	stw	r3,48(r16)
  flash->dev.region_info[0].offset = 0;
  flash->page_size = 256;
 1005240:	80803015 	stw	r2,192(r16)
    }
  }
  
  flash->size_in_bytes = flash->dev.region_info[0].region_size;
  flash->dev.number_of_regions = 1;
  flash->dev.region_info[0].offset = 0;
 1005244:	80000d15 	stw	zero,52(r16)
  */
  if (!ret_code)
    ret_code = alt_flash_device_register(&(flash->dev));

  return ret_code;
}
 1005248:	dfc00117 	ldw	ra,4(sp)
 100524c:	dc000017 	ldw	r16,0(sp)
 1005250:	dec00204 	addi	sp,sp,8
 1005254:	1006dbc1 	jmpi	1006dbc <alt_dev_llist_insert>
    flash->dev.region_info[0].number_of_blocks = 128;
    flash->dev.region_info[0].block_size = 65536;
  }
  else if (flash->silicon_id == 0x14) /* EPCS16 */
  {
    flash->dev.region_info[0].region_size = 16 * 1024 * 1024 / 8;
 1005258:	00800834 	movhi	r2,32
 100525c:	80800e15 	stw	r2,56(r16)
    flash->dev.region_info[0].number_of_blocks = 32;
 1005260:	00c00804 	movi	r3,32
    flash->dev.region_info[0].block_size = 65536;
 1005264:	00800074 	movhi	r2,1
    flash->dev.region_info[0].block_size = 65536;
  }
  else if (flash->silicon_id == 0x14) /* EPCS16 */
  {
    flash->dev.region_info[0].region_size = 16 * 1024 * 1024 / 8;
    flash->dev.region_info[0].number_of_blocks = 32;
 1005268:	80c00f15 	stw	r3,60(r16)
    flash->dev.region_info[0].block_size = 65536;
 100526c:	80801015 	stw	r2,64(r16)
 1005270:	003feb06 	br	1005220 <alt_epcs_flash_init+0xc4>
  }
  else if (flash->silicon_id == 0x13) /* EPCS8 */
  {
    flash->dev.region_info[0].region_size = 8 * 1024 * 1024 / 8;
 1005274:	00800434 	movhi	r2,16
 1005278:	80800e15 	stw	r2,56(r16)
    flash->dev.region_info[0].number_of_blocks = 16;
 100527c:	00c00404 	movi	r3,16
    flash->dev.region_info[0].block_size = 65536;
 1005280:	00800074 	movhi	r2,1
    flash->dev.region_info[0].block_size = 65536;
  }
  else if (flash->silicon_id == 0x13) /* EPCS8 */
  {
    flash->dev.region_info[0].region_size = 8 * 1024 * 1024 / 8;
    flash->dev.region_info[0].number_of_blocks = 16;
 1005284:	80c00f15 	stw	r3,60(r16)
    flash->dev.region_info[0].block_size = 65536;
 1005288:	80801015 	stw	r2,64(r16)
 100528c:	003fe406 	br	1005220 <alt_epcs_flash_init+0xc4>
    flash->dev.region_info[0].number_of_blocks = 8;
    flash->dev.region_info[0].block_size = 65536;
  }
  else if (flash->silicon_id == 0x10) /* EPCS1 */
  {
    flash->dev.region_info[0].region_size = 1 * 1024 * 1024 / 8;
 1005290:	008000b4 	movhi	r2,2
 1005294:	80800e15 	stw	r2,56(r16)
    flash->dev.region_info[0].number_of_blocks = 4;
 1005298:	00c00104 	movi	r3,4
    flash->dev.region_info[0].block_size = 32768;
 100529c:	00a00014 	movui	r2,32768
    flash->dev.region_info[0].block_size = 65536;
  }
  else if (flash->silicon_id == 0x10) /* EPCS1 */
  {
    flash->dev.region_info[0].region_size = 1 * 1024 * 1024 / 8;
    flash->dev.region_info[0].number_of_blocks = 4;
 10052a0:	80c00f15 	stw	r3,60(r16)
    flash->dev.region_info[0].block_size = 32768;
 10052a4:	80801015 	stw	r2,64(r16)
 10052a8:	003fdd06 	br	1005220 <alt_epcs_flash_init+0xc4>
    flash->dev.region_info[0].number_of_blocks = 16;
    flash->dev.region_info[0].block_size = 65536;
  }
  else if (flash->silicon_id == 0x12) /* EPCS4 */
  {
    flash->dev.region_info[0].region_size = 4 * 1024 * 1024 / 8;
 10052ac:	00800234 	movhi	r2,8
 10052b0:	80800e15 	stw	r2,56(r16)
    flash->dev.region_info[0].number_of_blocks = 8;
 10052b4:	00c00204 	movi	r3,8
    flash->dev.region_info[0].block_size = 65536;
 10052b8:	00800074 	movhi	r2,1
    flash->dev.region_info[0].block_size = 65536;
  }
  else if (flash->silicon_id == 0x12) /* EPCS4 */
  {
    flash->dev.region_info[0].region_size = 4 * 1024 * 1024 / 8;
    flash->dev.region_info[0].number_of_blocks = 8;
 10052bc:	80c00f15 	stw	r3,60(r16)
    flash->dev.region_info[0].block_size = 65536;
 10052c0:	80801015 	stw	r2,64(r16)
 10052c4:	003fd606 	br	1005220 <alt_epcs_flash_init+0xc4>
     * EPCS128 and EPCQ128 -- arranged differently, though the 
     * least significant byte of each is '0x18'.
     */
    if((flash->silicon_id & 0xFFFFFF) == 0x20BA18) /* EPCQ128 */
    {
      flash->dev.region_info[0].region_size = 128 * 1024 * 1024 / 8;
 10052c8:	00804034 	movhi	r2,256
 10052cc:	80800e15 	stw	r2,56(r16)
      flash->dev.region_info[0].number_of_blocks = 256; /* number of sectors */
 10052d0:	00c04004 	movi	r3,256
      flash->dev.region_info[0].block_size = 65536;  /* sector size */
 10052d4:	00800074 	movhi	r2,1
     * least significant byte of each is '0x18'.
     */
    if((flash->silicon_id & 0xFFFFFF) == 0x20BA18) /* EPCQ128 */
    {
      flash->dev.region_info[0].region_size = 128 * 1024 * 1024 / 8;
      flash->dev.region_info[0].number_of_blocks = 256; /* number of sectors */
 10052d8:	80c00f15 	stw	r3,60(r16)
      flash->dev.region_info[0].block_size = 65536;  /* sector size */
 10052dc:	80801015 	stw	r2,64(r16)
 10052e0:	003fcf06 	br	1005220 <alt_epcs_flash_init+0xc4>
    }
    else if((flash->silicon_id & 0xFF) == 0x18) /* EPCS128 */
    {
      flash->dev.region_info[0].region_size = 128 * 1024 * 1024 / 8;
 10052e4:	00804034 	movhi	r2,256
 10052e8:	80800e15 	stw	r2,56(r16)
      flash->dev.region_info[0].number_of_blocks = 64;
 10052ec:	00c01004 	movi	r3,64
      flash->dev.region_info[0].block_size = 262144;
 10052f0:	00800134 	movhi	r2,4
      flash->dev.region_info[0].block_size = 65536;  /* sector size */
    }
    else if((flash->silicon_id & 0xFF) == 0x18) /* EPCS128 */
    {
      flash->dev.region_info[0].region_size = 128 * 1024 * 1024 / 8;
      flash->dev.region_info[0].number_of_blocks = 64;
 10052f4:	80c00f15 	stw	r3,60(r16)
      flash->dev.region_info[0].block_size = 262144;
 10052f8:	80801015 	stw	r2,64(r16)
 10052fc:	003fc806 	br	1005220 <alt_epcs_flash_init+0xc4>
    {
      ret_code = -ENODEV; /* No known device found! */
    }
  }
  
  flash->size_in_bytes = flash->dev.region_info[0].region_size;
 1005300:	80800e17 	ldw	r2,56(r16)
  flash->dev.number_of_regions = 1;
  flash->dev.region_info[0].offset = 0;
  flash->page_size = 256;
 1005304:	00c04004 	movi	r3,256
 1005308:	80c03015 	stw	r3,192(r16)
    {
      ret_code = -ENODEV; /* No known device found! */
    }
  }
  
  flash->size_in_bytes = flash->dev.region_info[0].region_size;
 100530c:	80802e15 	stw	r2,184(r16)
  flash->dev.number_of_regions = 1;
 1005310:	00c00044 	movi	r3,1
  */
  if (!ret_code)
    ret_code = alt_flash_device_register(&(flash->dev));

  return ret_code;
}
 1005314:	00bffb44 	movi	r2,-19
      ret_code = -ENODEV; /* No known device found! */
    }
  }
  
  flash->size_in_bytes = flash->dev.region_info[0].region_size;
  flash->dev.number_of_regions = 1;
 1005318:	80c00c15 	stw	r3,48(r16)
  flash->dev.region_info[0].offset = 0;
 100531c:	80000d15 	stw	zero,52(r16)
  */
  if (!ret_code)
    ret_code = alt_flash_device_register(&(flash->dev));

  return ret_code;
}
 1005320:	dfc00117 	ldw	ra,4(sp)
 1005324:	dc000017 	ldw	r16,0(sp)
 1005328:	dec00204 	addi	sp,sp,8
 100532c:	f800283a 	ret

01005330 <alt_epcs_flash_erase_block>:
  /* Error checking:
   * if the block offset is outside of the memory, return -EIO.
   */
  alt_flash_epcs_dev *f = (alt_flash_epcs_dev*)flash_info;

  const alt_u32 last_region_index = f->dev.number_of_regions - 1;
 1005330:	20800c17 	ldw	r2,48(r4)
 *
 * Erase the selected erase block ("sector erase", from the POV
 * of the EPCS data sheet).
 */
int alt_epcs_flash_erase_block(alt_flash_dev* flash_info, int block_offset)
{
 1005334:	200f883a 	mov	r7,r4
 1005338:	deffff04 	addi	sp,sp,-4
  /* Error checking:
   * if the block offset is outside of the memory, return -EIO.
   */
  alt_flash_epcs_dev *f = (alt_flash_epcs_dev*)flash_info;

  const alt_u32 last_region_index = f->dev.number_of_regions - 1;
 100533c:	10bfffc4 	addi	r2,r2,-1
  alt_u32 last_device_address =
    -1 +
    f->dev.region_info[last_region_index].offset +
    f->dev.region_info[last_region_index].region_size;

  if (offset > last_device_address)
 1005340:	1004913a 	slli	r2,r2,4
 *
 * Erase the selected erase block ("sector erase", from the POV
 * of the EPCS data sheet).
 */
int alt_epcs_flash_erase_block(alt_flash_dev* flash_info, int block_offset)
{
 1005344:	dfc00015 	stw	ra,0(sp)
  alt_u32 last_device_address =
    -1 +
    f->dev.region_info[last_region_index].offset +
    f->dev.region_info[last_region_index].region_size;

  if (offset > last_device_address)
 1005348:	01bffec4 	movi	r6,-5
 100534c:	1105883a 	add	r2,r2,r4
 1005350:	10c00d17 	ldw	r3,52(r2)
 1005354:	11000e17 	ldw	r4,56(r2)
 1005358:	18ffffc4 	addi	r3,r3,-1
 100535c:	1907883a 	add	r3,r3,r4
 1005360:	19400436 	bltu	r3,r5,1005374 <alt_epcs_flash_erase_block+0x44>
  if (ret_code >= 0)
  {
    /* Send the Sector Erase command, whose 3 address bytes are anywhere
     * within the chosen sector.
     */
    epcs_sector_erase(f->register_base, block_offset, f->four_bytes_mode);
 1005364:	39803117 	ldw	r6,196(r7)
 1005368:	39002d17 	ldw	r4,180(r7)
 100536c:	100696c0 	call	100696c <epcs_sector_erase>
 1005370:	000d883a 	mov	r6,zero
  }
  return ret_code;
}
 1005374:	3005883a 	mov	r2,r6
 1005378:	dfc00017 	ldw	ra,0(sp)
 100537c:	dec00104 	addi	sp,sp,4
 1005380:	f800283a 	ret

01005384 <altera_avalon_jtag_uart_ioctl_fd>:
int 
altera_avalon_jtag_uart_ioctl_fd(alt_fd* fd, int req, void* arg)
{
    altera_avalon_jtag_uart_dev* dev = (altera_avalon_jtag_uart_dev*) fd->dev;

    return altera_avalon_jtag_uart_ioctl(&dev->state, req, arg);
 1005384:	21000017 	ldw	r4,0(r4)
 1005388:	21000a04 	addi	r4,r4,40
 100538c:	10055d41 	jmpi	10055d4 <altera_avalon_jtag_uart_ioctl>

01005390 <altera_avalon_jtag_uart_close_fd>:
int 
altera_avalon_jtag_uart_close_fd(alt_fd* fd)
{
    altera_avalon_jtag_uart_dev* dev = (altera_avalon_jtag_uart_dev*) fd->dev; 

    return altera_avalon_jtag_uart_close(&dev->state, fd->fd_flags);
 1005390:	20800017 	ldw	r2,0(r4)
 1005394:	21400217 	ldw	r5,8(r4)
 1005398:	11000a04 	addi	r4,r2,40
 100539c:	10053c01 	jmpi	10053c0 <altera_avalon_jtag_uart_close>

010053a0 <altera_avalon_jtag_uart_write_fd>:
int 
altera_avalon_jtag_uart_write_fd(alt_fd* fd, const char* buffer, int space)
{
    altera_avalon_jtag_uart_dev* dev = (altera_avalon_jtag_uart_dev*) fd->dev; 

    return altera_avalon_jtag_uart_write(&dev->state, buffer, space,
 10053a0:	20800017 	ldw	r2,0(r4)
 10053a4:	21c00217 	ldw	r7,8(r4)
 10053a8:	11000a04 	addi	r4,r2,40
 10053ac:	10057c81 	jmpi	10057c8 <altera_avalon_jtag_uart_write>

010053b0 <altera_avalon_jtag_uart_read_fd>:
int 
altera_avalon_jtag_uart_read_fd(alt_fd* fd, char* buffer, int space)
{
    altera_avalon_jtag_uart_dev* dev = (altera_avalon_jtag_uart_dev*) fd->dev; 

    return altera_avalon_jtag_uart_read(&dev->state, buffer, space,
 10053b0:	20800017 	ldw	r2,0(r4)
 10053b4:	21c00217 	ldw	r7,8(r4)
 10053b8:	11000a04 	addi	r4,r2,40
 10053bc:	100565c1 	jmpi	100565c <altera_avalon_jtag_uart_read>

010053c0 <altera_avalon_jtag_uart_close>:
{
  /* 
   * Wait for all transmit data to be emptied by the JTAG UART ISR, or
   * for a host-inactivity timeout, in which case transmit data will be lost
   */
  while ( (sp->tx_out != sp->tx_in) && (sp->host_inactive < sp->timeout) ) {
 10053c0:	21800c17 	ldw	r6,48(r4)
 10053c4:	2950000c 	andi	r5,r5,16384
 10053c8:	280b003a 	cmpeq	r5,r5,zero
 10053cc:	20800d17 	ldw	r2,52(r4)
 10053d0:	11800626 	beq	r2,r6,10053ec <altera_avalon_jtag_uart_close+0x2c>
 10053d4:	20c00917 	ldw	r3,36(r4)
 10053d8:	20800117 	ldw	r2,4(r4)
 10053dc:	1880032e 	bgeu	r3,r2,10053ec <altera_avalon_jtag_uart_close+0x2c>
    if (flags & O_NONBLOCK) {
 10053e0:	283ffa1e 	bne	r5,zero,10053cc <altera_avalon_jtag_uart_close+0xc>
 10053e4:	00bffd44 	movi	r2,-11
 10053e8:	f800283a 	ret
{
  /* 
   * Wait for all transmit data to be emptied by the JTAG UART ISR, or
   * for a host-inactivity timeout, in which case transmit data will be lost
   */
  while ( (sp->tx_out != sp->tx_in) && (sp->host_inactive < sp->timeout) ) {
 10053ec:	0005883a 	mov	r2,zero
      return -EWOULDBLOCK; 
    }
  }

  return 0;
}
 10053f0:	f800283a 	ret

010053f4 <altera_avalon_jtag_uart_timeout>:
static alt_u32 
altera_avalon_jtag_uart_timeout(void* context) 
{
  altera_avalon_jtag_uart_state* sp = (altera_avalon_jtag_uart_state *) context;

  unsigned int control = IORD_ALTERA_AVALON_JTAG_UART_CONTROL(sp->base);
 10053f4:	20c00017 	ldw	r3,0(r4)
 10053f8:	18800137 	ldwio	r2,4(r3)

  if (control & ALTERA_AVALON_JTAG_UART_CONTROL_AC_MSK)
 10053fc:	1081000c 	andi	r2,r2,1024
 1005400:	10000a1e 	bne	r2,zero,100542c <altera_avalon_jtag_uart_timeout+0x38>
  {
    IOWR_ALTERA_AVALON_JTAG_UART_CONTROL(sp->base, sp->irq_enable | ALTERA_AVALON_JTAG_UART_CONTROL_AC_MSK);
    sp->host_inactive = 0;
  }
  else if (sp->host_inactive < INT_MAX - 2) {
 1005404:	20c00917 	ldw	r3,36(r4)
 1005408:	00a00034 	movhi	r2,32768
 100540c:	10bfff04 	addi	r2,r2,-4
    sp->host_inactive++;
 1005410:	19400044 	addi	r5,r3,1
  if (control & ALTERA_AVALON_JTAG_UART_CONTROL_AC_MSK)
  {
    IOWR_ALTERA_AVALON_JTAG_UART_CONTROL(sp->base, sp->irq_enable | ALTERA_AVALON_JTAG_UART_CONTROL_AC_MSK);
    sp->host_inactive = 0;
  }
  else if (sp->host_inactive < INT_MAX - 2) {
 1005414:	10c00136 	bltu	r2,r3,100541c <altera_avalon_jtag_uart_timeout+0x28>
    sp->host_inactive++;
 1005418:	21400915 	stw	r5,36(r4)
      ALT_FLAG_POST (sp->events, ALT_JTAG_UART_TIMEOUT, OS_FLAG_SET);
    }
  }

  return alt_ticks_per_second();
}
 100541c:	00c04074 	movhi	r3,257
 1005420:	18e8d504 	addi	r3,r3,-23724
 1005424:	18800017 	ldw	r2,0(r3)
 1005428:	f800283a 	ret

  unsigned int control = IORD_ALTERA_AVALON_JTAG_UART_CONTROL(sp->base);

  if (control & ALTERA_AVALON_JTAG_UART_CONTROL_AC_MSK)
  {
    IOWR_ALTERA_AVALON_JTAG_UART_CONTROL(sp->base, sp->irq_enable | ALTERA_AVALON_JTAG_UART_CONTROL_AC_MSK);
 100542c:	20800817 	ldw	r2,32(r4)
 1005430:	10810014 	ori	r2,r2,1024
 1005434:	18800135 	stwio	r2,4(r3)
      ALT_FLAG_POST (sp->events, ALT_JTAG_UART_TIMEOUT, OS_FLAG_SET);
    }
  }

  return alt_ticks_per_second();
}
 1005438:	00c04074 	movhi	r3,257
 100543c:	18e8d504 	addi	r3,r3,-23724
 1005440:	18800017 	ldw	r2,0(r3)
  unsigned int control = IORD_ALTERA_AVALON_JTAG_UART_CONTROL(sp->base);

  if (control & ALTERA_AVALON_JTAG_UART_CONTROL_AC_MSK)
  {
    IOWR_ALTERA_AVALON_JTAG_UART_CONTROL(sp->base, sp->irq_enable | ALTERA_AVALON_JTAG_UART_CONTROL_AC_MSK);
    sp->host_inactive = 0;
 1005444:	20000915 	stw	zero,36(r4)
      ALT_FLAG_POST (sp->events, ALT_JTAG_UART_TIMEOUT, OS_FLAG_SET);
    }
  }

  return alt_ticks_per_second();
}
 1005448:	f800283a 	ret

0100544c <altera_avalon_jtag_uart_init>:
  ALT_SEM_CREATE(&sp->write_lock, 1);

  /* enable read interrupts at the device */
  sp->irq_enable = ALTERA_AVALON_JTAG_UART_CONTROL_RE_MSK;

  IOWR_ALTERA_AVALON_JTAG_UART_CONTROL(sp->base, sp->irq_enable); 
 100544c:	20c00017 	ldw	r3,0(r4)
 * Return 1 on sucessful IRQ register and 0 on failure.
 */

void altera_avalon_jtag_uart_init(altera_avalon_jtag_uart_state* sp, 
                                  int irq_controller_id, int irq)
{
 1005450:	defffd04 	addi	sp,sp,-12
 1005454:	dc000115 	stw	r16,4(sp)
  ALT_FLAG_CREATE(&sp->events, 0);
  ALT_SEM_CREATE(&sp->read_lock, 1);
  ALT_SEM_CREATE(&sp->write_lock, 1);

  /* enable read interrupts at the device */
  sp->irq_enable = ALTERA_AVALON_JTAG_UART_CONTROL_RE_MSK;
 1005458:	00800044 	movi	r2,1
 * Return 1 on sucessful IRQ register and 0 on failure.
 */

void altera_avalon_jtag_uart_init(altera_avalon_jtag_uart_state* sp, 
                                  int irq_controller_id, int irq)
{
 100545c:	2021883a 	mov	r16,r4
 1005460:	dfc00215 	stw	ra,8(sp)
  ALT_FLAG_CREATE(&sp->events, 0);
  ALT_SEM_CREATE(&sp->read_lock, 1);
  ALT_SEM_CREATE(&sp->write_lock, 1);

  /* enable read interrupts at the device */
  sp->irq_enable = ALTERA_AVALON_JTAG_UART_CONTROL_RE_MSK;
 1005464:	20800815 	stw	r2,32(r4)

  IOWR_ALTERA_AVALON_JTAG_UART_CONTROL(sp->base, sp->irq_enable); 
 1005468:	18800135 	stwio	r2,4(r3)
  
  /* register the interrupt handler */
#ifdef ALT_ENHANCED_INTERRUPT_API_PRESENT
  alt_ic_isr_register(irq_controller_id, irq, altera_avalon_jtag_uart_irq, 
 100546c:	2809883a 	mov	r4,r5
 1005470:	800f883a 	mov	r7,r16
 1005474:	300b883a 	mov	r5,r6
 1005478:	01804034 	movhi	r6,256
 100547c:	31953304 	addi	r6,r6,21708
 1005480:	d8000015 	stw	zero,0(sp)
 1005484:	1006fc80 	call	1006fc8 <alt_ic_isr_register>
#endif  

  /* Register an alarm to go off every second to check for presence of host */
  sp->host_inactive = 0;

  if (alt_alarm_start(&sp->alarm, alt_ticks_per_second(), 
 1005488:	00c04074 	movhi	r3,257
 100548c:	18e8d504 	addi	r3,r3,-23724
 1005490:	19400017 	ldw	r5,0(r3)
#else
  alt_irq_register(irq, sp, altera_avalon_jtag_uart_irq);
#endif  

  /* Register an alarm to go off every second to check for presence of host */
  sp->host_inactive = 0;
 1005494:	80000915 	stw	zero,36(r16)

  if (alt_alarm_start(&sp->alarm, alt_ticks_per_second(), 
 1005498:	81000204 	addi	r4,r16,8
 100549c:	01804034 	movhi	r6,256
 10054a0:	3194fd04 	addi	r6,r6,21492
 10054a4:	800f883a 	mov	r7,r16
 10054a8:	1006c800 	call	1006c80 <alt_alarm_start>
 10054ac:	1000030e 	bge	r2,zero,10054bc <altera_avalon_jtag_uart_init+0x70>
    &altera_avalon_jtag_uart_timeout, sp) < 0)
  {
    /* If we can't set the alarm then record "don't know if host present" 
     * and behave as though the host is present.
     */
    sp->timeout = INT_MAX;
 10054b0:	00a00034 	movhi	r2,32768
 10054b4:	10bfffc4 	addi	r2,r2,-1
 10054b8:	80800115 	stw	r2,4(r16)
  }

  /* ALT_LOG - see altera_hal/HAL/inc/sys/alt_log_printf.h */ 
  ALT_LOG_JTAG_UART_ALARM_REGISTER(sp, sp->base);
}
 10054bc:	dfc00217 	ldw	ra,8(sp)
 10054c0:	dc000117 	ldw	r16,4(sp)
 10054c4:	dec00304 	addi	sp,sp,12
 10054c8:	f800283a 	ret

010054cc <altera_avalon_jtag_uart_irq>:
#else
static void altera_avalon_jtag_uart_irq(void* context, alt_u32 id)
#endif
{
  altera_avalon_jtag_uart_state* sp = (altera_avalon_jtag_uart_state*) context;
  unsigned int base = sp->base;
 10054cc:	21c00017 	ldw	r7,0(r4)
#ifdef ALT_ENHANCED_INTERRUPT_API_PRESENT
static void altera_avalon_jtag_uart_irq(void* context)
#else
static void altera_avalon_jtag_uart_irq(void* context, alt_u32 id)
#endif
{
 10054d0:	200b883a 	mov	r5,r4
  altera_avalon_jtag_uart_state* sp = (altera_avalon_jtag_uart_state*) context;
  unsigned int base = sp->base;
 10054d4:	3a800104 	addi	r10,r7,4
  /* ALT_LOG - see altera_hal/HAL/inc/sys/alt_log_printf.h */ 
  ALT_LOG_JTAG_UART_ISR_FUNCTION(base, sp);

  for ( ; ; )
  {
    unsigned int control = IORD_ALTERA_AVALON_JTAG_UART_CONTROL(base);
 10054d8:	52400037 	ldwio	r9,0(r10)

    /* Return once nothing more to do */
    if ((control & (ALTERA_AVALON_JTAG_UART_CONTROL_RI_MSK | ALTERA_AVALON_JTAG_UART_CONTROL_WI_MSK)) == 0)
 10054dc:	4880c00c 	andi	r2,r9,768
 10054e0:	10003426 	beq	r2,zero,10055b4 <altera_avalon_jtag_uart_irq+0xe8>
      break;

    if (control & ALTERA_AVALON_JTAG_UART_CONTROL_RI_MSK)
 10054e4:	4880400c 	andi	r2,r9,256
 10054e8:	10001626 	beq	r2,zero,1005544 <altera_avalon_jtag_uart_irq+0x78>
      for ( ; ; )
      {
        /* Check whether there is space in the buffer.  If not then we must not
         * read any characters from the buffer as they will be lost.
         */
        unsigned int next = (sp->rx_in + 1) % ALTERA_AVALON_JTAG_UART_BUF_LEN;
 10054ec:	28800a17 	ldw	r2,40(r5)
        if (next == sp->rx_out)
 10054f0:	2a000b17 	ldw	r8,44(r5)
 10054f4:	10800044 	addi	r2,r2,1
 10054f8:	1081ffcc 	andi	r2,r2,2047
 10054fc:	40800c1e 	bne	r8,r2,1005530 <altera_avalon_jtag_uart_irq+0x64>
 1005500:	00002d06 	br	10055b8 <altera_avalon_jtag_uart_irq+0xec>
        data = IORD_ALTERA_AVALON_JTAG_UART_DATA(base);
        
        if ((data & ALTERA_AVALON_JTAG_UART_DATA_RVALID_MSK) == 0)
          break;

        sp->rx_buf[sp->rx_in] = (data & ALTERA_AVALON_JTAG_UART_DATA_DATA_MSK) >> ALTERA_AVALON_JTAG_UART_DATA_DATA_OFST;
 1005504:	28800a17 	ldw	r2,40(r5)
        sp->rx_in = (sp->rx_in + 1) % ALTERA_AVALON_JTAG_UART_BUF_LEN;
 1005508:	28c00a17 	ldw	r3,40(r5)
        data = IORD_ALTERA_AVALON_JTAG_UART_DATA(base);
        
        if ((data & ALTERA_AVALON_JTAG_UART_DATA_RVALID_MSK) == 0)
          break;

        sp->rx_buf[sp->rx_in] = (data & ALTERA_AVALON_JTAG_UART_DATA_DATA_MSK) >> ALTERA_AVALON_JTAG_UART_DATA_DATA_OFST;
 100550c:	1145883a 	add	r2,r2,r5
        sp->rx_in = (sp->rx_in + 1) % ALTERA_AVALON_JTAG_UART_BUF_LEN;
 1005510:	18c00044 	addi	r3,r3,1
 1005514:	18c1ffcc 	andi	r3,r3,2047
 1005518:	28c00a15 	stw	r3,40(r5)
      for ( ; ; )
      {
        /* Check whether there is space in the buffer.  If not then we must not
         * read any characters from the buffer as they will be lost.
         */
        unsigned int next = (sp->rx_in + 1) % ALTERA_AVALON_JTAG_UART_BUF_LEN;
 100551c:	29000a17 	ldw	r4,40(r5)
        data = IORD_ALTERA_AVALON_JTAG_UART_DATA(base);
        
        if ((data & ALTERA_AVALON_JTAG_UART_DATA_RVALID_MSK) == 0)
          break;

        sp->rx_buf[sp->rx_in] = (data & ALTERA_AVALON_JTAG_UART_DATA_DATA_MSK) >> ALTERA_AVALON_JTAG_UART_DATA_DATA_OFST;
 1005520:	11800e05 	stb	r6,56(r2)
      {
        /* Check whether there is space in the buffer.  If not then we must not
         * read any characters from the buffer as they will be lost.
         */
        unsigned int next = (sp->rx_in + 1) % ALTERA_AVALON_JTAG_UART_BUF_LEN;
        if (next == sp->rx_out)
 1005524:	21000044 	addi	r4,r4,1
 1005528:	2101ffcc 	andi	r4,r4,2047
 100552c:	22000326 	beq	r4,r8,100553c <altera_avalon_jtag_uart_irq+0x70>
          break;

        /* Try to remove a character from the FIFO and find out whether there
         * are any more characters remaining.
         */
        data = IORD_ALTERA_AVALON_JTAG_UART_DATA(base);
 1005530:	39800037 	ldwio	r6,0(r7)
        
        if ((data & ALTERA_AVALON_JTAG_UART_DATA_RVALID_MSK) == 0)
 1005534:	30a0000c 	andi	r2,r6,32768
 1005538:	103ff21e 	bne	r2,zero,1005504 <altera_avalon_jtag_uart_irq+0x38>

        /* Post an event to notify jtag_uart_read that a character has been read */
        ALT_FLAG_POST (sp->events, ALT_JTAG_UART_READ_RDY, OS_FLAG_SET);
      }

      if (data & ALTERA_AVALON_JTAG_UART_DATA_RAVAIL_MSK)
 100553c:	30bfffec 	andhi	r2,r6,65535
 1005540:	10001d1e 	bne	r2,zero,10055b8 <altera_avalon_jtag_uart_irq+0xec>
        /* Dummy read to ensure IRQ is cleared prior to ISR completion */
        IORD_ALTERA_AVALON_JTAG_UART_CONTROL(base);
      }
    }

    if (control & ALTERA_AVALON_JTAG_UART_CONTROL_WI_MSK)
 1005544:	4880800c 	andi	r2,r9,512
 1005548:	103fe326 	beq	r2,zero,10054d8 <altera_avalon_jtag_uart_irq+0xc>
    {
      /* process a write irq */
      unsigned int space = (control & ALTERA_AVALON_JTAG_UART_CONTROL_WSPACE_MSK) >> ALTERA_AVALON_JTAG_UART_CONTROL_WSPACE_OFST;
 100554c:	4808d43a 	srli	r4,r9,16

      while (space > 0 && sp->tx_out != sp->tx_in)
 1005550:	20000b1e 	bne	r4,zero,1005580 <altera_avalon_jtag_uart_irq+0xb4>
 1005554:	003fe006 	br	10054d8 <altera_avalon_jtag_uart_irq+0xc>
      {
        IOWR_ALTERA_AVALON_JTAG_UART_DATA(base, sp->tx_buf[sp->tx_out]);
 1005558:	28800d17 	ldw	r2,52(r5)
 100555c:	1145883a 	add	r2,r2,r5
 1005560:	10c20e07 	ldb	r3,2104(r2)
 1005564:	38c00035 	stwio	r3,0(r7)

        sp->tx_out = (sp->tx_out + 1) % ALTERA_AVALON_JTAG_UART_BUF_LEN;
 1005568:	28800d17 	ldw	r2,52(r5)

        /* Post an event to notify jtag_uart_write that a character has been written */
        ALT_FLAG_POST (sp->events, ALT_JTAG_UART_WRITE_RDY, OS_FLAG_SET);

        space--;
 100556c:	213fffc4 	addi	r4,r4,-1

      while (space > 0 && sp->tx_out != sp->tx_in)
      {
        IOWR_ALTERA_AVALON_JTAG_UART_DATA(base, sp->tx_buf[sp->tx_out]);

        sp->tx_out = (sp->tx_out + 1) % ALTERA_AVALON_JTAG_UART_BUF_LEN;
 1005570:	10800044 	addi	r2,r2,1
 1005574:	1081ffcc 	andi	r2,r2,2047
 1005578:	28800d15 	stw	r2,52(r5)
    if (control & ALTERA_AVALON_JTAG_UART_CONTROL_WI_MSK)
    {
      /* process a write irq */
      unsigned int space = (control & ALTERA_AVALON_JTAG_UART_CONTROL_WSPACE_MSK) >> ALTERA_AVALON_JTAG_UART_CONTROL_WSPACE_OFST;

      while (space > 0 && sp->tx_out != sp->tx_in)
 100557c:	203fd626 	beq	r4,zero,10054d8 <altera_avalon_jtag_uart_irq+0xc>
 1005580:	28c00d17 	ldw	r3,52(r5)
 1005584:	28800c17 	ldw	r2,48(r5)
 1005588:	18bff31e 	bne	r3,r2,1005558 <altera_avalon_jtag_uart_irq+0x8c>
      }

      if (space > 0)
      {
        /* If we don't have any more data available then turn off the TX interrupt */
        sp->irq_enable &= ~ALTERA_AVALON_JTAG_UART_CONTROL_WE_MSK;
 100558c:	28800817 	ldw	r2,32(r5)
        IOWR_ALTERA_AVALON_JTAG_UART_CONTROL(sp->base, sp->irq_enable);
 1005590:	29000017 	ldw	r4,0(r5)
      }

      if (space > 0)
      {
        /* If we don't have any more data available then turn off the TX interrupt */
        sp->irq_enable &= ~ALTERA_AVALON_JTAG_UART_CONTROL_WE_MSK;
 1005594:	00ffff44 	movi	r3,-3
 1005598:	10c4703a 	and	r2,r2,r3
 100559c:	28800815 	stw	r2,32(r5)
        IOWR_ALTERA_AVALON_JTAG_UART_CONTROL(sp->base, sp->irq_enable);
 10055a0:	20800135 	stwio	r2,4(r4)
        
        /* Dummy read to ensure IRQ is cleared prior to ISR completion */
        IORD_ALTERA_AVALON_JTAG_UART_CONTROL(base);
 10055a4:	50c00037 	ldwio	r3,0(r10)
  /* ALT_LOG - see altera_hal/HAL/inc/sys/alt_log_printf.h */ 
  ALT_LOG_JTAG_UART_ISR_FUNCTION(base, sp);

  for ( ; ; )
  {
    unsigned int control = IORD_ALTERA_AVALON_JTAG_UART_CONTROL(base);
 10055a8:	52400037 	ldwio	r9,0(r10)

    /* Return once nothing more to do */
    if ((control & (ALTERA_AVALON_JTAG_UART_CONTROL_RI_MSK | ALTERA_AVALON_JTAG_UART_CONTROL_WI_MSK)) == 0)
 10055ac:	4880c00c 	andi	r2,r9,768
 10055b0:	103fcc1e 	bne	r2,zero,10054e4 <altera_avalon_jtag_uart_irq+0x18>
 10055b4:	f800283a 	ret
      if (data & ALTERA_AVALON_JTAG_UART_DATA_RAVAIL_MSK)
      {
        /* If there is still data available here then the buffer is full 
         * so turn off receive interrupts until some space becomes available.
         */
        sp->irq_enable &= ~ALTERA_AVALON_JTAG_UART_CONTROL_RE_MSK;
 10055b8:	28800817 	ldw	r2,32(r5)
 10055bc:	00ffff84 	movi	r3,-2
 10055c0:	10c4703a 	and	r2,r2,r3
 10055c4:	28800815 	stw	r2,32(r5)
        IOWR_ALTERA_AVALON_JTAG_UART_CONTROL(base, sp->irq_enable);
 10055c8:	50800035 	stwio	r2,0(r10)
        
        /* Dummy read to ensure IRQ is cleared prior to ISR completion */
        IORD_ALTERA_AVALON_JTAG_UART_CONTROL(base);
 10055cc:	50c00037 	ldwio	r3,0(r10)
 10055d0:	003fdc06 	br	1005544 <altera_avalon_jtag_uart_irq+0x78>

010055d4 <altera_avalon_jtag_uart_ioctl>:
altera_avalon_jtag_uart_ioctl(altera_avalon_jtag_uart_state* sp, int req,
  void* arg)
{
  int rc = -ENOTTY;

  switch (req)
 10055d4:	009a8044 	movi	r2,27137
 10055d8:	28800f26 	beq	r5,r2,1005618 <altera_avalon_jtag_uart_ioctl+0x44>
 10055dc:	009a8084 	movi	r2,27138
 10055e0:	28800326 	beq	r5,r2,10055f0 <altera_avalon_jtag_uart_ioctl+0x1c>

  case TIOCGCONNECTED:
    /* Find out whether host is connected */
    if (sp->timeout != INT_MAX)
    {
      *((int *)arg) = (sp->host_inactive < sp->timeout) ? 1 : 0;
 10055e4:	00fff9c4 	movi	r3,-25
  default:
    break;
  }

  return rc;
}
 10055e8:	1805883a 	mov	r2,r3
 10055ec:	f800283a 	ret
    }
    break;

  case TIOCGCONNECTED:
    /* Find out whether host is connected */
    if (sp->timeout != INT_MAX)
 10055f0:	21400117 	ldw	r5,4(r4)
 10055f4:	00a00034 	movhi	r2,32768
 10055f8:	10bfffc4 	addi	r2,r2,-1
 10055fc:	28bff926 	beq	r5,r2,10055e4 <altera_avalon_jtag_uart_ioctl+0x10>
    {
      *((int *)arg) = (sp->host_inactive < sp->timeout) ? 1 : 0;
 1005600:	20800917 	ldw	r2,36(r4)
 1005604:	0007883a 	mov	r3,zero
 1005608:	1145803a 	cmpltu	r2,r2,r5
 100560c:	30800015 	stw	r2,0(r6)
  default:
    break;
  }

  return rc;
}
 1005610:	1805883a 	mov	r2,r3
 1005614:	f800283a 	ret

  switch (req)
  {
  case TIOCSTIMEOUT:
    /* Set the time to wait until assuming host is not connected */
    if (sp->timeout != INT_MAX)
 1005618:	20c00117 	ldw	r3,4(r4)
 100561c:	00a00034 	movhi	r2,32768
 1005620:	10bfffc4 	addi	r2,r2,-1
 1005624:	18bfef26 	beq	r3,r2,10055e4 <altera_avalon_jtag_uart_ioctl+0x10>
    {
      int timeout = *((int *)arg);
      sp->timeout = (timeout >= 2 && timeout < INT_MAX) ? timeout : INT_MAX - 1;
 1005628:	31800017 	ldw	r6,0(r6)
 100562c:	10bfff44 	addi	r2,r2,-3
 1005630:	30ffff84 	addi	r3,r6,-2
 1005634:	10c00436 	bltu	r2,r3,1005648 <altera_avalon_jtag_uart_ioctl+0x74>
 1005638:	0007883a 	mov	r3,zero
 100563c:	21800115 	stw	r6,4(r4)
  default:
    break;
  }

  return rc;
}
 1005640:	1805883a 	mov	r2,r3
 1005644:	f800283a 	ret
  case TIOCSTIMEOUT:
    /* Set the time to wait until assuming host is not connected */
    if (sp->timeout != INT_MAX)
    {
      int timeout = *((int *)arg);
      sp->timeout = (timeout >= 2 && timeout < INT_MAX) ? timeout : INT_MAX - 1;
 1005648:	01a00034 	movhi	r6,32768
 100564c:	31bfff84 	addi	r6,r6,-2
 1005650:	0007883a 	mov	r3,zero
 1005654:	21800115 	stw	r6,4(r4)
 1005658:	003ff906 	br	1005640 <altera_avalon_jtag_uart_ioctl+0x6c>

0100565c <altera_avalon_jtag_uart_read>:
/* ----------------------------------------------------------- */

int 
altera_avalon_jtag_uart_read(altera_avalon_jtag_uart_state* sp, 
  char * buffer, int space, int flags)
{
 100565c:	defff404 	addi	sp,sp,-48
 1005660:	dd400715 	stw	r21,28(sp)
 1005664:	dcc00515 	stw	r19,20(sp)
 1005668:	dfc00b15 	stw	ra,44(sp)
 100566c:	df000a15 	stw	fp,40(sp)
 1005670:	ddc00915 	stw	r23,36(sp)
 1005674:	dd800815 	stw	r22,32(sp)
 1005678:	dd000615 	stw	r20,24(sp)
 100567c:	dc800415 	stw	r18,16(sp)
 1005680:	dc400315 	stw	r17,12(sp)
 1005684:	dc000215 	stw	r16,8(sp)
 1005688:	302b883a 	mov	r21,r6
 100568c:	2027883a 	mov	r19,r4
 1005690:	d9400015 	stw	r5,0(sp)
 1005694:	d9c00115 	stw	r7,4(sp)
   * When running in a multi threaded environment, obtain the "read_lock"
   * semaphore. This ensures that reading from the device is thread-safe.
   */
  ALT_SEM_PEND (sp->read_lock, 0);

  while (space > 0)
 1005698:	0180470e 	bge	zero,r6,10057b8 <altera_avalon_jtag_uart_read+0x15c>
    alt_irq_enable_all(context);
  }

  if (ptr != buffer)
    return ptr - buffer;
  else if (flags & O_NONBLOCK)
 100569c:	dd000017 	ldw	r20,0(sp)
 10056a0:	07020004 	movi	fp,2048
 10056a4:	9dc00e04 	addi	r23,r19,56

    /* Read as much data as possible */
    do
    {
      in  = sp->rx_in;
      out = sp->rx_out;
 10056a8:	9c400b17 	ldw	r17,44(r19)
    unsigned int in, out;

    /* Read as much data as possible */
    do
    {
      in  = sp->rx_in;
 10056ac:	9d800a17 	ldw	r22,40(r19)
      out = sp->rx_out;

      if (in >= out)
        n = in - out;
      else
        n = ALTERA_AVALON_JTAG_UART_BUF_LEN - out;
 10056b0:	e461c83a 	sub	r16,fp,r17
    do
    {
      in  = sp->rx_in;
      out = sp->rx_out;

      if (in >= out)
 10056b4:	b4400136 	bltu	r22,r17,10056bc <altera_avalon_jtag_uart_read+0x60>
        n = in - out;
 10056b8:	b461c83a 	sub	r16,r22,r17
        break; /* No more data available */

      if (n > space)
        n = space;

      memcpy(ptr, sp->rx_buf + out, n);
 10056bc:	a009883a 	mov	r4,r20
 10056c0:	bc4b883a 	add	r5,r23,r17
 10056c4:	800d883a 	mov	r6,r16
      if (in >= out)
        n = in - out;
      else
        n = ALTERA_AVALON_JTAG_UART_BUF_LEN - out;

      if (n == 0)
 10056c8:	80000826 	beq	r16,zero,10056ec <altera_avalon_jtag_uart_read+0x90>
        break; /* No more data available */

      if (n > space)
 10056cc:	ac002136 	bltu	r21,r16,1005754 <altera_avalon_jtag_uart_read+0xf8>
        n = space;

      memcpy(ptr, sp->rx_buf + out, n);
 10056d0:	1001ae40 	call	1001ae4 <memcpy>
      ptr   += n;
      space -= n;

      sp->rx_out = (out + n) % ALTERA_AVALON_JTAG_UART_BUF_LEN;
 10056d4:	8445883a 	add	r2,r16,r17
 10056d8:	1081ffcc 	andi	r2,r2,2047
      if (n > space)
        n = space;

      memcpy(ptr, sp->rx_buf + out, n);
      ptr   += n;
      space -= n;
 10056dc:	ac2bc83a 	sub	r21,r21,r16

      sp->rx_out = (out + n) % ALTERA_AVALON_JTAG_UART_BUF_LEN;
 10056e0:	98800b15 	stw	r2,44(r19)

      if (n > space)
        n = space;

      memcpy(ptr, sp->rx_buf + out, n);
      ptr   += n;
 10056e4:	a429883a 	add	r20,r20,r16
      space -= n;

      sp->rx_out = (out + n) % ALTERA_AVALON_JTAG_UART_BUF_LEN;
    }
    while (space > 0);
 10056e8:	057fef16 	blt	zero,r21,10056a8 <altera_avalon_jtag_uart_read+0x4c>

    /* If we read any data then return it */
    if (ptr != buffer)
 10056ec:	d8800017 	ldw	r2,0(sp)
 10056f0:	a080241e 	bne	r20,r2,1005784 <altera_avalon_jtag_uart_read+0x128>
      break;

    /* If in non-blocking mode then return error */
    if (flags & O_NONBLOCK)
 10056f4:	d8c00117 	ldw	r3,4(sp)
 10056f8:	1890000c 	andi	r2,r3,16384
 10056fc:	1000301e 	bne	r2,zero,10057c0 <altera_avalon_jtag_uart_read+0x164>
      while (in == sp->rx_in && sp->host_inactive < sp->timeout)
        ;
    }
#else
    /* No OS: Always spin */
    while (in == sp->rx_in && sp->host_inactive < sp->timeout)
 1005700:	98800a17 	ldw	r2,40(r19)
 1005704:	b080031e 	bne	r22,r2,1005714 <altera_avalon_jtag_uart_read+0xb8>
 1005708:	98c00917 	ldw	r3,36(r19)
 100570c:	98800117 	ldw	r2,4(r19)
 1005710:	18bffb36 	bltu	r3,r2,1005700 <altera_avalon_jtag_uart_read+0xa4>
      ;
#endif /* __ucosii__ */

    if (in == sp->rx_in)
 1005714:	98800a17 	ldw	r2,40(r19)
 1005718:	b0800126 	beq	r22,r2,1005720 <altera_avalon_jtag_uart_read+0xc4>
   * When running in a multi threaded environment, obtain the "read_lock"
   * semaphore. This ensures that reading from the device is thread-safe.
   */
  ALT_SEM_PEND (sp->read_lock, 0);

  while (space > 0)
 100571c:	057fdf16 	blt	zero,r21,100569c <altera_avalon_jtag_uart_read+0x40>
 1005720:	00bffec4 	movi	r2,-5
    return ptr - buffer;
  else if (flags & O_NONBLOCK)
    return -EWOULDBLOCK;
  else
    return -EIO;
}
 1005724:	dfc00b17 	ldw	ra,44(sp)
 1005728:	df000a17 	ldw	fp,40(sp)
 100572c:	ddc00917 	ldw	r23,36(sp)
 1005730:	dd800817 	ldw	r22,32(sp)
 1005734:	dd400717 	ldw	r21,28(sp)
 1005738:	dd000617 	ldw	r20,24(sp)
 100573c:	dcc00517 	ldw	r19,20(sp)
 1005740:	dc800417 	ldw	r18,16(sp)
 1005744:	dc400317 	ldw	r17,12(sp)
 1005748:	dc000217 	ldw	r16,8(sp)
 100574c:	dec00c04 	addi	sp,sp,48
 1005750:	f800283a 	ret
        break; /* No more data available */

      if (n > space)
        n = space;

      memcpy(ptr, sp->rx_buf + out, n);
 1005754:	99400e04 	addi	r5,r19,56
 1005758:	a009883a 	mov	r4,r20
 100575c:	a80d883a 	mov	r6,r21
 1005760:	894b883a 	add	r5,r17,r5
 1005764:	1001ae40 	call	1001ae4 <memcpy>
      sp->rx_out = (out + n) % ALTERA_AVALON_JTAG_UART_BUF_LEN;
    }
    while (space > 0);

    /* If we read any data then return it */
    if (ptr != buffer)
 1005768:	d8800017 	ldw	r2,0(sp)

      memcpy(ptr, sp->rx_buf + out, n);
      ptr   += n;
      space -= n;

      sp->rx_out = (out + n) % ALTERA_AVALON_JTAG_UART_BUF_LEN;
 100576c:	ac47883a 	add	r3,r21,r17

      if (n > space)
        n = space;

      memcpy(ptr, sp->rx_buf + out, n);
      ptr   += n;
 1005770:	a569883a 	add	r20,r20,r21
      space -= n;

      sp->rx_out = (out + n) % ALTERA_AVALON_JTAG_UART_BUF_LEN;
 1005774:	18c1ffcc 	andi	r3,r3,2047
      if (n > space)
        n = space;

      memcpy(ptr, sp->rx_buf + out, n);
      ptr   += n;
      space -= n;
 1005778:	002b883a 	mov	r21,zero

      sp->rx_out = (out + n) % ALTERA_AVALON_JTAG_UART_BUF_LEN;
 100577c:	98c00b15 	stw	r3,44(r19)
    }
    while (space > 0);

    /* If we read any data then return it */
    if (ptr != buffer)
 1005780:	a0bfdc26 	beq	r20,r2,10056f4 <altera_avalon_jtag_uart_read+0x98>
static ALT_INLINE alt_irq_context ALT_ALWAYS_INLINE 
       alt_irq_disable_all (void)
{
  alt_irq_context context;

  NIOS2_READ_STATUS (context);
 1005784:	0009303a 	rdctl	r4,status

  NIOS2_WRITE_STATUS (context & ~NIOS2_STATUS_PIE_MSK);
 1005788:	00bfff84 	movi	r2,-2
 100578c:	2084703a 	and	r2,r4,r2
 1005790:	1001703a 	wrctl	status,r2

  if (ptr != buffer)
  {
    /* If we read any data then there is space in the buffer so enable interrupts */
    context = alt_irq_disable_all();
    sp->irq_enable |= ALTERA_AVALON_JTAG_UART_CONTROL_RE_MSK;
 1005794:	98c00817 	ldw	r3,32(r19)
    IOWR_ALTERA_AVALON_JTAG_UART_CONTROL(sp->base, sp->irq_enable);
 1005798:	98800017 	ldw	r2,0(r19)

  if (ptr != buffer)
  {
    /* If we read any data then there is space in the buffer so enable interrupts */
    context = alt_irq_disable_all();
    sp->irq_enable |= ALTERA_AVALON_JTAG_UART_CONTROL_RE_MSK;
 100579c:	18c00054 	ori	r3,r3,1
 10057a0:	98c00815 	stw	r3,32(r19)
    IOWR_ALTERA_AVALON_JTAG_UART_CONTROL(sp->base, sp->irq_enable);
 10057a4:	10c00135 	stwio	r3,4(r2)
  status &= ~NIOS2_STATUS_PIE_MSK;
  status |= (context & NIOS2_STATUS_PIE_MSK);
  
  NIOS2_WRITE_STATUS (status);
#else
  NIOS2_WRITE_STATUS (context);
 10057a8:	2001703a 	wrctl	status,r4
    alt_irq_enable_all(context);
  }

  if (ptr != buffer)
    return ptr - buffer;
 10057ac:	d8c00017 	ldw	r3,0(sp)
 10057b0:	a0c5c83a 	sub	r2,r20,r3
 10057b4:	003fdb06 	br	1005724 <altera_avalon_jtag_uart_read+0xc8>
  else if (flags & O_NONBLOCK)
 10057b8:	3890000c 	andi	r2,r7,16384
 10057bc:	103fd826 	beq	r2,zero,1005720 <altera_avalon_jtag_uart_read+0xc4>
   * When running in a multi threaded environment, obtain the "read_lock"
   * semaphore. This ensures that reading from the device is thread-safe.
   */
  ALT_SEM_PEND (sp->read_lock, 0);

  while (space > 0)
 10057c0:	00bffd44 	movi	r2,-11
 10057c4:	003fd706 	br	1005724 <altera_avalon_jtag_uart_read+0xc8>

010057c8 <altera_avalon_jtag_uart_write>:
/* ----------------------------------------------------------- */

int 
altera_avalon_jtag_uart_write(altera_avalon_jtag_uart_state* sp, 
  const char * ptr, int count, int flags)
{
 10057c8:	defff804 	addi	sp,sp,-32
  ALT_SEM_PEND (sp->write_lock, 0);

  do
  {
    /* Copy as much as we can into the transmit buffer */
    while (count > 0)
 10057cc:	32000048 	cmpgei	r8,r6,1
/* ----------------------------------------------------------- */

int 
altera_avalon_jtag_uart_write(altera_avalon_jtag_uart_state* sp, 
  const char * ptr, int count, int flags)
{
 10057d0:	dd800615 	stw	r22,24(sp)
 10057d4:	dd400515 	stw	r21,20(sp)
 10057d8:	dcc00315 	stw	r19,12(sp)
 10057dc:	dc000015 	stw	r16,0(sp)
 10057e0:	dfc00715 	stw	ra,28(sp)
 10057e4:	dd000415 	stw	r20,16(sp)
 10057e8:	dc800215 	stw	r18,8(sp)
 10057ec:	dc400115 	stw	r17,4(sp)
 10057f0:	3027883a 	mov	r19,r6
 10057f4:	2021883a 	mov	r16,r4
 10057f8:	282d883a 	mov	r22,r5
 10057fc:	382b883a 	mov	r21,r7
  ALT_SEM_PEND (sp->write_lock, 0);

  do
  {
    /* Copy as much as we can into the transmit buffer */
    while (count > 0)
 1005800:	40004826 	beq	r8,zero,1005924 <altera_avalon_jtag_uart_write+0x15c>
 1005804:	2829883a 	mov	r20,r5
    {
      /* We need a stable value of the out pointer to calculate the space available */
      in  = sp->tx_in;
 1005808:	84800c17 	ldw	r18,48(r16)
      out = sp->tx_out;
 100580c:	81400d17 	ldw	r5,52(r16)

      if (in < out)
 1005810:	91403d2e 	bgeu	r18,r5,1005908 <altera_avalon_jtag_uart_write+0x140>
        n = out - 1 - in;
 1005814:	2c85c83a 	sub	r2,r5,r18
 1005818:	11bfffc4 	addi	r6,r2,-1
      else if (out > 0)
        n = ALTERA_AVALON_JTAG_UART_BUF_LEN - in;
      else
        n = ALTERA_AVALON_JTAG_UART_BUF_LEN - 1 - in;

      if (n == 0)
 100581c:	30002526 	beq	r6,zero,10058b4 <altera_avalon_jtag_uart_write+0xec>
        break;

      if (n > count)
 1005820:	3023883a 	mov	r17,r6
 1005824:	9980012e 	bgeu	r19,r6,100582c <altera_avalon_jtag_uart_write+0x64>
 1005828:	9823883a 	mov	r17,r19
        n = count;

      memcpy(sp->tx_buf + in, ptr, n);
 100582c:	81020e04 	addi	r4,r16,2104
 1005830:	a00b883a 	mov	r5,r20
 1005834:	2489883a 	add	r4,r4,r18
 1005838:	880d883a 	mov	r6,r17
 100583c:	1001ae40 	call	1001ae4 <memcpy>
      ptr   += n;
      count -= n;

      sp->tx_in = (in + n) % ALTERA_AVALON_JTAG_UART_BUF_LEN;
 1005840:	9447883a 	add	r3,r18,r17
      if (n > count)
        n = count;

      memcpy(sp->tx_buf + in, ptr, n);
      ptr   += n;
      count -= n;
 1005844:	9c67c83a 	sub	r19,r19,r17

      sp->tx_in = (in + n) % ALTERA_AVALON_JTAG_UART_BUF_LEN;
 1005848:	18c1ffcc 	andi	r3,r3,2047
 100584c:	9a000048 	cmpgei	r8,r19,1
 1005850:	80c00c15 	stw	r3,48(r16)

      if (n > count)
        n = count;

      memcpy(sp->tx_buf + in, ptr, n);
      ptr   += n;
 1005854:	a469883a 	add	r20,r20,r17
  ALT_SEM_PEND (sp->write_lock, 0);

  do
  {
    /* Copy as much as we can into the transmit buffer */
    while (count > 0)
 1005858:	403feb1e 	bne	r8,zero,1005808 <altera_avalon_jtag_uart_write+0x40>
static ALT_INLINE alt_irq_context ALT_ALWAYS_INLINE 
       alt_irq_disable_all (void)
{
  alt_irq_context context;

  NIOS2_READ_STATUS (context);
 100585c:	0009303a 	rdctl	r4,status

  NIOS2_WRITE_STATUS (context & ~NIOS2_STATUS_PIE_MSK);
 1005860:	00bfff84 	movi	r2,-2
 1005864:	2084703a 	and	r2,r4,r2
 1005868:	1001703a 	wrctl	status,r2
     *
     * For now kick the interrupt routine every time to make it transmit 
     * the data 
     */
    context = alt_irq_disable_all();
    sp->irq_enable |= ALTERA_AVALON_JTAG_UART_CONTROL_WE_MSK;
 100586c:	80c00817 	ldw	r3,32(r16)
    IOWR_ALTERA_AVALON_JTAG_UART_CONTROL(sp->base, sp->irq_enable);
 1005870:	80800017 	ldw	r2,0(r16)
     *
     * For now kick the interrupt routine every time to make it transmit 
     * the data 
     */
    context = alt_irq_disable_all();
    sp->irq_enable |= ALTERA_AVALON_JTAG_UART_CONTROL_WE_MSK;
 1005874:	18c00094 	ori	r3,r3,2
 1005878:	80c00815 	stw	r3,32(r16)
    IOWR_ALTERA_AVALON_JTAG_UART_CONTROL(sp->base, sp->irq_enable);
 100587c:	10c00135 	stwio	r3,4(r2)
  status &= ~NIOS2_STATUS_PIE_MSK;
  status |= (context & NIOS2_STATUS_PIE_MSK);
  
  NIOS2_WRITE_STATUS (status);
#else
  NIOS2_WRITE_STATUS (context);
 1005880:	2001703a 	wrctl	status,r4
   * Now that access to the circular buffer is complete, release the write
   * semaphore so that other threads can access the buffer.
   */
  ALT_SEM_POST (sp->write_lock);

  if (ptr != start)
 1005884:	b5002926 	beq	r22,r20,100592c <altera_avalon_jtag_uart_write+0x164>
    return ptr - start;
 1005888:	a585c83a 	sub	r2,r20,r22
    return ptr - start + count;
  }
#endif
  else
    return -EIO; /* Host not connected */
}
 100588c:	dfc00717 	ldw	ra,28(sp)
 1005890:	dd800617 	ldw	r22,24(sp)
 1005894:	dd400517 	ldw	r21,20(sp)
 1005898:	dd000417 	ldw	r20,16(sp)
 100589c:	dcc00317 	ldw	r19,12(sp)
 10058a0:	dc800217 	ldw	r18,8(sp)
 10058a4:	dc400117 	ldw	r17,4(sp)
 10058a8:	dc000017 	ldw	r16,0(sp)
 10058ac:	dec00804 	addi	sp,sp,32
 10058b0:	f800283a 	ret
static ALT_INLINE alt_irq_context ALT_ALWAYS_INLINE 
       alt_irq_disable_all (void)
{
  alt_irq_context context;

  NIOS2_READ_STATUS (context);
 10058b4:	0009303a 	rdctl	r4,status

  NIOS2_WRITE_STATUS (context & ~NIOS2_STATUS_PIE_MSK);
 10058b8:	00bfff84 	movi	r2,-2
 10058bc:	2084703a 	and	r2,r4,r2
 10058c0:	1001703a 	wrctl	status,r2
     *
     * For now kick the interrupt routine every time to make it transmit 
     * the data 
     */
    context = alt_irq_disable_all();
    sp->irq_enable |= ALTERA_AVALON_JTAG_UART_CONTROL_WE_MSK;
 10058c4:	80c00817 	ldw	r3,32(r16)
    IOWR_ALTERA_AVALON_JTAG_UART_CONTROL(sp->base, sp->irq_enable);
 10058c8:	80800017 	ldw	r2,0(r16)
     *
     * For now kick the interrupt routine every time to make it transmit 
     * the data 
     */
    context = alt_irq_disable_all();
    sp->irq_enable |= ALTERA_AVALON_JTAG_UART_CONTROL_WE_MSK;
 10058cc:	18c00094 	ori	r3,r3,2
 10058d0:	80c00815 	stw	r3,32(r16)
    IOWR_ALTERA_AVALON_JTAG_UART_CONTROL(sp->base, sp->irq_enable);
 10058d4:	10c00135 	stwio	r3,4(r2)
  status &= ~NIOS2_STATUS_PIE_MSK;
  status |= (context & NIOS2_STATUS_PIE_MSK);
  
  NIOS2_WRITE_STATUS (status);
#else
  NIOS2_WRITE_STATUS (context);
 10058d8:	2001703a 	wrctl	status,r4
     * some has been sent 
     */
    /* consider: test whether there is anything there while doing this and delay for at most 2s. */
    if (count > 0)
    {
      if (flags & O_NONBLOCK)
 10058dc:	a890000c 	andi	r2,r21,16384
 10058e0:	103fe81e 	bne	r2,zero,1005884 <altera_avalon_jtag_uart_write+0xbc>
      /*
       * No OS present: Always wait for data to be removed from buffer.  Once
       * the interrupt routine has removed some data then we will be able to
       * insert some more.
       */
      while (out == sp->tx_out && sp->host_inactive < sp->timeout)
 10058e4:	80800d17 	ldw	r2,52(r16)
 10058e8:	1140031e 	bne	r2,r5,10058f8 <altera_avalon_jtag_uart_write+0x130>
 10058ec:	80c00917 	ldw	r3,36(r16)
 10058f0:	80800117 	ldw	r2,4(r16)
 10058f4:	18bffb36 	bltu	r3,r2,10058e4 <altera_avalon_jtag_uart_write+0x11c>
        ;
#endif /* __ucosii__ */

      if (out == sp->tx_out)
 10058f8:	80800d17 	ldw	r2,52(r16)
 10058fc:	117fe126 	beq	r2,r5,1005884 <altera_avalon_jtag_uart_write+0xbc>
  ALT_SEM_PEND (sp->write_lock, 0);

  do
  {
    /* Copy as much as we can into the transmit buffer */
    while (count > 0)
 1005900:	403fc11e 	bne	r8,zero,1005808 <altera_avalon_jtag_uart_write+0x40>
 1005904:	003fd506 	br	100585c <altera_avalon_jtag_uart_write+0x94>
      in  = sp->tx_in;
      out = sp->tx_out;

      if (in < out)
        n = out - 1 - in;
      else if (out > 0)
 1005908:	28000326 	beq	r5,zero,1005918 <altera_avalon_jtag_uart_write+0x150>
        n = ALTERA_AVALON_JTAG_UART_BUF_LEN - in;
 100590c:	00820004 	movi	r2,2048
 1005910:	148dc83a 	sub	r6,r2,r18
 1005914:	003fc106 	br	100581c <altera_avalon_jtag_uart_write+0x54>
      else
        n = ALTERA_AVALON_JTAG_UART_BUF_LEN - 1 - in;
 1005918:	0081ffc4 	movi	r2,2047
 100591c:	148dc83a 	sub	r6,r2,r18
 1005920:	003fbe06 	br	100581c <altera_avalon_jtag_uart_write+0x54>
  ALT_SEM_PEND (sp->write_lock, 0);

  do
  {
    /* Copy as much as we can into the transmit buffer */
    while (count > 0)
 1005924:	2829883a 	mov	r20,r5
 1005928:	003fcc06 	br	100585c <altera_avalon_jtag_uart_write+0x94>
   */
  ALT_SEM_POST (sp->write_lock);

  if (ptr != start)
    return ptr - start;
  else if (flags & O_NONBLOCK)
 100592c:	a890000c 	andi	r2,r21,16384
 1005930:	1000021e 	bne	r2,zero,100593c <altera_avalon_jtag_uart_write+0x174>
 1005934:	00bffec4 	movi	r2,-5
 1005938:	003fd406 	br	100588c <altera_avalon_jtag_uart_write+0xc4>
 100593c:	00bffd44 	movi	r2,-11
 1005940:	003fd206 	br	100588c <altera_avalon_jtag_uart_write+0xc4>

01005944 <lcd_write_command>:

/* --------------------------------------------------------------------- */

static void lcd_write_command(altera_avalon_lcd_16207_state* sp, 
  unsigned char command)
{
 1005944:	defffd04 	addi	sp,sp,-12
 1005948:	dc400115 	stw	r17,4(sp)
 100594c:	dc000015 	stw	r16,0(sp)
 1005950:	dfc00215 	stw	ra,8(sp)
   * with slower clocks, or debug builds, or slower memory will take longer.
   */
  int i = 1000000;

  /* Don't bother if the LCD panel didn't work before */
  if (sp->broken)
 1005954:	20800807 	ldb	r2,32(r4)

/* --------------------------------------------------------------------- */

static void lcd_write_command(altera_avalon_lcd_16207_state* sp, 
  unsigned char command)
{
 1005958:	2823883a 	mov	r17,r5
  unsigned int base = sp->base;
 100595c:	24000017 	ldw	r16,0(r4)
   * with slower clocks, or debug builds, or slower memory will take longer.
   */
  int i = 1000000;

  /* Don't bother if the LCD panel didn't work before */
  if (sp->broken)
 1005960:	10000d1e 	bne	r2,zero,1005998 <lcd_write_command+0x54>
/* --------------------------------------------------------------------- */

static void lcd_write_command(altera_avalon_lcd_16207_state* sp, 
  unsigned char command)
{
  unsigned int base = sp->base;
 1005964:	81400104 	addi	r5,r16,4
 1005968:	00c003f4 	movhi	r3,15
 100596c:	18d09004 	addi	r3,r3,16960
 1005970:	00000106 	br	1005978 <lcd_write_command+0x34>
  if (sp->broken)
    return;

  /* Wait until LCD isn't busy. */
  while (IORD_ALTERA_AVALON_LCD_16207_STATUS(base) & ALTERA_AVALON_LCD_16207_STATUS_BUSY_MSK)
    if (--i == 0)
 1005974:	18000d26 	beq	r3,zero,10059ac <lcd_write_command+0x68>
  /* Don't bother if the LCD panel didn't work before */
  if (sp->broken)
    return;

  /* Wait until LCD isn't busy. */
  while (IORD_ALTERA_AVALON_LCD_16207_STATUS(base) & ALTERA_AVALON_LCD_16207_STATUS_BUSY_MSK)
 1005978:	28800037 	ldwio	r2,0(r5)
 100597c:	1080200c 	andi	r2,r2,128
    if (--i == 0)
 1005980:	18ffffc4 	addi	r3,r3,-1
  /* Don't bother if the LCD panel didn't work before */
  if (sp->broken)
    return;

  /* Wait until LCD isn't busy. */
  while (IORD_ALTERA_AVALON_LCD_16207_STATUS(base) & ALTERA_AVALON_LCD_16207_STATUS_BUSY_MSK)
 1005984:	103ffb1e 	bne	r2,zero,1005974 <lcd_write_command+0x30>
    }

  /* Despite what it says in the datasheet, the LCD isn't ready to accept
   * a write immediately after it returns BUSY=0.  Wait for 100us more.
   */
  usleep(100);
 1005988:	01001904 	movi	r4,100
 100598c:	1003c600 	call	1003c60 <usleep>

  IOWR_ALTERA_AVALON_LCD_16207_COMMAND(base, command);
 1005990:	88c03fcc 	andi	r3,r17,255
 1005994:	80c00035 	stwio	r3,0(r16)
}
 1005998:	dfc00217 	ldw	ra,8(sp)
 100599c:	dc400117 	ldw	r17,4(sp)
 10059a0:	dc000017 	ldw	r16,0(sp)
 10059a4:	dec00304 	addi	sp,sp,12
 10059a8:	f800283a 	ret

  /* Wait until LCD isn't busy. */
  while (IORD_ALTERA_AVALON_LCD_16207_STATUS(base) & ALTERA_AVALON_LCD_16207_STATUS_BUSY_MSK)
    if (--i == 0)
    {
      sp->broken = 1;
 10059ac:	00800044 	movi	r2,1
 10059b0:	20800805 	stb	r2,32(r4)
   * a write immediately after it returns BUSY=0.  Wait for 100us more.
   */
  usleep(100);

  IOWR_ALTERA_AVALON_LCD_16207_COMMAND(base, command);
}
 10059b4:	dfc00217 	ldw	ra,8(sp)
 10059b8:	dc400117 	ldw	r17,4(sp)
 10059bc:	dc000017 	ldw	r16,0(sp)
 10059c0:	dec00304 	addi	sp,sp,12
 10059c4:	f800283a 	ret

010059c8 <lcd_repaint_screen>:
}

/* --------------------------------------------------------------------- */

static void lcd_repaint_screen(altera_avalon_lcd_16207_state* sp)
{
 10059c8:	defff204 	addi	sp,sp,-56
 10059cc:	df000c15 	stw	fp,48(sp)
 10059d0:	dd800a15 	stw	r22,40(sp)
 10059d4:	dc800615 	stw	r18,24(sp)
 10059d8:	dfc00d15 	stw	ra,52(sp)
 10059dc:	ddc00b15 	stw	r23,44(sp)
 10059e0:	dd400915 	stw	r21,36(sp)
 10059e4:	dd000815 	stw	r20,32(sp)
 10059e8:	dcc00715 	stw	r19,28(sp)
 10059ec:	dc400515 	stw	r17,20(sp)
 10059f0:	dc000415 	stw	r16,16(sp)
  /* scrollpos controls how much the lines have scrolled round.  The speed
   * each line scrolls at is controlled by its speed variable - while
   * scrolline lines will wrap at the position set by width
   */

  int scrollpos = sp->scrollpos;
 10059f4:	20800947 	ldb	r2,37(r4)
 10059f8:	00c00c04 	movi	r3,48
}

/* --------------------------------------------------------------------- */

static void lcd_repaint_screen(altera_avalon_lcd_16207_state* sp)
{
 10059fc:	2025883a 	mov	r18,r4
  /* scrollpos controls how much the lines have scrolled round.  The speed
   * each line scrolls at is controlled by its speed variable - while
   * scrolline lines will wrap at the position set by width
   */

  int scrollpos = sp->scrollpos;
 1005a00:	d8800115 	stw	r2,4(sp)
 1005a04:	d9000015 	stw	r4,0(sp)
 1005a08:	d8000215 	stw	zero,8(sp)
 1005a0c:	d7200e04 	addi	fp,gp,-32712
 1005a10:	202d883a 	mov	r22,r4
 1005a14:	d8c00315 	stw	r3,12(sp)

  for (y = 0 ; y < ALT_LCD_HEIGHT ; y++)
  {
    int width  = sp->line[y].width;
    int offset = (scrollpos * sp->line[y].speed) >> 8;
 1005a18:	d8800017 	ldw	r2,0(sp)
 1005a1c:	d9000117 	ldw	r4,4(sp)
 1005a20:	11402483 	ldbu	r5,146(r2)

  int scrollpos = sp->scrollpos;

  for (y = 0 ; y < ALT_LCD_HEIGHT ; y++)
  {
    int width  = sp->line[y].width;
 1005a24:	15c02447 	ldb	r23,145(r2)
    int offset = (scrollpos * sp->line[y].speed) >> 8;
 1005a28:	1000cc40 	call	1000cc4 <__mulsi3>
 1005a2c:	102bd23a 	srai	r21,r2,8
    if (offset >= width)
 1005a30:	adc00116 	blt	r21,r23,1005a38 <lcd_repaint_screen+0x70>
 1005a34:	002b883a 	mov	r21,zero
 1005a38:	d8c00317 	ldw	r3,12(sp)
 1005a3c:	0029883a 	mov	r20,zero
 1005a40:	90e7883a 	add	r19,r18,r3
      offset = 0;

    for (x = 0 ; x < ALT_LCD_WIDTH ; x++)
    {
      char c = sp->line[y].data[(x + offset) % width];
 1005a44:	ad09883a 	add	r4,r21,r20
 1005a48:	b80b883a 	mov	r5,r23
 1005a4c:	10081580 	call	1008158 <__modsi3>
 1005a50:	b085883a 	add	r2,r22,r2
 1005a54:	14401003 	ldbu	r17,64(r2)

      /* Writing data takes 40us, so don't do it unless required */
      if (sp->line[y].visible[x] != c)
 1005a58:	98c00007 	ldb	r3,0(r19)
 1005a5c:	88803fcc 	andi	r2,r17,255
 1005a60:	1080201c 	xori	r2,r2,128
 1005a64:	10bfe004 	addi	r2,r2,-128
 1005a68:	10c01d26 	beq	r2,r3,1005ae0 <lcd_repaint_screen+0x118>
      {
        unsigned char address = x + colstart[y];
 1005a6c:	e0800003 	ldbu	r2,0(fp)

        if (address != sp->address)
 1005a70:	910008c7 	ldb	r4,35(r18)
      char c = sp->line[y].data[(x + offset) % width];

      /* Writing data takes 40us, so don't do it unless required */
      if (sp->line[y].visible[x] != c)
      {
        unsigned char address = x + colstart[y];
 1005a74:	a0a1883a 	add	r16,r20,r2

        if (address != sp->address)
 1005a78:	80c03fcc 	andi	r3,r16,255
 1005a7c:	19000426 	beq	r3,r4,1005a90 <lcd_repaint_screen+0xc8>
        {
          lcd_write_command(sp, LCD_CMD_WRITE_DATA | address);
 1005a80:	19402014 	ori	r5,r3,128
 1005a84:	9009883a 	mov	r4,r18
 1005a88:	10059440 	call	1005944 <lcd_write_command>
          sp->address = address;
 1005a8c:	940008c5 	stb	r16,35(r18)
   * with slower clocks, or debug builds, or slower memory will take longer.
   */
  int i = 1000000;

  /* Don't bother if the LCD panel didn't work before */
  if (sp->broken)
 1005a90:	90800807 	ldb	r2,32(r18)
/* --------------------------------------------------------------------- */

static void lcd_write_data(altera_avalon_lcd_16207_state* sp, 
  unsigned char data)
{
  unsigned int base = sp->base;
 1005a94:	94000017 	ldw	r16,0(r18)
   * with slower clocks, or debug builds, or slower memory will take longer.
   */
  int i = 1000000;

  /* Don't bother if the LCD panel didn't work before */
  if (sp->broken)
 1005a98:	1000101e 	bne	r2,zero,1005adc <lcd_repaint_screen+0x114>

  /* Wait until LCD isn't busy. */
  while (IORD_ALTERA_AVALON_LCD_16207_STATUS(base) & ALTERA_AVALON_LCD_16207_STATUS_BUSY_MSK)
    if (--i == 0)
    {
      sp->broken = 1;
 1005a9c:	81000104 	addi	r4,r16,4
 1005aa0:	00c003f4 	movhi	r3,15
 1005aa4:	18d09004 	addi	r3,r3,16960
 1005aa8:	00000106 	br	1005ab0 <lcd_repaint_screen+0xe8>
  if (sp->broken)
    return;

  /* Wait until LCD isn't busy. */
  while (IORD_ALTERA_AVALON_LCD_16207_STATUS(base) & ALTERA_AVALON_LCD_16207_STATUS_BUSY_MSK)
    if (--i == 0)
 1005aac:	18002a26 	beq	r3,zero,1005b58 <lcd_repaint_screen+0x190>
  /* Don't bother if the LCD panel didn't work before */
  if (sp->broken)
    return;

  /* Wait until LCD isn't busy. */
  while (IORD_ALTERA_AVALON_LCD_16207_STATUS(base) & ALTERA_AVALON_LCD_16207_STATUS_BUSY_MSK)
 1005ab0:	20800037 	ldwio	r2,0(r4)
 1005ab4:	1080200c 	andi	r2,r2,128
    if (--i == 0)
 1005ab8:	18ffffc4 	addi	r3,r3,-1
  /* Don't bother if the LCD panel didn't work before */
  if (sp->broken)
    return;

  /* Wait until LCD isn't busy. */
  while (IORD_ALTERA_AVALON_LCD_16207_STATUS(base) & ALTERA_AVALON_LCD_16207_STATUS_BUSY_MSK)
 1005abc:	103ffb1e 	bne	r2,zero,1005aac <lcd_repaint_screen+0xe4>
    }

  /* Despite what it says in the datasheet, the LCD isn't ready to accept
   * a write immediately after it returns BUSY=0.  Wait for 100us more.
   */
  usleep(100);
 1005ac0:	01001904 	movi	r4,100
 1005ac4:	1003c600 	call	1003c60 <usleep>

  IOWR_ALTERA_AVALON_LCD_16207_DATA(base, data);
 1005ac8:	88c03fcc 	andi	r3,r17,255
 1005acc:	80c00235 	stwio	r3,8(r16)

  sp->address++;
 1005ad0:	908008c3 	ldbu	r2,35(r18)
 1005ad4:	10800044 	addi	r2,r2,1
 1005ad8:	908008c5 	stb	r2,35(r18)
          lcd_write_command(sp, LCD_CMD_WRITE_DATA | address);
          sp->address = address;
        }

        lcd_write_data(sp, c);
        sp->line[y].visible[x] = c;
 1005adc:	9c400005 	stb	r17,0(r19)
    int width  = sp->line[y].width;
    int offset = (scrollpos * sp->line[y].speed) >> 8;
    if (offset >= width)
      offset = 0;

    for (x = 0 ; x < ALT_LCD_WIDTH ; x++)
 1005ae0:	a5000044 	addi	r20,r20,1
 1005ae4:	00800404 	movi	r2,16
 1005ae8:	9cc00044 	addi	r19,r19,1
 1005aec:	a0bfd51e 	bne	r20,r2,1005a44 <lcd_repaint_screen+0x7c>
   * scrolline lines will wrap at the position set by width
   */

  int scrollpos = sp->scrollpos;

  for (y = 0 ; y < ALT_LCD_HEIGHT ; y++)
 1005af0:	d8800217 	ldw	r2,8(sp)
 1005af4:	d8c00317 	ldw	r3,12(sp)
 1005af8:	b58018c4 	addi	r22,r22,99
 1005afc:	10800044 	addi	r2,r2,1
 1005b00:	d8800215 	stw	r2,8(sp)
 1005b04:	d8800017 	ldw	r2,0(sp)
 1005b08:	18c018c4 	addi	r3,r3,99
 1005b0c:	d8c00315 	stw	r3,12(sp)
 1005b10:	d8c00217 	ldw	r3,8(sp)
 1005b14:	108018c4 	addi	r2,r2,99
 1005b18:	d8800015 	stw	r2,0(sp)
 1005b1c:	00800084 	movi	r2,2
 1005b20:	e7000044 	addi	fp,fp,1
 1005b24:	18bfbc1e 	bne	r3,r2,1005a18 <lcd_repaint_screen+0x50>
        lcd_write_data(sp, c);
        sp->line[y].visible[x] = c;
      }
    }
  }
}
 1005b28:	dfc00d17 	ldw	ra,52(sp)
 1005b2c:	df000c17 	ldw	fp,48(sp)
 1005b30:	ddc00b17 	ldw	r23,44(sp)
 1005b34:	dd800a17 	ldw	r22,40(sp)
 1005b38:	dd400917 	ldw	r21,36(sp)
 1005b3c:	dd000817 	ldw	r20,32(sp)
 1005b40:	dcc00717 	ldw	r19,28(sp)
 1005b44:	dc800617 	ldw	r18,24(sp)
 1005b48:	dc400517 	ldw	r17,20(sp)
 1005b4c:	dc000417 	ldw	r16,16(sp)
 1005b50:	dec00e04 	addi	sp,sp,56
 1005b54:	f800283a 	ret

  /* Wait until LCD isn't busy. */
  while (IORD_ALTERA_AVALON_LCD_16207_STATUS(base) & ALTERA_AVALON_LCD_16207_STATUS_BUSY_MSK)
    if (--i == 0)
    {
      sp->broken = 1;
 1005b58:	00800044 	movi	r2,1
 1005b5c:	90800805 	stb	r2,32(r18)
 1005b60:	003fde06 	br	1005adc <lcd_repaint_screen+0x114>

01005b64 <alt_lcd_16207_timeout>:
/*
 * Timeout routine is called every second
 */

static alt_u32 alt_lcd_16207_timeout(void* context) 
{
 1005b64:	defffe04 	addi	sp,sp,-8
 1005b68:	dc000015 	stw	r16,0(sp)
 1005b6c:	dfc00115 	stw	ra,4(sp)
  altera_avalon_lcd_16207_state* sp = (altera_avalon_lcd_16207_state*)context;

  /* Update the scrolling position */
  if (sp->scrollpos + 1 >= sp->scrollmax)
 1005b70:	20c00943 	ldbu	r3,37(r4)
/*
 * Timeout routine is called every second
 */

static alt_u32 alt_lcd_16207_timeout(void* context) 
{
 1005b74:	2021883a 	mov	r16,r4
  altera_avalon_lcd_16207_state* sp = (altera_avalon_lcd_16207_state*)context;

  /* Update the scrolling position */
  if (sp->scrollpos + 1 >= sp->scrollmax)
 1005b78:	21000987 	ldb	r4,38(r4)
 1005b7c:	18803fcc 	andi	r2,r3,255
 1005b80:	1080201c 	xori	r2,r2,128
 1005b84:	10bfe004 	addi	r2,r2,-128
 1005b88:	10800044 	addi	r2,r2,1
    sp->scrollpos = 0;
  else
    sp->scrollpos = sp->scrollpos + 1;
 1005b8c:	18c00044 	addi	r3,r3,1
static alt_u32 alt_lcd_16207_timeout(void* context) 
{
  altera_avalon_lcd_16207_state* sp = (altera_avalon_lcd_16207_state*)context;

  /* Update the scrolling position */
  if (sp->scrollpos + 1 >= sp->scrollmax)
 1005b90:	11000a16 	blt	r2,r4,1005bbc <alt_lcd_16207_timeout+0x58>
    sp->scrollpos = 0;
 1005b94:	80000945 	stb	zero,37(r16)
  else
    sp->scrollpos = sp->scrollpos + 1;

  /* Repaint the panel unless the foreground will do it again soon */
  if (sp->scrollmax > 0 && !sp->active)
 1005b98:	0100030e 	bge	zero,r4,1005ba8 <alt_lcd_16207_timeout+0x44>
 1005b9c:	808009c7 	ldb	r2,39(r16)
    lcd_repaint_screen(sp);
 1005ba0:	8009883a 	mov	r4,r16
    sp->scrollpos = 0;
  else
    sp->scrollpos = sp->scrollpos + 1;

  /* Repaint the panel unless the foreground will do it again soon */
  if (sp->scrollmax > 0 && !sp->active)
 1005ba4:	10000726 	beq	r2,zero,1005bc4 <alt_lcd_16207_timeout+0x60>
    lcd_repaint_screen(sp);

  return sp->period;
}
 1005ba8:	80800717 	ldw	r2,28(r16)
 1005bac:	dfc00117 	ldw	ra,4(sp)
 1005bb0:	dc000017 	ldw	r16,0(sp)
 1005bb4:	dec00204 	addi	sp,sp,8
 1005bb8:	f800283a 	ret

  /* Update the scrolling position */
  if (sp->scrollpos + 1 >= sp->scrollmax)
    sp->scrollpos = 0;
  else
    sp->scrollpos = sp->scrollpos + 1;
 1005bbc:	80c00945 	stb	r3,37(r16)
 1005bc0:	003ff506 	br	1005b98 <alt_lcd_16207_timeout+0x34>

  /* Repaint the panel unless the foreground will do it again soon */
  if (sp->scrollmax > 0 && !sp->active)
    lcd_repaint_screen(sp);
 1005bc4:	10059c80 	call	10059c8 <lcd_repaint_screen>

  return sp->period;
}
 1005bc8:	80800717 	ldw	r2,28(r16)
 1005bcc:	dfc00117 	ldw	ra,4(sp)
 1005bd0:	dc000017 	ldw	r16,0(sp)
 1005bd4:	dec00204 	addi	sp,sp,8
 1005bd8:	f800283a 	ret

01005bdc <lcd_clear_screen>:
}

/* --------------------------------------------------------------------- */

static void lcd_clear_screen(altera_avalon_lcd_16207_state* sp)
{
 1005bdc:	defffa04 	addi	sp,sp,-24
 1005be0:	dc000015 	stw	r16,0(sp)
  int y;

  lcd_write_command(sp, LCD_CMD_CLEAR);
 1005be4:	01400044 	movi	r5,1
}

/* --------------------------------------------------------------------- */

static void lcd_clear_screen(altera_avalon_lcd_16207_state* sp)
{
 1005be8:	2021883a 	mov	r16,r4
 1005bec:	dd000415 	stw	r20,16(sp)
 1005bf0:	dcc00315 	stw	r19,12(sp)
 1005bf4:	dc800215 	stw	r18,8(sp)
 1005bf8:	dc400115 	stw	r17,4(sp)
 1005bfc:	dfc00515 	stw	ra,20(sp)

  lcd_write_command(sp, LCD_CMD_CLEAR);

  sp->x = 0;
  sp->y = 0;
  sp->address = 0;
 1005c00:	2025883a 	mov	r18,r4
 1005c04:	84400c04 	addi	r17,r16,48

static void lcd_clear_screen(altera_avalon_lcd_16207_state* sp)
{
  int y;

  lcd_write_command(sp, LCD_CMD_CLEAR);
 1005c08:	10059440 	call	1005944 <lcd_write_command>

  sp->x = 0;
  sp->y = 0;
  sp->address = 0;
 1005c0c:	0027883a 	mov	r19,zero
{
  int y;

  lcd_write_command(sp, LCD_CMD_CLEAR);

  sp->x = 0;
 1005c10:	80000845 	stb	zero,33(r16)
  sp->y = 0;
 1005c14:	80000885 	stb	zero,34(r16)
  sp->address = 0;
 1005c18:	800008c5 	stb	zero,35(r16)
 1005c1c:	05000084 	movi	r20,2
 1005c20:	84001004 	addi	r16,r16,64

  for (y = 0 ; y < ALT_LCD_HEIGHT ; y++)
  {
    memset(sp->line[y].data, ' ', sizeof(sp->line[0].data));
 1005c24:	8009883a 	mov	r4,r16
 1005c28:	01400804 	movi	r5,32
 1005c2c:	01801444 	movi	r6,81
 1005c30:	100307c0 	call	100307c <memset>

  sp->x = 0;
  sp->y = 0;
  sp->address = 0;

  for (y = 0 ; y < ALT_LCD_HEIGHT ; y++)
 1005c34:	9cc00044 	addi	r19,r19,1
  {
    memset(sp->line[y].data, ' ', sizeof(sp->line[0].data));
    memset(sp->line[y].visible, ' ', sizeof(sp->line[0].visible));
 1005c38:	8809883a 	mov	r4,r17
 1005c3c:	01400804 	movi	r5,32
 1005c40:	01800404 	movi	r6,16
 1005c44:	100307c0 	call	100307c <memset>

  sp->x = 0;
  sp->y = 0;
  sp->address = 0;

  for (y = 0 ; y < ALT_LCD_HEIGHT ; y++)
 1005c48:	840018c4 	addi	r16,r16,99
  {
    memset(sp->line[y].data, ' ', sizeof(sp->line[0].data));
    memset(sp->line[y].visible, ' ', sizeof(sp->line[0].visible));
    sp->line[y].width = 0;
 1005c4c:	90002445 	stb	zero,145(r18)

  sp->x = 0;
  sp->y = 0;
  sp->address = 0;

  for (y = 0 ; y < ALT_LCD_HEIGHT ; y++)
 1005c50:	8c4018c4 	addi	r17,r17,99
 1005c54:	948018c4 	addi	r18,r18,99
 1005c58:	9d3ff21e 	bne	r19,r20,1005c24 <lcd_clear_screen+0x48>
  {
    memset(sp->line[y].data, ' ', sizeof(sp->line[0].data));
    memset(sp->line[y].visible, ' ', sizeof(sp->line[0].visible));
    sp->line[y].width = 0;
  }
}
 1005c5c:	dfc00517 	ldw	ra,20(sp)
 1005c60:	dd000417 	ldw	r20,16(sp)
 1005c64:	dcc00317 	ldw	r19,12(sp)
 1005c68:	dc800217 	ldw	r18,8(sp)
 1005c6c:	dc400117 	ldw	r17,4(sp)
 1005c70:	dc000017 	ldw	r16,0(sp)
 1005c74:	dec00604 	addi	sp,sp,24
 1005c78:	f800283a 	ret

01005c7c <altera_avalon_lcd_16207_init>:

/*
 * Called at boot time to initialise the LCD driver
 */
void altera_avalon_lcd_16207_init(altera_avalon_lcd_16207_state* sp)
{
 1005c7c:	defffc04 	addi	sp,sp,-16
 1005c80:	dcc00215 	stw	r19,8(sp)
 1005c84:	dc800115 	stw	r18,4(sp)
 1005c88:	dc400015 	stw	r17,0(sp)
 1005c8c:	dfc00315 	stw	ra,12(sp)
  unsigned int base = sp->base;
 1005c90:	24c00017 	ldw	r19,0(r4)

/*
 * Called at boot time to initialise the LCD driver
 */
void altera_avalon_lcd_16207_init(altera_avalon_lcd_16207_state* sp)
{
 1005c94:	2023883a 	mov	r17,r4
  unsigned int base = sp->base;

  /* Mark the device as functional */
  sp->broken = 0;
 1005c98:	20000805 	stb	zero,32(r4)
   * the BUSY bit in the status register doesn't work until the display
   * has been reset three times.
   */

  /* Wait for 15 ms then reset */
  usleep(15000);
 1005c9c:	010ea604 	movi	r4,15000
 1005ca0:	1003c600 	call	1003c60 <usleep>
  IOWR_ALTERA_AVALON_LCD_16207_COMMAND(base, LCD_CMD_FUNCTION_SET | LCD_CMD_8BIT);
 1005ca4:	04800c04 	movi	r18,48
 1005ca8:	9c800035 	stwio	r18,0(r19)

  /* Wait for another 4.1ms and reset again */
  usleep(4100);  
 1005cac:	01040104 	movi	r4,4100
 1005cb0:	1003c600 	call	1003c60 <usleep>
  IOWR_ALTERA_AVALON_LCD_16207_COMMAND(base, LCD_CMD_FUNCTION_SET | LCD_CMD_8BIT);
 1005cb4:	9c800035 	stwio	r18,0(r19)

  /* Wait a further 1 ms and reset a third time */
  usleep(1000);
 1005cb8:	0100fa04 	movi	r4,1000
 1005cbc:	1003c600 	call	1003c60 <usleep>
  IOWR_ALTERA_AVALON_LCD_16207_COMMAND(base, LCD_CMD_FUNCTION_SET | LCD_CMD_8BIT);
 1005cc0:	9c800035 	stwio	r18,0(r19)

  /* Setup interface parameters: 8 bit bus, 2 rows, 5x7 font */
  lcd_write_command(sp, LCD_CMD_FUNCTION_SET | LCD_CMD_8BIT | LCD_CMD_TWO_LINE);
 1005cc4:	8809883a 	mov	r4,r17
 1005cc8:	01400e04 	movi	r5,56
 1005ccc:	10059440 	call	1005944 <lcd_write_command>
  
  /* Turn display off */
  lcd_write_command(sp, LCD_CMD_ONOFF);
 1005cd0:	8809883a 	mov	r4,r17
 1005cd4:	01400204 	movi	r5,8
 1005cd8:	10059440 	call	1005944 <lcd_write_command>

  /* Clear display */
  lcd_clear_screen(sp);
 1005cdc:	8809883a 	mov	r4,r17
 1005ce0:	1005bdc0 	call	1005bdc <lcd_clear_screen>
  
  /* Set mode: increment after writing, don't shift display */
  lcd_write_command(sp, LCD_CMD_MODES | LCD_CMD_MODE_INC);
 1005ce4:	01400184 	movi	r5,6
 1005ce8:	8809883a 	mov	r4,r17
 1005cec:	10059440 	call	1005944 <lcd_write_command>

  /* Turn display on */
  lcd_write_command(sp, LCD_CMD_ONOFF | LCD_CMD_ENABLE_DISP);
 1005cf0:	8809883a 	mov	r4,r17
 1005cf4:	01400304 	movi	r5,12
 1005cf8:	10059440 	call	1005944 <lcd_write_command>

  sp->esccount = -1;
 1005cfc:	00bfffc4 	movi	r2,-1
 1005d00:	88800905 	stb	r2,36(r17)
  memset(sp->escape, 0, sizeof(sp->escape));
 1005d04:	88c00a04 	addi	r3,r17,40
 1005d08:	18000115 	stw	zero,4(r3)
 1005d0c:	18000015 	stw	zero,0(r3)

  sp->scrollpos = 0;
 1005d10:	88000945 	stb	zero,37(r17)
  sp->scrollmax = 0;
 1005d14:	88000985 	stb	zero,38(r17)
  sp->active = 0;
 1005d18:	880009c5 	stb	zero,39(r17)

  sp->period = alt_ticks_per_second() / 10; /* Call every 100ms */
 1005d1c:	00804074 	movhi	r2,257
 1005d20:	10a8d504 	addi	r2,r2,-23724
 1005d24:	11000017 	ldw	r4,0(r2)
 1005d28:	01400284 	movi	r5,10
 1005d2c:	10081b80 	call	10081b8 <__udivsi3>
 1005d30:	100b883a 	mov	r5,r2

  alt_alarm_start(&sp->alarm, sp->period, &alt_lcd_16207_timeout, sp);
 1005d34:	880f883a 	mov	r7,r17
 1005d38:	89000104 	addi	r4,r17,4
 1005d3c:	01804034 	movhi	r6,256
 1005d40:	3196d904 	addi	r6,r6,23396

  sp->scrollpos = 0;
  sp->scrollmax = 0;
  sp->active = 0;

  sp->period = alt_ticks_per_second() / 10; /* Call every 100ms */
 1005d44:	88800715 	stw	r2,28(r17)

  alt_alarm_start(&sp->alarm, sp->period, &alt_lcd_16207_timeout, sp);
}
 1005d48:	dfc00317 	ldw	ra,12(sp)
 1005d4c:	dcc00217 	ldw	r19,8(sp)
 1005d50:	dc800117 	ldw	r18,4(sp)
 1005d54:	dc400017 	ldw	r17,0(sp)
 1005d58:	dec00404 	addi	sp,sp,16
  sp->scrollmax = 0;
  sp->active = 0;

  sp->period = alt_ticks_per_second() / 10; /* Call every 100ms */

  alt_alarm_start(&sp->alarm, sp->period, &alt_lcd_16207_timeout, sp);
 1005d5c:	1006c801 	jmpi	1006c80 <alt_alarm_start>

01005d60 <lcd_scroll_up>:
}

/* --------------------------------------------------------------------- */

static void lcd_scroll_up(altera_avalon_lcd_16207_state* sp)
{
 1005d60:	defffb04 	addi	sp,sp,-20
 1005d64:	dcc00315 	stw	r19,12(sp)
 1005d68:	dc800215 	stw	r18,8(sp)
 1005d6c:	dc400115 	stw	r17,4(sp)
 1005d70:	dc000015 	stw	r16,0(sp)
 1005d74:	dfc00415 	stw	ra,16(sp)
 1005d78:	2021883a 	mov	r16,r4
 1005d7c:	0023883a 	mov	r17,zero
 1005d80:	248028c4 	addi	r18,r4,163
 1005d84:	04c00044 	movi	r19,1
  int y;

  for (y = 0 ; y < ALT_LCD_HEIGHT ; y++)
  {
    if (y < ALT_LCD_HEIGHT-1)
      memcpy(sp->line[y].data, sp->line[y+1].data, ALT_LCD_VIRTUAL_WIDTH);
 1005d88:	81001004 	addi	r4,r16,64
 1005d8c:	900b883a 	mov	r5,r18
 1005d90:	01801404 	movi	r6,80
{
  int y;

  for (y = 0 ; y < ALT_LCD_HEIGHT ; y++)
  {
    if (y < ALT_LCD_HEIGHT-1)
 1005d94:	8800021e 	bne	r17,zero,1005da0 <lcd_scroll_up+0x40>
      memcpy(sp->line[y].data, sp->line[y+1].data, ALT_LCD_VIRTUAL_WIDTH);
 1005d98:	1001ae40 	call	1001ae4 <memcpy>
 1005d9c:	04400044 	movi	r17,1

static void lcd_scroll_up(altera_avalon_lcd_16207_state* sp)
{
  int y;

  for (y = 0 ; y < ALT_LCD_HEIGHT ; y++)
 1005da0:	8c400044 	addi	r17,r17,1
  {
    if (y < ALT_LCD_HEIGHT-1)
      memcpy(sp->line[y].data, sp->line[y+1].data, ALT_LCD_VIRTUAL_WIDTH);
    else
      memset(sp->line[y].data, ' ', ALT_LCD_VIRTUAL_WIDTH);
 1005da4:	9009883a 	mov	r4,r18
 1005da8:	01400804 	movi	r5,32
 1005dac:	01801404 	movi	r6,80
 1005db0:	100307c0 	call	100307c <memset>

static void lcd_scroll_up(altera_avalon_lcd_16207_state* sp)
{
  int y;

  for (y = 0 ; y < ALT_LCD_HEIGHT ; y++)
 1005db4:	9c7ff40e 	bge	r19,r17,1005d88 <lcd_scroll_up+0x28>
      memcpy(sp->line[y].data, sp->line[y+1].data, ALT_LCD_VIRTUAL_WIDTH);
    else
      memset(sp->line[y].data, ' ', ALT_LCD_VIRTUAL_WIDTH);
  }

  sp->y--;
 1005db8:	80800883 	ldbu	r2,34(r16)
 1005dbc:	10bfffc4 	addi	r2,r2,-1
 1005dc0:	80800885 	stb	r2,34(r16)
}
 1005dc4:	dfc00417 	ldw	ra,16(sp)
 1005dc8:	dcc00317 	ldw	r19,12(sp)
 1005dcc:	dc800217 	ldw	r18,8(sp)
 1005dd0:	dc400117 	ldw	r17,4(sp)
 1005dd4:	dc000017 	ldw	r16,0(sp)
 1005dd8:	dec00504 	addi	sp,sp,20
 1005ddc:	f800283a 	ret

01005de0 <altera_avalon_lcd_16207_write>:

/* --------------------------------------------------------------------- */

int altera_avalon_lcd_16207_write(altera_avalon_lcd_16207_state* sp, 
  const char* ptr, int len, int flags)
{
 1005de0:	defff504 	addi	sp,sp,-44
 1005de4:	ddc00815 	stw	r23,32(sp)
 1005de8:	dc800315 	stw	r18,12(sp)
 1005dec:	dfc00a15 	stw	ra,40(sp)
 1005df0:	df000915 	stw	fp,36(sp)
 1005df4:	dd800715 	stw	r22,28(sp)
 1005df8:	dd400615 	stw	r21,24(sp)
 1005dfc:	dd000515 	stw	r20,20(sp)
 1005e00:	dcc00415 	stw	r19,16(sp)
 1005e04:	dc400215 	stw	r17,8(sp)
 1005e08:	dc000115 	stw	r16,4(sp)
 1005e0c:	d9800015 	stw	r6,0(sp)

  ALT_SEM_PEND (sp->write_lock, 0);

  /* Tell the routine which is called off the timer interrupt that the
   * foreground routines are active so it must not repaint the display. */
  sp->active = 1;
 1005e10:	00800044 	movi	r2,1
/* --------------------------------------------------------------------- */

int altera_avalon_lcd_16207_write(altera_avalon_lcd_16207_state* sp, 
  const char* ptr, int len, int flags)
{
  const char* end = ptr + len;
 1005e14:	3147883a 	add	r3,r6,r5

/* --------------------------------------------------------------------- */

int altera_avalon_lcd_16207_write(altera_avalon_lcd_16207_state* sp, 
  const char* ptr, int len, int flags)
{
 1005e18:	282f883a 	mov	r23,r5
 1005e1c:	2025883a 	mov	r18,r4

  ALT_SEM_PEND (sp->write_lock, 0);

  /* Tell the routine which is called off the timer interrupt that the
   * foreground routines are active so it must not repaint the display. */
  sp->active = 1;
 1005e20:	208009c5 	stb	r2,39(r4)

  for ( ; ptr < end ; ptr++)
 1005e24:	28c0392e 	bgeu	r5,r3,1005f0c <altera_avalon_lcd_16207_write+0x12c>
 1005e28:	282d883a 	mov	r22,r5
 1005e2c:	1979c83a 	sub	fp,r3,r5
 1005e30:	00001906 	br	1005e98 <altera_avalon_lcd_16207_write+0xb8>

      /* Single character escape sequences can end with any character
       * Multi character escape sequences start with '[' and contain
       * digits and semicolons before terminating
       */
      if ((esccount == 0 && c != '[') ||
 1005e34:	85403fcc 	andi	r21,r16,255
 1005e38:	ad40201c 	xori	r21,r21,128
 1005e3c:	ad7fe004 	addi	r21,r21,-128
 1005e40:	008016c4 	movi	r2,91
 1005e44:	a8802a26 	beq	r21,r2,1005ef0 <altera_avalon_lcd_16207_write+0x110>
          (esccount > 0 && !isdigit(c) && c != ';'))
      {
        sp->escape[esccount] = 0;
 1005e48:	2485883a 	add	r2,r4,r18
 1005e4c:	10000a05 	stb	zero,40(r2)

static void lcd_handle_escape(altera_avalon_lcd_16207_state* sp, char c)
{
  int parm1 = 0, parm2 = 0;

  if (sp->escape[0] == '[')
 1005e50:	90c00a07 	ldb	r3,40(r18)
 1005e54:	008016c4 	movi	r2,91
 1005e58:	18809426 	beq	r3,r2,10060ac <altera_avalon_lcd_16207_write+0x2cc>
 1005e5c:	04ffffc4 	movi	r19,-1
 1005e60:	0009883a 	mov	r4,zero
    }
  }
  else
    parm1 = -1;

  switch (c)
 1005e64:	a8c03fcc 	andi	r3,r21,255
 1005e68:	18c0201c 	xori	r3,r3,128
 1005e6c:	18ffe004 	addi	r3,r3,-128
 1005e70:	00801284 	movi	r2,74
 1005e74:	1880aa26 	beq	r3,r2,1006120 <altera_avalon_lcd_16207_write+0x340>
 1005e78:	10c07816 	blt	r2,r3,100605c <altera_avalon_lcd_16207_write+0x27c>
 1005e7c:	00801204 	movi	r2,72
 1005e80:	18807a26 	beq	r3,r2,100606c <altera_avalon_lcd_16207_write+0x28c>
      {
        sp->escape[esccount] = 0;

        lcd_handle_escape(sp, c);

        sp->esccount = -1;
 1005e84:	017fffc4 	movi	r5,-1
 1005e88:	91400905 	stb	r5,36(r18)

  /* Tell the routine which is called off the timer interrupt that the
   * foreground routines are active so it must not repaint the display. */
  sp->active = 1;

  for ( ; ptr < end ; ptr++)
 1005e8c:	b5800044 	addi	r22,r22,1
 1005e90:	bf05883a 	add	r2,r23,fp
 1005e94:	b0801d26 	beq	r22,r2,1005f0c <altera_avalon_lcd_16207_write+0x12c>
  {
    char c = *ptr;

    if (sp->esccount >= 0)
 1005e98:	91400903 	ldbu	r5,36(r18)
   * foreground routines are active so it must not repaint the display. */
  sp->active = 1;

  for ( ; ptr < end ; ptr++)
  {
    char c = *ptr;
 1005e9c:	b4000003 	ldbu	r16,0(r22)

    if (sp->esccount >= 0)
 1005ea0:	29003fcc 	andi	r4,r5,255
 1005ea4:	2100201c 	xori	r4,r4,128
 1005ea8:	213fe004 	addi	r4,r4,-128
 1005eac:	20004d16 	blt	r4,zero,1005fe4 <altera_avalon_lcd_16207_write+0x204>

      /* Single character escape sequences can end with any character
       * Multi character escape sequences start with '[' and contain
       * digits and semicolons before terminating
       */
      if ((esccount == 0 && c != '[') ||
 1005eb0:	203fe026 	beq	r4,zero,1005e34 <altera_avalon_lcd_16207_write+0x54>
 1005eb4:	00804074 	movhi	r2,257
 1005eb8:	10a8c704 	addi	r2,r2,-23780
 1005ebc:	10c00017 	ldw	r3,0(r2)
 1005ec0:	85403fcc 	andi	r21,r16,255
 1005ec4:	ad40201c 	xori	r21,r21,128
 1005ec8:	ad7fe004 	addi	r21,r21,-128
 1005ecc:	a8c7883a 	add	r3,r21,r3
 1005ed0:	18800003 	ldbu	r2,0(r3)
 1005ed4:	1080010c 	andi	r2,r2,4
 1005ed8:	1000021e 	bne	r2,zero,1005ee4 <altera_avalon_lcd_16207_write+0x104>
 1005edc:	00800ec4 	movi	r2,59
 1005ee0:	a8bfd91e 	bne	r21,r2,1005e48 <altera_avalon_lcd_16207_write+0x68>

        lcd_handle_escape(sp, c);

        sp->esccount = -1;
      }
      else if (sp->esccount < sizeof(sp->escape)-1)
 1005ee4:	28c03fcc 	andi	r3,r5,255
 1005ee8:	00800184 	movi	r2,6
 1005eec:	10ffe736 	bltu	r2,r3,1005e8c <altera_avalon_lcd_16207_write+0xac>
      {
        sp->escape[esccount] = c;
 1005ef0:	2485883a 	add	r2,r4,r18
        sp->esccount++;
 1005ef4:	28c00044 	addi	r3,r5,1

        sp->esccount = -1;
      }
      else if (sp->esccount < sizeof(sp->escape)-1)
      {
        sp->escape[esccount] = c;
 1005ef8:	14000a05 	stb	r16,40(r2)

  /* Tell the routine which is called off the timer interrupt that the
   * foreground routines are active so it must not repaint the display. */
  sp->active = 1;

  for ( ; ptr < end ; ptr++)
 1005efc:	b5800044 	addi	r22,r22,1
 1005f00:	bf05883a 	add	r2,r23,fp
        sp->esccount = -1;
      }
      else if (sp->esccount < sizeof(sp->escape)-1)
      {
        sp->escape[esccount] = c;
        sp->esccount++;
 1005f04:	90c00905 	stb	r3,36(r18)

  /* Tell the routine which is called off the timer interrupt that the
   * foreground routines are active so it must not repaint the display. */
  sp->active = 1;

  for ( ; ptr < end ; ptr++)
 1005f08:	b0bfe31e 	bne	r22,r2,1005e98 <altera_avalon_lcd_16207_write+0xb8>
 1005f0c:	9027883a 	mov	r19,r18
 1005f10:	05000404 	movi	r20,16
 1005f14:	0023883a 	mov	r17,zero
      break;

    /* We need to repaint again since the display scrolled while we were
     * painting last time */
    sp->active = 1;
  }
 1005f18:	04001404 	movi	r16,80
 1005f1c:	00000206 	br	1005f28 <altera_avalon_lcd_16207_write+0x148>
  /* Recalculate the scrolling parameters */
  widthmax = ALT_LCD_WIDTH;
  for (y = 0 ; y < ALT_LCD_HEIGHT ; y++)
  {
    int width;
    for (width = ALT_LCD_VIRTUAL_WIDTH ; width > 0 ; width--)
 1005f20:	20008426 	beq	r4,zero,1006134 <altera_avalon_lcd_16207_write+0x354>

  /* Tell the routine which is called off the timer interrupt that the
   * foreground routines are active so it must not repaint the display. */
  sp->active = 1;

  for ( ; ptr < end ; ptr++)
 1005f24:	2021883a 	mov	r16,r4
  widthmax = ALT_LCD_WIDTH;
  for (y = 0 ; y < ALT_LCD_HEIGHT ; y++)
  {
    int width;
    for (width = ALT_LCD_VIRTUAL_WIDTH ; width > 0 ; width--)
      if (sp->line[y].data[width-1] != ' ')
 1005f28:	8809883a 	mov	r4,r17
 1005f2c:	014018c4 	movi	r5,99
 1005f30:	1000cc40 	call	1000cc4 <__mulsi3>
 1005f34:	1485883a 	add	r2,r2,r18
 1005f38:	813fffc4 	addi	r4,r16,-1
 1005f3c:	1105883a 	add	r2,r2,r4
 1005f40:	10c01007 	ldb	r3,64(r2)
 1005f44:	00800804 	movi	r2,32
 1005f48:	18bff526 	beq	r3,r2,1005f20 <altera_avalon_lcd_16207_write+0x140>

    /* The minimum width is the size of the LCD panel.  If the real width
     * is long enough to require scrolling then add an extra space so the
     * end of the message doesn't run into the beginning of it.
     */
    if (width <= ALT_LCD_WIDTH)
 1005f4c:	00800404 	movi	r2,16
 1005f50:	1400780e 	bge	r2,r16,1006134 <altera_avalon_lcd_16207_write+0x354>
      width = ALT_LCD_WIDTH;
    else
      width++;
 1005f54:	80800044 	addi	r2,r16,1
 1005f58:	1007883a 	mov	r3,r2

    sp->line[y].width = width;
 1005f5c:	98c02445 	stb	r3,145(r19)
 1005f60:	a080010e 	bge	r20,r2,1005f68 <altera_avalon_lcd_16207_write+0x188>
 1005f64:	1029883a 	mov	r20,r2
    }
  }

  /* Recalculate the scrolling parameters */
  widthmax = ALT_LCD_WIDTH;
  for (y = 0 ; y < ALT_LCD_HEIGHT ; y++)
 1005f68:	8c400044 	addi	r17,r17,1
 1005f6c:	00800084 	movi	r2,2
      width++;

    sp->line[y].width = width;
    if (widthmax < width)
      widthmax = width;
    sp->line[y].speed = 0; /* By default lines don't scroll */
 1005f70:	98002485 	stb	zero,146(r19)
    }
  }

  /* Recalculate the scrolling parameters */
  widthmax = ALT_LCD_WIDTH;
  for (y = 0 ; y < ALT_LCD_HEIGHT ; y++)
 1005f74:	9cc018c4 	addi	r19,r19,99
 1005f78:	88bfe71e 	bne	r17,r2,1005f18 <altera_avalon_lcd_16207_write+0x138>
    if (widthmax < width)
      widthmax = width;
    sp->line[y].speed = 0; /* By default lines don't scroll */
  }

  if (widthmax <= ALT_LCD_WIDTH)
 1005f7c:	04400404 	movi	r17,16
 1005f80:	8d007116 	blt	r17,r20,1006148 <altera_avalon_lcd_16207_write+0x368>
 1005f84:	90c00947 	ldb	r3,37(r18)
    sp->scrollmax = 0;
 1005f88:	90000985 	stb	zero,38(r18)
 1005f8c:	00000206 	br	1005f98 <altera_avalon_lcd_16207_write+0x1b8>
    if (sp->scrollpos == old_scrollpos)
      break;

    /* We need to repaint again since the display scrolled while we were
     * painting last time */
    sp->active = 1;
 1005f90:	00800044 	movi	r2,1
 1005f94:	908009c5 	stb	r2,39(r18)
   */
  for ( ; ; )
  {
    int old_scrollpos = sp->scrollpos;

    lcd_repaint_screen(sp);
 1005f98:	9009883a 	mov	r4,r18
   * (because active was set when the timer interrupt occurred).  If there
   * has been a missed repaint then paint again.  And again.  etc.
   */
  for ( ; ; )
  {
    int old_scrollpos = sp->scrollpos;
 1005f9c:	1821883a 	mov	r16,r3

    lcd_repaint_screen(sp);
 1005fa0:	10059c80 	call	10059c8 <lcd_repaint_screen>
    /* Let the timer routines repaint the display again */
    sp->active = 0;

    /* Have the timer routines tried to scroll while we were painting?
     * If not then we can exit */
    if (sp->scrollpos == old_scrollpos)
 1005fa4:	90c00947 	ldb	r3,37(r18)
    int old_scrollpos = sp->scrollpos;

    lcd_repaint_screen(sp);

    /* Let the timer routines repaint the display again */
    sp->active = 0;
 1005fa8:	900009c5 	stb	zero,39(r18)

    /* Have the timer routines tried to scroll while we were painting?
     * If not then we can exit */
    if (sp->scrollpos == old_scrollpos)
 1005fac:	80fff81e 	bne	r16,r3,1005f90 <altera_avalon_lcd_16207_write+0x1b0>
   */

  ALT_SEM_POST (sp->write_lock);

  return len;
}
 1005fb0:	d8800017 	ldw	r2,0(sp)
 1005fb4:	dfc00a17 	ldw	ra,40(sp)
 1005fb8:	df000917 	ldw	fp,36(sp)
 1005fbc:	ddc00817 	ldw	r23,32(sp)
 1005fc0:	dd800717 	ldw	r22,28(sp)
 1005fc4:	dd400617 	ldw	r21,24(sp)
 1005fc8:	dd000517 	ldw	r20,20(sp)
 1005fcc:	dcc00417 	ldw	r19,16(sp)
 1005fd0:	dc800317 	ldw	r18,12(sp)
 1005fd4:	dc400217 	ldw	r17,8(sp)
 1005fd8:	dc000117 	ldw	r16,4(sp)
 1005fdc:	dec00b04 	addi	sp,sp,44
 1005fe0:	f800283a 	ret
      {
        sp->escape[esccount] = c;
        sp->esccount++;
      }
    }
    else if (c == 27) /* ESC */
 1005fe4:	80c03fcc 	andi	r3,r16,255
 1005fe8:	18c0201c 	xori	r3,r3,128
 1005fec:	18ffe004 	addi	r3,r3,-128
 1005ff0:	008006c4 	movi	r2,27
 1005ff4:	18805226 	beq	r3,r2,1006140 <altera_avalon_lcd_16207_write+0x360>
    {
      sp->esccount = 0;
    }
    else if (c == '\r')
 1005ff8:	00800344 	movi	r2,13
 1005ffc:	18809126 	beq	r3,r2,1006244 <altera_avalon_lcd_16207_write+0x464>
    {
      sp->x = 0;
    }
    else if (c == '\n')
 1006000:	00800284 	movi	r2,10
 1006004:	18809126 	beq	r3,r2,100624c <altera_avalon_lcd_16207_write+0x46c>
       * can print two lines of data without losing one.
       */
      if (sp->y > ALT_LCD_HEIGHT)
        lcd_scroll_up(sp);
    }
    else if (c == '\b')
 1006008:	00800204 	movi	r2,8
 100600c:	18807826 	beq	r3,r2,10061f0 <altera_avalon_lcd_16207_write+0x410>
    {
      if (sp->x > 0)
        sp->x--;
    }
    else if (isprint(c))
 1006010:	01004074 	movhi	r4,257
 1006014:	2128c704 	addi	r4,r4,-23780
 1006018:	20800017 	ldw	r2,0(r4)
 100601c:	1885883a 	add	r2,r3,r2
 1006020:	10c00007 	ldb	r3,0(r2)
 1006024:	18c025cc 	andi	r3,r3,151
 1006028:	183f9826 	beq	r3,zero,1005e8c <altera_avalon_lcd_16207_write+0xac>
    {
      /* If we didn't scroll on the last linefeed then we might need to do
       * it now. */
      if (sp->y >= ALT_LCD_HEIGHT)
 100602c:	90c00883 	ldbu	r3,34(r18)
 1006030:	00800044 	movi	r2,1
 1006034:	10c0022e 	bgeu	r2,r3,1006040 <altera_avalon_lcd_16207_write+0x260>
        lcd_scroll_up(sp);
 1006038:	9009883a 	mov	r4,r18
 100603c:	1005d600 	call	1005d60 <lcd_scroll_up>

      if (sp->x < ALT_LCD_VIRTUAL_WIDTH)
 1006040:	90c00843 	ldbu	r3,33(r18)
 1006044:	008013c4 	movi	r2,79
 1006048:	1c403fcc 	andi	r17,r3,255
 100604c:	1440892e 	bgeu	r2,r17,1006274 <altera_avalon_lcd_16207_write+0x494>
        sp->line[sp->y].data[sp->x] = c;

      sp->x++;
 1006050:	18800044 	addi	r2,r3,1
 1006054:	90800845 	stb	r2,33(r18)
 1006058:	003f8c06 	br	1005e8c <altera_avalon_lcd_16207_write+0xac>
    }
  }
  else
    parm1 = -1;

  switch (c)
 100605c:	008012c4 	movi	r2,75
 1006060:	18806826 	beq	r3,r2,1006204 <altera_avalon_lcd_16207_write+0x424>
 1006064:	00801984 	movi	r2,102
 1006068:	18bf861e 	bne	r3,r2,1005e84 <altera_avalon_lcd_16207_write+0xa4>
  {
  case 'H': /* ESC '[' <y> ';' <x> 'H'  : Move cursor to location */
  case 'f': /* Same as above */
    if (parm2 > 0)
 100606c:	0100020e 	bge	zero,r4,1006078 <altera_avalon_lcd_16207_write+0x298>
      sp->x = parm2 - 1;
 1006070:	20bfffc4 	addi	r2,r4,-1
 1006074:	90800845 	stb	r2,33(r18)
    if (parm1 > 0)
 1006078:	04ff820e 	bge	zero,r19,1005e84 <altera_avalon_lcd_16207_write+0xa4>
    {
      sp->y = parm1 - 1;
 100607c:	98bfffc4 	addi	r2,r19,-1
      if (sp->y > ALT_LCD_HEIGHT * 2)
 1006080:	10c03fcc 	andi	r3,r2,255
 1006084:	01000104 	movi	r4,4
  case 'f': /* Same as above */
    if (parm2 > 0)
      sp->x = parm2 - 1;
    if (parm1 > 0)
    {
      sp->y = parm1 - 1;
 1006088:	90800885 	stb	r2,34(r18)
      if (sp->y > ALT_LCD_HEIGHT * 2)
 100608c:	20c0482e 	bgeu	r4,r3,10061b0 <altera_avalon_lcd_16207_write+0x3d0>
        sp->y = ALT_LCD_HEIGHT * 2;
 1006090:	91000885 	stb	r4,34(r18)
      while (sp->y > ALT_LCD_HEIGHT)
        lcd_scroll_up(sp);
 1006094:	9009883a 	mov	r4,r18
 1006098:	1005d600 	call	1005d60 <lcd_scroll_up>
    if (parm1 > 0)
    {
      sp->y = parm1 - 1;
      if (sp->y > ALT_LCD_HEIGHT * 2)
        sp->y = ALT_LCD_HEIGHT * 2;
      while (sp->y > ALT_LCD_HEIGHT)
 100609c:	90800883 	ldbu	r2,34(r18)
 10060a0:	00c00084 	movi	r3,2
 10060a4:	18bffb36 	bltu	r3,r2,1006094 <altera_avalon_lcd_16207_write+0x2b4>
 10060a8:	003f7606 	br	1005e84 <altera_avalon_lcd_16207_write+0xa4>
  int parm1 = 0, parm2 = 0;

  if (sp->escape[0] == '[')
  {
    char * ptr = sp->escape+1;
    while (isdigit(*ptr))
 10060ac:	00c04074 	movhi	r3,257
 10060b0:	18e8c704 	addi	r3,r3,-23780
 10060b4:	1d000017 	ldw	r20,0(r3)
 10060b8:	94000a47 	ldb	r16,41(r18)
{
  int parm1 = 0, parm2 = 0;

  if (sp->escape[0] == '[')
  {
    char * ptr = sp->escape+1;
 10060bc:	94400a44 	addi	r17,r18,41
    while (isdigit(*ptr))
 10060c0:	a407883a 	add	r3,r20,r16
 10060c4:	18800003 	ldbu	r2,0(r3)
 10060c8:	1080010c 	andi	r2,r2,4
 10060cc:	10007326 	beq	r2,zero,100629c <altera_avalon_lcd_16207_write+0x4bc>
 10060d0:	0027883a 	mov	r19,zero
      parm1 = (parm1 * 10) + (*ptr++ - '0');
 10060d4:	9809883a 	mov	r4,r19
 10060d8:	01400284 	movi	r5,10
 10060dc:	1000cc40 	call	1000cc4 <__mulsi3>
 10060e0:	8c400044 	addi	r17,r17,1
 10060e4:	1405883a 	add	r2,r2,r16
  int parm1 = 0, parm2 = 0;

  if (sp->escape[0] == '[')
  {
    char * ptr = sp->escape+1;
    while (isdigit(*ptr))
 10060e8:	8c000007 	ldb	r16,0(r17)
      parm1 = (parm1 * 10) + (*ptr++ - '0');
 10060ec:	14fff404 	addi	r19,r2,-48
  int parm1 = 0, parm2 = 0;

  if (sp->escape[0] == '[')
  {
    char * ptr = sp->escape+1;
    while (isdigit(*ptr))
 10060f0:	a407883a 	add	r3,r20,r16
 10060f4:	18800003 	ldbu	r2,0(r3)
 10060f8:	1080010c 	andi	r2,r2,4
 10060fc:	103ff51e 	bne	r2,zero,10060d4 <altera_avalon_lcd_16207_write+0x2f4>
      parm1 = (parm1 * 10) + (*ptr++ - '0');

    if (*ptr == ';')
 1006100:	00800ec4 	movi	r2,59
 1006104:	80801826 	beq	r16,r2,1006168 <altera_avalon_lcd_16207_write+0x388>
    }
  }
  else
    parm1 = -1;

  switch (c)
 1006108:	a8c03fcc 	andi	r3,r21,255
 100610c:	18c0201c 	xori	r3,r3,128
 1006110:	18ffe004 	addi	r3,r3,-128
 1006114:	00801284 	movi	r2,74
      parm1 = (parm1 * 10) + (*ptr++ - '0');

    if (*ptr == ';')
    {
      ptr++;
      while (isdigit(*ptr))
 1006118:	0009883a 	mov	r4,zero
    }
  }
  else
    parm1 = -1;

  switch (c)
 100611c:	18bf561e 	bne	r3,r2,1005e78 <altera_avalon_lcd_16207_write+0x98>
    /*   ESC J      is clear to beginning of line    [unimplemented]
     *   ESC [ 0 J  is clear to bottom of screen     [unimplemented]
     *   ESC [ 1 J  is clear to beginning of screen  [unimplemented]
     *   ESC [ 2 J  is clear screen
     */
    if (parm1 == 2)
 1006120:	01000084 	movi	r4,2
 1006124:	993f571e 	bne	r19,r4,1005e84 <altera_avalon_lcd_16207_write+0xa4>
      lcd_clear_screen(sp);
 1006128:	9009883a 	mov	r4,r18
 100612c:	1005bdc0 	call	1005bdc <lcd_clear_screen>
 1006130:	003f5406 	br	1005e84 <altera_avalon_lcd_16207_write+0xa4>
     * end of the message doesn't run into the beginning of it.
     */
    if (width <= ALT_LCD_WIDTH)
      width = ALT_LCD_WIDTH;
    else
      width++;
 1006134:	00800404 	movi	r2,16
 1006138:	1007883a 	mov	r3,r2
 100613c:	003f8706 	br	1005f5c <altera_avalon_lcd_16207_write+0x17c>
        sp->esccount++;
      }
    }
    else if (c == 27) /* ESC */
    {
      sp->esccount = 0;
 1006140:	90000905 	stb	zero,36(r18)
 1006144:	003f5106 	br	1005e8c <altera_avalon_lcd_16207_write+0xac>
    widthmax *= 2;
    sp->scrollmax = widthmax;

    /* Now calculate how fast each of the other lines should go */
    for (y = 0 ; y < ALT_LCD_HEIGHT ; y++)
      if (sp->line[y].width > ALT_LCD_WIDTH)
 1006148:	91002447 	ldb	r4,145(r18)

  if (widthmax <= ALT_LCD_WIDTH)
    sp->scrollmax = 0;
  else
  {
    widthmax *= 2;
 100614c:	a521883a 	add	r16,r20,r20
    sp->scrollmax = widthmax;
 1006150:	94000985 	stb	r16,38(r18)

    /* Now calculate how fast each of the other lines should go */
    for (y = 0 ; y < ALT_LCD_HEIGHT ; y++)
      if (sp->line[y].width > ALT_LCD_WIDTH)
 1006154:	89001f16 	blt	r17,r4,10061d4 <altera_avalon_lcd_16207_write+0x3f4>
 1006158:	91003d07 	ldb	r4,244(r18)
 100615c:	89001716 	blt	r17,r4,10061bc <altera_avalon_lcd_16207_write+0x3dc>
 1006160:	90c00947 	ldb	r3,37(r18)
 1006164:	003f8c06 	br	1005f98 <altera_avalon_lcd_16207_write+0x1b8>
      parm1 = (parm1 * 10) + (*ptr++ - '0');

    if (*ptr == ';')
    {
      ptr++;
      while (isdigit(*ptr))
 1006168:	8c000047 	ldb	r16,1(r17)
    while (isdigit(*ptr))
      parm1 = (parm1 * 10) + (*ptr++ - '0');

    if (*ptr == ';')
    {
      ptr++;
 100616c:	8c400044 	addi	r17,r17,1
      while (isdigit(*ptr))
 1006170:	a407883a 	add	r3,r20,r16
 1006174:	18800003 	ldbu	r2,0(r3)
 1006178:	1080010c 	andi	r2,r2,4
 100617c:	103fe226 	beq	r2,zero,1006108 <altera_avalon_lcd_16207_write+0x328>
 1006180:	0009883a 	mov	r4,zero
        parm2 = (parm2 * 10) + (*ptr++ - '0');
 1006184:	01400284 	movi	r5,10
 1006188:	1000cc40 	call	1000cc4 <__mulsi3>
 100618c:	8c400044 	addi	r17,r17,1
 1006190:	1405883a 	add	r2,r2,r16
      parm1 = (parm1 * 10) + (*ptr++ - '0');

    if (*ptr == ';')
    {
      ptr++;
      while (isdigit(*ptr))
 1006194:	8c000007 	ldb	r16,0(r17)
        parm2 = (parm2 * 10) + (*ptr++ - '0');
 1006198:	113ff404 	addi	r4,r2,-48
      parm1 = (parm1 * 10) + (*ptr++ - '0');

    if (*ptr == ';')
    {
      ptr++;
      while (isdigit(*ptr))
 100619c:	a407883a 	add	r3,r20,r16
 10061a0:	18800003 	ldbu	r2,0(r3)
 10061a4:	1080010c 	andi	r2,r2,4
 10061a8:	103ff61e 	bne	r2,zero,1006184 <altera_avalon_lcd_16207_write+0x3a4>
 10061ac:	003f2d06 	br	1005e64 <altera_avalon_lcd_16207_write+0x84>
    if (parm1 > 0)
    {
      sp->y = parm1 - 1;
      if (sp->y > ALT_LCD_HEIGHT * 2)
        sp->y = ALT_LCD_HEIGHT * 2;
      while (sp->y > ALT_LCD_HEIGHT)
 10061b0:	01000084 	movi	r4,2
 10061b4:	20ffb736 	bltu	r4,r3,1006094 <altera_avalon_lcd_16207_write+0x2b4>
 10061b8:	003f3206 	br	1005e84 <altera_avalon_lcd_16207_write+0xa4>
         */
#if 1
        /* This option makes all the lines scroll round at different speeds
         * which are chosen so that all the scrolls finish at the same time.
         */
        sp->line[y].speed = 256 * sp->line[y].width / widthmax;
 10061bc:	2008923a 	slli	r4,r4,8
 10061c0:	800b883a 	mov	r5,r16
 10061c4:	10080f80 	call	10080f8 <__divsi3>
 10061c8:	90c00947 	ldb	r3,37(r18)
 10061cc:	90803d45 	stb	r2,245(r18)
 10061d0:	003f7106 	br	1005f98 <altera_avalon_lcd_16207_write+0x1b8>
 10061d4:	2008923a 	slli	r4,r4,8
 10061d8:	800b883a 	mov	r5,r16
 10061dc:	10080f80 	call	10080f8 <__divsi3>
    widthmax *= 2;
    sp->scrollmax = widthmax;

    /* Now calculate how fast each of the other lines should go */
    for (y = 0 ; y < ALT_LCD_HEIGHT ; y++)
      if (sp->line[y].width > ALT_LCD_WIDTH)
 10061e0:	91003d07 	ldb	r4,244(r18)
         */
#if 1
        /* This option makes all the lines scroll round at different speeds
         * which are chosen so that all the scrolls finish at the same time.
         */
        sp->line[y].speed = 256 * sp->line[y].width / widthmax;
 10061e4:	90802485 	stb	r2,146(r18)
    widthmax *= 2;
    sp->scrollmax = widthmax;

    /* Now calculate how fast each of the other lines should go */
    for (y = 0 ; y < ALT_LCD_HEIGHT ; y++)
      if (sp->line[y].width > ALT_LCD_WIDTH)
 10061e8:	893fdd0e 	bge	r17,r4,1006160 <altera_avalon_lcd_16207_write+0x380>
 10061ec:	003ff306 	br	10061bc <altera_avalon_lcd_16207_write+0x3dc>
      if (sp->y > ALT_LCD_HEIGHT)
        lcd_scroll_up(sp);
    }
    else if (c == '\b')
    {
      if (sp->x > 0)
 10061f0:	90800843 	ldbu	r2,33(r18)
 10061f4:	103f2526 	beq	r2,zero,1005e8c <altera_avalon_lcd_16207_write+0xac>
        sp->x--;
 10061f8:	10bfffc4 	addi	r2,r2,-1
 10061fc:	90800845 	stb	r2,33(r18)
 1006200:	003f2206 	br	1005e8c <altera_avalon_lcd_16207_write+0xac>
    /*   ESC K      is clear to end of line
     *   ESC [ 0 K  is clear to end of line
     *   ESC [ 1 K  is clear to beginning of line    [unimplemented]
     *   ESC [ 2 K  is clear line                    [unimplemented]
     */
    if (parm1 < 1)
 1006204:	04ff1f16 	blt	zero,r19,1005e84 <altera_avalon_lcd_16207_write+0xa4>
    {
      if (sp->x < ALT_LCD_VIRTUAL_WIDTH)
 1006208:	94000843 	ldbu	r16,33(r18)
 100620c:	008013c4 	movi	r2,79
 1006210:	143f1c36 	bltu	r2,r16,1005e84 <altera_avalon_lcd_16207_write+0xa4>
        memset(sp->line[sp->y].data + sp->x, ' ', ALT_LCD_VIRTUAL_WIDTH - sp->x);
 1006214:	91000883 	ldbu	r4,34(r18)
 1006218:	014018c4 	movi	r5,99
 100621c:	04401404 	movi	r17,80
 1006220:	1000cc40 	call	1000cc4 <__mulsi3>
 1006224:	8085883a 	add	r2,r16,r2
 1006228:	8c23c83a 	sub	r17,r17,r16
 100622c:	10801004 	addi	r2,r2,64
 1006230:	9089883a 	add	r4,r18,r2
 1006234:	880d883a 	mov	r6,r17
 1006238:	01400804 	movi	r5,32
 100623c:	100307c0 	call	100307c <memset>
 1006240:	003f1006 	br	1005e84 <altera_avalon_lcd_16207_write+0xa4>
    {
      sp->esccount = 0;
    }
    else if (c == '\r')
    {
      sp->x = 0;
 1006244:	90000845 	stb	zero,33(r18)
 1006248:	003f1006 	br	1005e8c <altera_avalon_lcd_16207_write+0xac>
    }
    else if (c == '\n')
    {
      sp->x = 0;
      sp->y++;
 100624c:	90800883 	ldbu	r2,34(r18)
    {
      sp->x = 0;
    }
    else if (c == '\n')
    {
      sp->x = 0;
 1006250:	90000845 	stb	zero,33(r18)
      sp->y++;
 1006254:	10800044 	addi	r2,r2,1

      /* Let the cursor sit at X=0, Y=HEIGHT without scrolling so the user
       * can print two lines of data without losing one.
       */
      if (sp->y > ALT_LCD_HEIGHT)
 1006258:	10c03fcc 	andi	r3,r2,255
      sp->x = 0;
    }
    else if (c == '\n')
    {
      sp->x = 0;
      sp->y++;
 100625c:	90800885 	stb	r2,34(r18)

      /* Let the cursor sit at X=0, Y=HEIGHT without scrolling so the user
       * can print two lines of data without losing one.
       */
      if (sp->y > ALT_LCD_HEIGHT)
 1006260:	00800084 	movi	r2,2
 1006264:	10ff092e 	bgeu	r2,r3,1005e8c <altera_avalon_lcd_16207_write+0xac>
        lcd_scroll_up(sp);
 1006268:	9009883a 	mov	r4,r18
 100626c:	1005d600 	call	1005d60 <lcd_scroll_up>
 1006270:	003f0606 	br	1005e8c <altera_avalon_lcd_16207_write+0xac>
       * it now. */
      if (sp->y >= ALT_LCD_HEIGHT)
        lcd_scroll_up(sp);

      if (sp->x < ALT_LCD_VIRTUAL_WIDTH)
        sp->line[sp->y].data[sp->x] = c;
 1006274:	91000883 	ldbu	r4,34(r18)
 1006278:	014018c4 	movi	r5,99
 100627c:	1000cc40 	call	1000cc4 <__mulsi3>
 1006280:	1485883a 	add	r2,r2,r18
 1006284:	1445883a 	add	r2,r2,r17
 1006288:	14001005 	stb	r16,64(r2)
 100628c:	90c00843 	ldbu	r3,33(r18)

      sp->x++;
 1006290:	18800044 	addi	r2,r3,1
 1006294:	90800845 	stb	r2,33(r18)
 1006298:	003efc06 	br	1005e8c <altera_avalon_lcd_16207_write+0xac>
  {
    char * ptr = sp->escape+1;
    while (isdigit(*ptr))
      parm1 = (parm1 * 10) + (*ptr++ - '0');

    if (*ptr == ';')
 100629c:	00800ec4 	movi	r2,59
  int parm1 = 0, parm2 = 0;

  if (sp->escape[0] == '[')
  {
    char * ptr = sp->escape+1;
    while (isdigit(*ptr))
 10062a0:	0027883a 	mov	r19,zero
      parm1 = (parm1 * 10) + (*ptr++ - '0');

    if (*ptr == ';')
 10062a4:	80bf981e 	bne	r16,r2,1006108 <altera_avalon_lcd_16207_write+0x328>
 10062a8:	003faf06 	br	1006168 <altera_avalon_lcd_16207_write+0x388>

010062ac <altera_avalon_lcd_16207_write_fd>:
int 
altera_avalon_lcd_16207_write_fd(alt_fd* fd, const char* buffer, int space)
{
    altera_avalon_lcd_16207_dev* dev = (altera_avalon_lcd_16207_dev*) fd->dev; 

    return altera_avalon_lcd_16207_write(&dev->state, buffer, space,
 10062ac:	20800017 	ldw	r2,0(r4)
 10062b0:	21c00217 	ldw	r7,8(r4)
 10062b4:	11000a04 	addi	r4,r2,40
 10062b8:	1005de01 	jmpi	1005de0 <altera_avalon_lcd_16207_write>

010062bc <alt_avalon_timer_sc_init>:
 * in order to initialise the value of the clock frequency.
 */

static ALT_INLINE int ALT_ALWAYS_INLINE alt_sysclk_init (alt_u32 nticks)
{
  if (! _alt_tick_rate)
 10062bc:	02004074 	movhi	r8,257
 10062c0:	4228d504 	addi	r8,r8,-23724
 10062c4:	40800017 	ldw	r2,0(r8)
 * auto-generated alt_sys_init() function.
 */

void alt_avalon_timer_sc_init (void* base, alt_u32 irq_controller_id, 
                                alt_u32 irq, alt_u32 freq)
{
 10062c8:	defffe04 	addi	sp,sp,-8
 10062cc:	3807883a 	mov	r3,r7
 10062d0:	dfc00115 	stw	ra,4(sp)
 10062d4:	200f883a 	mov	r7,r4
 10062d8:	1000011e 	bne	r2,zero,10062e0 <alt_avalon_timer_sc_init+0x24>
  {
    _alt_tick_rate = nticks;
 10062dc:	40c00015 	stw	r3,0(r8)
  
  alt_sysclk_init (freq);
  
  /* set to free running mode */
  
  IOWR_ALTERA_AVALON_TIMER_CONTROL (base, 
 10062e0:	008001c4 	movi	r2,7
 10062e4:	38800135 	stwio	r2,4(r7)
            ALTERA_AVALON_TIMER_CONTROL_CONT_MSK |
            ALTERA_AVALON_TIMER_CONTROL_START_MSK);

  /* register the interrupt handler, and enable the interrupt */
#ifdef ALT_ENHANCED_INTERRUPT_API_PRESENT
  alt_ic_isr_register(irq_controller_id, irq, alt_avalon_timer_sc_irq, 
 10062e8:	2809883a 	mov	r4,r5
 10062ec:	300b883a 	mov	r5,r6
 10062f0:	01804034 	movhi	r6,256
 10062f4:	3198c304 	addi	r6,r6,25356
 10062f8:	d8000015 	stw	zero,0(sp)
 10062fc:	1006fc80 	call	1006fc8 <alt_ic_isr_register>
                      base, NULL);
#else
  alt_irq_register (irq, base, alt_avalon_timer_sc_irq);
#endif  
}
 1006300:	dfc00117 	ldw	ra,4(sp)
 1006304:	dec00204 	addi	sp,sp,8
 1006308:	f800283a 	ret

0100630c <alt_avalon_timer_sc_irq>:
#ifdef ALT_ENHANCED_INTERRUPT_API_PRESENT
static void alt_avalon_timer_sc_irq (void* base)
#else
static void alt_avalon_timer_sc_irq (void* base, alt_u32 id)
#endif
{
 100630c:	defffe04 	addi	sp,sp,-8
 1006310:	dfc00115 	stw	ra,4(sp)
 1006314:	dc000015 	stw	r16,0(sp)
  alt_irq_context cpu_sr;
  
  /* clear the interrupt */
  IOWR_ALTERA_AVALON_TIMER_STATUS (base, 0);
 1006318:	20000035 	stwio	zero,0(r4)
  /* 
   * Dummy read to ensure IRQ is negated before the ISR returns.
   * The control register is read because reading the status
   * register has side-effects per the register map documentation.
   */
  IORD_ALTERA_AVALON_TIMER_CONTROL (base);
 100631c:	20800137 	ldwio	r2,4(r4)
static ALT_INLINE alt_irq_context ALT_ALWAYS_INLINE 
       alt_irq_disable_all (void)
{
  alt_irq_context context;

  NIOS2_READ_STATUS (context);
 1006320:	0021303a 	rdctl	r16,status

  NIOS2_WRITE_STATUS (context & ~NIOS2_STATUS_PIE_MSK);
 1006324:	00bfff84 	movi	r2,-2
 1006328:	8084703a 	and	r2,r16,r2
 100632c:	1001703a 	wrctl	status,r2
  /* 
   * Notify the system of a clock tick. disable interrupts 
   * during this time to safely support ISR preemption
   */
  cpu_sr = alt_irq_disable_all();
  alt_tick ();
 1006330:	10073280 	call	1007328 <alt_tick>
  status &= ~NIOS2_STATUS_PIE_MSK;
  status |= (context & NIOS2_STATUS_PIE_MSK);
  
  NIOS2_WRITE_STATUS (status);
#else
  NIOS2_WRITE_STATUS (context);
 1006334:	8001703a 	wrctl	status,r16
  alt_irq_enable_all(cpu_sr);
}
 1006338:	dfc00117 	ldw	ra,4(sp)
 100633c:	dc000017 	ldw	r16,0(sp)
 1006340:	dec00204 	addi	sp,sp,8
 1006344:	f800283a 	ret

01006348 <altera_avalon_uart_close_fd>:
int 
altera_avalon_uart_close_fd(alt_fd* fd)
{
    altera_avalon_uart_dev* dev = (altera_avalon_uart_dev*) fd->dev; 

    return altera_avalon_uart_close(&dev->state, fd->fd_flags);
 1006348:	20800017 	ldw	r2,0(r4)
 100634c:	21400217 	ldw	r5,8(r4)
 1006350:	11000a04 	addi	r4,r2,40
 1006354:	10063781 	jmpi	1006378 <altera_avalon_uart_close>

01006358 <altera_avalon_uart_write_fd>:
int 
altera_avalon_uart_write_fd(alt_fd* fd, const char* buffer, int space)
{
    altera_avalon_uart_dev* dev = (altera_avalon_uart_dev*) fd->dev; 

    return altera_avalon_uart_write(&dev->state, buffer, space,
 1006358:	20800017 	ldw	r2,0(r4)
 100635c:	21c00217 	ldw	r7,8(r4)
 1006360:	11000a04 	addi	r4,r2,40
 1006364:	10066641 	jmpi	1006664 <altera_avalon_uart_write>

01006368 <altera_avalon_uart_read_fd>:
int 
altera_avalon_uart_read_fd(alt_fd* fd, char* buffer, int space)
{
    altera_avalon_uart_dev* dev = (altera_avalon_uart_dev*) fd->dev; 

    return altera_avalon_uart_read(&dev->state, buffer, space,
 1006368:	20800017 	ldw	r2,0(r4)
 100636c:	21c00217 	ldw	r7,8(r4)
 1006370:	11000a04 	addi	r4,r2,40
 1006374:	10065241 	jmpi	1006524 <altera_avalon_uart_read>

01006378 <altera_avalon_uart_close>:
int altera_avalon_uart_close(altera_avalon_uart_state* sp, int flags)
{
  /* 
   * Wait for all transmit data to be emptied by the UART ISR.
   */
  while (sp->tx_start != sp->tx_end) {
 1006378:	20c00517 	ldw	r3,20(r4)
 100637c:	2950000c 	andi	r5,r5,16384
 1006380:	280b003a 	cmpeq	r5,r5,zero
 1006384:	20800417 	ldw	r2,16(r4)
 1006388:	10c00326 	beq	r2,r3,1006398 <altera_avalon_uart_close+0x20>
    if (flags & O_NONBLOCK) {
 100638c:	283ffd1e 	bne	r5,zero,1006384 <altera_avalon_uart_close+0xc>
 1006390:	00bffd44 	movi	r2,-11
 1006394:	f800283a 	ret
int altera_avalon_uart_close(altera_avalon_uart_state* sp, int flags)
{
  /* 
   * Wait for all transmit data to be emptied by the UART ISR.
   */
  while (sp->tx_start != sp->tx_end) {
 1006398:	0005883a 	mov	r2,zero
      return -EWOULDBLOCK; 
    }
  }

  return 0;
}
 100639c:	f800283a 	ret

010063a0 <altera_avalon_uart_irq>:
  /*
   * Read the status register in order to determine the cause of the
   * interrupt.
   */

  status = IORD_ALTERA_AVALON_UART_STATUS(base);
 10063a0:	20800017 	ldw	r2,0(r4)
#ifdef ALT_ENHANCED_INTERRUPT_API_PRESENT
static void altera_avalon_uart_irq(void* context)
#else
static void altera_avalon_uart_irq(void* context, alt_u32 id)
#endif
{
 10063a4:	200d883a 	mov	r6,r4
  /*
   * Read the status register in order to determine the cause of the
   * interrupt.
   */

  status = IORD_ALTERA_AVALON_UART_STATUS(base);
 10063a8:	10c00204 	addi	r3,r2,8
 10063ac:	1a000037 	ldwio	r8,0(r3)

  /* Clear any error flags set at the device */
  IOWR_ALTERA_AVALON_UART_STATUS(base, 0);
 10063b0:	10000235 	stwio	zero,8(r2)

  /* Dummy read to ensure IRQ is negated before ISR returns */
  IORD_ALTERA_AVALON_UART_STATUS(base);
 10063b4:	19000037 	ldwio	r4,0(r3)
  
  /* process a read irq */
  if (status & ALTERA_AVALON_UART_STATUS_RRDY_MSK)
 10063b8:	4080200c 	andi	r2,r8,128
 10063bc:	10000226 	beq	r2,zero,10063c8 <altera_avalon_uart_irq+0x28>
{
  alt_u32 next;
  
  /* If there was an error, discard the data */

  if (status & (ALTERA_AVALON_UART_STATUS_PE_MSK | 
 10063c0:	408000cc 	andi	r2,r8,3
 10063c4:	10002726 	beq	r2,zero,1006464 <altera_avalon_uart_irq+0xc4>
  {
    altera_avalon_uart_rxirq(sp, status);
  }

  /* process a write irq */
  if (status & (ALTERA_AVALON_UART_STATUS_TRDY_MSK | 
 10063c8:	4081100c 	andi	r2,r8,1088
 10063cc:	10001c26 	beq	r2,zero,1006440 <altera_avalon_uart_irq+0xa0>
static void 
altera_avalon_uart_txirq(altera_avalon_uart_state* sp, alt_u32 status)
{
  /* Transfer data if there is some ready to be transfered */

  if (sp->tx_start != sp->tx_end)
 10063d0:	30800417 	ldw	r2,16(r6)
 10063d4:	31400517 	ldw	r5,20(r6)
 10063d8:	11401f26 	beq	r2,r5,1006458 <altera_avalon_uart_irq+0xb8>
    /* 
     * If the device is using flow control (i.e. RTS/CTS), then the
     * transmitter is required to throttle if CTS is high.
     */

    if (!(sp->flags & ALT_AVALON_UART_FC) ||
 10063dc:	30800617 	ldw	r2,24(r6)
 10063e0:	1080008c 	andi	r2,r2,2
 10063e4:	10000226 	beq	r2,zero,10063f0 <altera_avalon_uart_irq+0x50>
 10063e8:	4082000c 	andi	r2,r8,2048
 10063ec:	10003226 	beq	r2,zero,10064b8 <altera_avalon_uart_irq+0x118>
       * In a multi-threaded environment, set the write event flag to indicate
       * that there is space in the circular buffer. This is only done if the
       * buffer was previously empty.
       */

      if (sp->tx_start == ((sp->tx_end + 1) & ALT_AVALON_UART_BUF_MSK))
 10063f0:	30c00417 	ldw	r3,16(r6)
                       OS_FLAG_SET);
      }

      /* Write the data to the device */

      IOWR_ALTERA_AVALON_UART_TXDATA(sp->base, sp->tx_buf[sp->tx_start]);
 10063f4:	30800417 	ldw	r2,16(r6)
 10063f8:	31000017 	ldw	r4,0(r6)
 10063fc:	1185883a 	add	r2,r2,r6
 1006400:	10c01703 	ldbu	r3,92(r2)
 1006404:	20c00135 	stwio	r3,4(r4)

      sp->tx_start = (++sp->tx_start) & ALT_AVALON_UART_BUF_MSK;
 1006408:	30800417 	ldw	r2,16(r6)
      /*
       * In case the tranmit interrupt had previously been disabled by 
       * detecting a low value on CTS, it is reenabled here.
       */ 

      sp->ctrl |= ALTERA_AVALON_UART_CONTROL_TRDY_MSK;
 100640c:	31000117 	ldw	r4,4(r6)
 1006410:	31c00017 	ldw	r7,0(r6)

      /* Write the data to the device */

      IOWR_ALTERA_AVALON_UART_TXDATA(sp->base, sp->tx_buf[sp->tx_start]);

      sp->tx_start = (++sp->tx_start) & ALT_AVALON_UART_BUF_MSK;
 1006414:	10800044 	addi	r2,r2,1
 1006418:	30800415 	stw	r2,16(r6)
 100641c:	30c00417 	ldw	r3,16(r6)
 1006420:	31400517 	ldw	r5,20(r6)
      /*
       * In case the tranmit interrupt had previously been disabled by 
       * detecting a low value on CTS, it is reenabled here.
       */ 

      sp->ctrl |= ALTERA_AVALON_UART_CONTROL_TRDY_MSK;
 1006424:	21001014 	ori	r4,r4,64

      /* Write the data to the device */

      IOWR_ALTERA_AVALON_UART_TXDATA(sp->base, sp->tx_buf[sp->tx_start]);

      sp->tx_start = (++sp->tx_start) & ALT_AVALON_UART_BUF_MSK;
 1006428:	18c00fcc 	andi	r3,r3,63
 100642c:	30c00415 	stw	r3,16(r6)
      /*
       * In case the tranmit interrupt had previously been disabled by 
       * detecting a low value on CTS, it is reenabled here.
       */ 

      sp->ctrl |= ALTERA_AVALON_UART_CONTROL_TRDY_MSK;
 1006430:	31000115 	stw	r4,4(r6)
  /*
   * If the circular buffer is empty, disable the interrupt. This will be
   * re-enabled when new data is placed in the buffer.
   */

  if (sp->tx_start == sp->tx_end)
 1006434:	30800417 	ldw	r2,16(r6)
 1006438:	11400226 	beq	r2,r5,1006444 <altera_avalon_uart_irq+0xa4>
  {
    sp->ctrl &= ~(ALTERA_AVALON_UART_CONTROL_TRDY_MSK |
                    ALTERA_AVALON_UART_CONTROL_DCTS_MSK);
  }

  IOWR_ALTERA_AVALON_UART_CONTROL(sp->base, sp->ctrl);
 100643c:	39000335 	stwio	r4,12(r7)
 1006440:	f800283a 	ret
   * re-enabled when new data is placed in the buffer.
   */

  if (sp->tx_start == sp->tx_end)
  {
    sp->ctrl &= ~(ALTERA_AVALON_UART_CONTROL_TRDY_MSK |
 1006444:	00beefc4 	movi	r2,-1089
 1006448:	2088703a 	and	r4,r4,r2
 100644c:	31000115 	stw	r4,4(r6)
                    ALTERA_AVALON_UART_CONTROL_DCTS_MSK);
  }

  IOWR_ALTERA_AVALON_UART_CONTROL(sp->base, sp->ctrl);
 1006450:	39000335 	stwio	r4,12(r7)
 1006454:	003ffa06 	br	1006440 <altera_avalon_uart_irq+0xa0>
 1006458:	31c00017 	ldw	r7,0(r6)
 100645c:	31000117 	ldw	r4,4(r6)
 1006460:	003ff406 	br	1006434 <altera_avalon_uart_irq+0x94>
   * In a multi-threaded environment, set the read event flag to indicate
   * that there is data ready. This is only done if the circular buffer was
   * previously empty.
   */

  if (sp->rx_end == sp->rx_start)
 1006464:	30c00317 	ldw	r3,12(r6)
    ALT_FLAG_POST (sp->events, ALT_UART_READ_RDY, OS_FLAG_SET);
  }

  /* Determine which slot to use next in the circular buffer */

  next = (sp->rx_end + 1) & ALT_AVALON_UART_BUF_MSK;
 1006468:	30800317 	ldw	r2,12(r6)

  /* Transfer data from the device to the circular buffer */

  sp->rx_buf[sp->rx_end] = IORD_ALTERA_AVALON_UART_RXDATA(sp->base);
 100646c:	31c00017 	ldw	r7,0(r6)
 1006470:	31000317 	ldw	r4,12(r6)
    ALT_FLAG_POST (sp->events, ALT_UART_READ_RDY, OS_FLAG_SET);
  }

  /* Determine which slot to use next in the circular buffer */

  next = (sp->rx_end + 1) & ALT_AVALON_UART_BUF_MSK;
 1006474:	10800044 	addi	r2,r2,1
 1006478:	10800fcc 	andi	r2,r2,63

  /* Transfer data from the device to the circular buffer */

  sp->rx_buf[sp->rx_end] = IORD_ALTERA_AVALON_UART_RXDATA(sp->base);
 100647c:	39400037 	ldwio	r5,0(r7)

  sp->rx_end = next;
 1006480:	30800315 	stw	r2,12(r6)

  next = (sp->rx_end + 1) & ALT_AVALON_UART_BUF_MSK;
 1006484:	30c00317 	ldw	r3,12(r6)
  /*
   * If the cicular buffer was full, disable interrupts. Interrupts will be
   * re-enabled when data is removed from the buffer.
   */

  if (next == sp->rx_start)
 1006488:	30800217 	ldw	r2,8(r6)

  next = (sp->rx_end + 1) & ALT_AVALON_UART_BUF_MSK;

  /* Transfer data from the device to the circular buffer */

  sp->rx_buf[sp->rx_end] = IORD_ALTERA_AVALON_UART_RXDATA(sp->base);
 100648c:	2189883a 	add	r4,r4,r6
  /*
   * If the cicular buffer was full, disable interrupts. Interrupts will be
   * re-enabled when data is removed from the buffer.
   */

  if (next == sp->rx_start)
 1006490:	18c00044 	addi	r3,r3,1
 1006494:	18c00fcc 	andi	r3,r3,63

  next = (sp->rx_end + 1) & ALT_AVALON_UART_BUF_MSK;

  /* Transfer data from the device to the circular buffer */

  sp->rx_buf[sp->rx_end] = IORD_ALTERA_AVALON_UART_RXDATA(sp->base);
 1006498:	21400705 	stb	r5,28(r4)
  /*
   * If the cicular buffer was full, disable interrupts. Interrupts will be
   * re-enabled when data is removed from the buffer.
   */

  if (next == sp->rx_start)
 100649c:	18bfca1e 	bne	r3,r2,10063c8 <altera_avalon_uart_irq+0x28>
  {
    sp->ctrl &= ~ALTERA_AVALON_UART_CONTROL_RRDY_MSK;
 10064a0:	30c00117 	ldw	r3,4(r6)
 10064a4:	00bfdfc4 	movi	r2,-129
 10064a8:	1888703a 	and	r4,r3,r2
 10064ac:	31000115 	stw	r4,4(r6)
    IOWR_ALTERA_AVALON_UART_CONTROL(sp->base, sp->ctrl); 
 10064b0:	39000335 	stwio	r4,12(r7)
 10064b4:	003fc406 	br	10063c8 <altera_avalon_uart_irq+0x28>
       * the last write to the status register. To avoid this resulting in
       * deadlock, it's necessary to re-check the status register here
       * before throttling.
       */
 
      status = IORD_ALTERA_AVALON_UART_STATUS(sp->base); 
 10064b8:	31c00017 	ldw	r7,0(r6)
 10064bc:	38800237 	ldwio	r2,8(r7)

      if (!(status & ALTERA_AVALON_UART_STATUS_CTS_MSK))
 10064c0:	1082000c 	andi	r2,r2,2048
 10064c4:	1000051e 	bne	r2,zero,10064dc <altera_avalon_uart_irq+0x13c>
      {
        sp->ctrl &= ~ALTERA_AVALON_UART_CONTROL_TRDY_MSK;
 10064c8:	31000117 	ldw	r4,4(r6)
 10064cc:	00bfefc4 	movi	r2,-65
 10064d0:	2088703a 	and	r4,r4,r2
 10064d4:	31000115 	stw	r4,4(r6)
 10064d8:	003fd606 	br	1006434 <altera_avalon_uart_irq+0x94>
 10064dc:	31000117 	ldw	r4,4(r6)
 10064e0:	003fd406 	br	1006434 <altera_avalon_uart_irq+0x94>

010064e4 <altera_avalon_uart_init>:

void 
altera_avalon_uart_init(altera_avalon_uart_state* sp, 
  alt_u32 irq_controller_id,  alt_u32 irq)
{
  void* base = sp->base;
 10064e4:	20c00017 	ldw	r3,0(r4)
  alt_u32 status);

void 
altera_avalon_uart_init(altera_avalon_uart_state* sp, 
  alt_u32 irq_controller_id,  alt_u32 irq)
{
 10064e8:	defffe04 	addi	sp,sp,-8
          ALT_SEM_CREATE (&sp->write_lock, 1);

  if (!error)
  {
    /* enable interrupts at the device */
    sp->ctrl = ALTERA_AVALON_UART_CONTROL_RTS_MSK  |
 10064ec:	00832004 	movi	r2,3200
  alt_u32 status);

void 
altera_avalon_uart_init(altera_avalon_uart_state* sp, 
  alt_u32 irq_controller_id,  alt_u32 irq)
{
 10064f0:	200f883a 	mov	r7,r4
 10064f4:	dfc00115 	stw	ra,4(sp)
          ALT_SEM_CREATE (&sp->write_lock, 1);

  if (!error)
  {
    /* enable interrupts at the device */
    sp->ctrl = ALTERA_AVALON_UART_CONTROL_RTS_MSK  |
 10064f8:	20800115 	stw	r2,4(r4)
                ALTERA_AVALON_UART_CONTROL_RRDY_MSK |
                ALTERA_AVALON_UART_CONTROL_DCTS_MSK;

    IOWR_ALTERA_AVALON_UART_CONTROL(base, sp->ctrl); 
 10064fc:	18800335 	stwio	r2,12(r3)
  
    /* register the interrupt handler */
#ifdef ALT_ENHANCED_INTERRUPT_API_PRESENT
    alt_ic_isr_register(irq_controller_id, irq, altera_avalon_uart_irq, sp, 
 1006500:	2809883a 	mov	r4,r5
 1006504:	300b883a 	mov	r5,r6
 1006508:	01804034 	movhi	r6,256
 100650c:	3198e804 	addi	r6,r6,25504
 1006510:	d8000015 	stw	zero,0(sp)
 1006514:	1006fc80 	call	1006fc8 <alt_ic_isr_register>
      0x0);
#else
    alt_irq_register (irq, sp, altera_avalon_uart_irq);
#endif  
  }
}
 1006518:	dfc00117 	ldw	ra,4(sp)
 100651c:	dec00204 	addi	sp,sp,8
 1006520:	f800283a 	ret

01006524 <altera_avalon_uart_read>:
 */

int 
altera_avalon_uart_read(altera_avalon_uart_state* sp, char* ptr, int len,
  int flags)
{
 1006524:	defffe04 	addi	sp,sp,-8
 1006528:	dc000015 	stw	r16,0(sp)
 100652c:	dfc00115 	stw	ra,4(sp)
 1006530:	2021883a 	mov	r16,r4
  /* 
   * Construct a flag to indicate whether the device is being accessed in
   * blocking or non-blocking mode.
   */

  block = !(flags & O_NONBLOCK);
 1006534:	39d0000c 	andi	r7,r7,16384
 1006538:	0011883a 	mov	r8,zero
    /*
     * Read the required amount of data, until the circular buffer runs
     * empty
     */

    while ((count < len) && (sp->rx_start != sp->rx_end))
 100653c:	41800d0e 	bge	r8,r6,1006574 <altera_avalon_uart_read+0x50>
 1006540:	80800217 	ldw	r2,8(r16)
 1006544:	80c00317 	ldw	r3,12(r16)
    {
      count++;
      *ptr++ = sp->rx_buf[sp->rx_start];
 1006548:	1409883a 	add	r4,r2,r16
    /*
     * Read the required amount of data, until the circular buffer runs
     * empty
     */

    while ((count < len) && (sp->rx_start != sp->rx_end))
 100654c:	10c00926 	beq	r2,r3,1006574 <altera_avalon_uart_read+0x50>
    {
      count++;
      *ptr++ = sp->rx_buf[sp->rx_start];
 1006550:	20800703 	ldbu	r2,28(r4)
     * empty
     */

    while ((count < len) && (sp->rx_start != sp->rx_end))
    {
      count++;
 1006554:	42000044 	addi	r8,r8,1
      *ptr++ = sp->rx_buf[sp->rx_start];
 1006558:	28800005 	stb	r2,0(r5)
      
      sp->rx_start = (++sp->rx_start) & ALT_AVALON_UART_BUF_MSK;
 100655c:	80800217 	ldw	r2,8(r16)
     */

    while ((count < len) && (sp->rx_start != sp->rx_end))
    {
      count++;
      *ptr++ = sp->rx_buf[sp->rx_start];
 1006560:	29400044 	addi	r5,r5,1
      
      sp->rx_start = (++sp->rx_start) & ALT_AVALON_UART_BUF_MSK;
 1006564:	10800044 	addi	r2,r2,1
 1006568:	10800fcc 	andi	r2,r2,63
 100656c:	80800215 	stw	r2,8(r16)
    /*
     * Read the required amount of data, until the circular buffer runs
     * empty
     */

    while ((count < len) && (sp->rx_start != sp->rx_end))
 1006570:	41bff316 	blt	r8,r6,1006540 <altera_avalon_uart_read+0x1c>
    /*
     * If no data has been transferred, the circular buffer is empty, and
     * this is not a non-blocking access, block waiting for data to arrive.
     */

    if (!count && (sp->rx_start == sp->rx_end))
 1006574:	4000041e 	bne	r8,zero,1006588 <altera_avalon_uart_read+0x64>
 1006578:	80c00317 	ldw	r3,12(r16)
 100657c:	80800217 	ldw	r2,8(r16)
 1006580:	10c01026 	beq	r2,r3,10065c4 <altera_avalon_uart_read+0xa0>
                      OS_FLAG_WAIT_SET_ANY + OS_FLAG_CONSUME,
                      0);
      }
    }
  }
  while (!count && len);
 1006584:	303fed1e 	bne	r6,zero,100653c <altera_avalon_uart_read+0x18>
static ALT_INLINE alt_irq_context ALT_ALWAYS_INLINE 
       alt_irq_disable_all (void)
{
  alt_irq_context context;

  NIOS2_READ_STATUS (context);
 1006588:	0009303a 	rdctl	r4,status

  NIOS2_WRITE_STATUS (context & ~NIOS2_STATUS_PIE_MSK);
 100658c:	00bfff84 	movi	r2,-2
 1006590:	2084703a 	and	r2,r4,r2
 1006594:	1001703a 	wrctl	status,r2
   * Ensure that interrupts are enabled, so that the circular buffer can
   * re-fill.
   */

  context = alt_irq_disable_all ();
  sp->ctrl |= ALTERA_AVALON_UART_CONTROL_RRDY_MSK;
 1006598:	80c00117 	ldw	r3,4(r16)
  IOWR_ALTERA_AVALON_UART_CONTROL(sp->base, sp->ctrl);
 100659c:	80800017 	ldw	r2,0(r16)
   * Ensure that interrupts are enabled, so that the circular buffer can
   * re-fill.
   */

  context = alt_irq_disable_all ();
  sp->ctrl |= ALTERA_AVALON_UART_CONTROL_RRDY_MSK;
 10065a0:	18c02014 	ori	r3,r3,128
 10065a4:	80c00115 	stw	r3,4(r16)
  IOWR_ALTERA_AVALON_UART_CONTROL(sp->base, sp->ctrl);
 10065a8:	10c00335 	stwio	r3,12(r2)
  status &= ~NIOS2_STATUS_PIE_MSK;
  status |= (context & NIOS2_STATUS_PIE_MSK);
  
  NIOS2_WRITE_STATUS (status);
#else
  NIOS2_WRITE_STATUS (context);
 10065ac:	2001703a 	wrctl	status,r4
    return ~EWOULDBLOCK;
  }
  else {
    return count;
  }
}
 10065b0:	4005883a 	mov	r2,r8
 10065b4:	dfc00117 	ldw	ra,4(sp)
 10065b8:	dc000017 	ldw	r16,0(sp)
 10065bc:	dec00204 	addi	sp,sp,8
 10065c0:	f800283a 	ret
     * this is not a non-blocking access, block waiting for data to arrive.
     */

    if (!count && (sp->rx_start == sp->rx_end))
    {
      if (!block)
 10065c4:	38000c1e 	bne	r7,zero,10065f8 <altera_avalon_uart_read+0xd4>
static ALT_INLINE alt_irq_context ALT_ALWAYS_INLINE 
       alt_irq_disable_all (void)
{
  alt_irq_context context;

  NIOS2_READ_STATUS (context);
 10065c8:	0009303a 	rdctl	r4,status

  NIOS2_WRITE_STATUS (context & ~NIOS2_STATUS_PIE_MSK);
 10065cc:	00bfff84 	movi	r2,-2
 10065d0:	2084703a 	and	r2,r4,r2
 10065d4:	1001703a 	wrctl	status,r2
       /* Block waiting for some data to arrive */

       /* First, ensure read interrupts are enabled to avoid deadlock */

       context = alt_irq_disable_all ();
       sp->ctrl |= ALTERA_AVALON_UART_CONTROL_RRDY_MSK;
 10065d8:	80c00117 	ldw	r3,4(r16)
       IOWR_ALTERA_AVALON_UART_CONTROL(sp->base, sp->ctrl);
 10065dc:	80800017 	ldw	r2,0(r16)
       /* Block waiting for some data to arrive */

       /* First, ensure read interrupts are enabled to avoid deadlock */

       context = alt_irq_disable_all ();
       sp->ctrl |= ALTERA_AVALON_UART_CONTROL_RRDY_MSK;
 10065e0:	18c02014 	ori	r3,r3,128
 10065e4:	80c00115 	stw	r3,4(r16)
       IOWR_ALTERA_AVALON_UART_CONTROL(sp->base, sp->ctrl);
 10065e8:	10c00335 	stwio	r3,12(r2)
  status &= ~NIOS2_STATUS_PIE_MSK;
  status |= (context & NIOS2_STATUS_PIE_MSK);
  
  NIOS2_WRITE_STATUS (status);
#else
  NIOS2_WRITE_STATUS (context);
 10065ec:	2001703a 	wrctl	status,r4
                      OS_FLAG_WAIT_SET_ANY + OS_FLAG_CONSUME,
                      0);
      }
    }
  }
  while (!count && len);
 10065f0:	303fd21e 	bne	r6,zero,100653c <altera_avalon_uart_read+0x18>
 10065f4:	003fe406 	br	1006588 <altera_avalon_uart_read+0x64>
 10065f8:	00804074 	movhi	r2,257
 10065fc:	10a8bf04 	addi	r2,r2,-23812
 1006600:	10800017 	ldw	r2,0(r2)
 1006604:	10001426 	beq	r2,zero,1006658 <altera_avalon_uart_read+0x134>
 1006608:	103ee83a 	callr	r2
 100660c:	1007883a 	mov	r3,r2
    {
      if (!block)
      {
        /* Set errno to indicate the reason we're not returning any data */

        ALT_ERRNO = EWOULDBLOCK;
 1006610:	008002c4 	movi	r2,11
 1006614:	18800015 	stw	r2,0(r3)
static ALT_INLINE alt_irq_context ALT_ALWAYS_INLINE 
       alt_irq_disable_all (void)
{
  alt_irq_context context;

  NIOS2_READ_STATUS (context);
 1006618:	0009303a 	rdctl	r4,status

  NIOS2_WRITE_STATUS (context & ~NIOS2_STATUS_PIE_MSK);
 100661c:	00bfff84 	movi	r2,-2
 1006620:	2084703a 	and	r2,r4,r2
 1006624:	1001703a 	wrctl	status,r2
   * Ensure that interrupts are enabled, so that the circular buffer can
   * re-fill.
   */

  context = alt_irq_disable_all ();
  sp->ctrl |= ALTERA_AVALON_UART_CONTROL_RRDY_MSK;
 1006628:	80c00117 	ldw	r3,4(r16)
  IOWR_ALTERA_AVALON_UART_CONTROL(sp->base, sp->ctrl);
 100662c:	80800017 	ldw	r2,0(r16)
   * Ensure that interrupts are enabled, so that the circular buffer can
   * re-fill.
   */

  context = alt_irq_disable_all ();
  sp->ctrl |= ALTERA_AVALON_UART_CONTROL_RRDY_MSK;
 1006630:	18c02014 	ori	r3,r3,128
 1006634:	80c00115 	stw	r3,4(r16)
  IOWR_ALTERA_AVALON_UART_CONTROL(sp->base, sp->ctrl);
 1006638:	10c00335 	stwio	r3,12(r2)
  status &= ~NIOS2_STATUS_PIE_MSK;
  status |= (context & NIOS2_STATUS_PIE_MSK);
  
  NIOS2_WRITE_STATUS (status);
#else
  NIOS2_WRITE_STATUS (context);
 100663c:	2001703a 	wrctl	status,r4
 1006640:	023ffd04 	movi	r8,-12
    return ~EWOULDBLOCK;
  }
  else {
    return count;
  }
}
 1006644:	4005883a 	mov	r2,r8
 1006648:	dfc00117 	ldw	ra,4(sp)
 100664c:	dc000017 	ldw	r16,0(sp)
 1006650:	dec00204 	addi	sp,sp,8
 1006654:	f800283a 	ret
 1006658:	00c04074 	movhi	r3,257
 100665c:	18e8d004 	addi	r3,r3,-23744
 1006660:	003feb06 	br	1006610 <altera_avalon_uart_read+0xec>

01006664 <altera_avalon_uart_write>:
 */

int
altera_avalon_uart_write(altera_avalon_uart_state* sp, const char* ptr, int len,
  int flags)
{
 1006664:	defffc04 	addi	sp,sp,-16
 1006668:	dc800215 	stw	r18,8(sp)
 100666c:	dc000015 	stw	r16,0(sp)
 1006670:	dfc00315 	stw	ra,12(sp)
 1006674:	dc400115 	stw	r17,4(sp)
 1006678:	3025883a 	mov	r18,r6
 100667c:	2021883a 	mov	r16,r4
  /* 
   * Construct a flag to indicate whether the device is being accessed in
   * blocking or non-blocking mode.
   */

  no_block = (flags & O_NONBLOCK);
 1006680:	39d0000c 	andi	r7,r7,16384
   * Loop transferring data from the input buffer to the transmit circular
   * buffer. The loop is terminated once all the data has been transferred,
   * or, (if in non-blocking mode) the buffer becomes full.
   */

  while (count)
 1006684:	30004326 	beq	r6,zero,1006794 <altera_avalon_uart_write+0x130>
 1006688:	21000517 	ldw	r4,20(r4)
 100668c:	3023883a 	mov	r17,r6
 1006690:	00000806 	br	10066b4 <altera_avalon_uart_write+0x50>

    count--;

    /* Add the next character to the transmit buffer */

    sp->tx_buf[sp->tx_end] = *ptr++;
 1006694:	28c00003 	ldbu	r3,0(r5)
 1006698:	2405883a 	add	r2,r4,r16
        }
        while ((next == sp->tx_start));
      }
    }

    count--;
 100669c:	8c7fffc4 	addi	r17,r17,-1

    /* Add the next character to the transmit buffer */

    sp->tx_buf[sp->tx_end] = *ptr++;
    sp->tx_end = next;
 10066a0:	3009883a 	mov	r4,r6

    count--;

    /* Add the next character to the transmit buffer */

    sp->tx_buf[sp->tx_end] = *ptr++;
 10066a4:	10c01705 	stb	r3,92(r2)
    sp->tx_end = next;
 10066a8:	81800515 	stw	r6,20(r16)
   * Loop transferring data from the input buffer to the transmit circular
   * buffer. The loop is terminated once all the data has been transferred,
   * or, (if in non-blocking mode) the buffer becomes full.
   */

  while (count)
 10066ac:	88001a26 	beq	r17,zero,1006718 <altera_avalon_uart_write+0xb4>

    count--;

    /* Add the next character to the transmit buffer */

    sp->tx_buf[sp->tx_end] = *ptr++;
 10066b0:	29400044 	addi	r5,r5,1

    next = (sp->tx_end + 1) & ALT_AVALON_UART_BUF_MSK;

    /* block waiting for space if necessary */

    if (next == sp->tx_start)
 10066b4:	80c00417 	ldw	r3,16(r16)

  while (count)
  {
    /* Determine the next slot in the buffer to access */

    next = (sp->tx_end + 1) & ALT_AVALON_UART_BUF_MSK;
 10066b8:	20800044 	addi	r2,r4,1
 10066bc:	11800fcc 	andi	r6,r2,63

    /* block waiting for space if necessary */

    if (next == sp->tx_start)
 10066c0:	30fff41e 	bne	r6,r3,1006694 <altera_avalon_uart_write+0x30>
    {
      if (no_block)
 10066c4:	3800261e 	bne	r7,zero,1006760 <altera_avalon_uart_write+0xfc>
static ALT_INLINE alt_irq_context ALT_ALWAYS_INLINE 
       alt_irq_disable_all (void)
{
  alt_irq_context context;

  NIOS2_READ_STATUS (context);
 10066c8:	0009303a 	rdctl	r4,status

  NIOS2_WRITE_STATUS (context & ~NIOS2_STATUS_PIE_MSK);
 10066cc:	00bfff84 	movi	r2,-2
 10066d0:	2084703a 	and	r2,r4,r2
 10066d4:	1001703a 	wrctl	status,r2
        /* Block waiting for space in the circular buffer */

        /* First, ensure transmit interrupts are enabled to avoid deadlock */

        context = alt_irq_disable_all ();
        sp->ctrl |= (ALTERA_AVALON_UART_CONTROL_TRDY_MSK |
 10066d8:	80c00117 	ldw	r3,4(r16)
                        ALTERA_AVALON_UART_CONTROL_DCTS_MSK);
        IOWR_ALTERA_AVALON_UART_CONTROL(sp->base, sp->ctrl);
 10066dc:	80800017 	ldw	r2,0(r16)
        /* Block waiting for space in the circular buffer */

        /* First, ensure transmit interrupts are enabled to avoid deadlock */

        context = alt_irq_disable_all ();
        sp->ctrl |= (ALTERA_AVALON_UART_CONTROL_TRDY_MSK |
 10066e0:	18c11014 	ori	r3,r3,1088
 10066e4:	80c00115 	stw	r3,4(r16)
                        ALTERA_AVALON_UART_CONTROL_DCTS_MSK);
        IOWR_ALTERA_AVALON_UART_CONTROL(sp->base, sp->ctrl);
 10066e8:	10c00335 	stwio	r3,12(r2)
  status &= ~NIOS2_STATUS_PIE_MSK;
  status |= (context & NIOS2_STATUS_PIE_MSK);
  
  NIOS2_WRITE_STATUS (status);
#else
  NIOS2_WRITE_STATUS (context);
 10066ec:	2001703a 	wrctl	status,r4
          ALT_FLAG_PEND (sp->events, 
                         ALT_UART_WRITE_RDY,
                         OS_FLAG_WAIT_SET_ANY + OS_FLAG_CONSUME,
                         0);
        }
        while ((next == sp->tx_start));
 10066f0:	80800417 	ldw	r2,16(r16)
 10066f4:	30bffe26 	beq	r6,r2,10066f0 <altera_avalon_uart_write+0x8c>
 10066f8:	81000517 	ldw	r4,20(r16)

    count--;

    /* Add the next character to the transmit buffer */

    sp->tx_buf[sp->tx_end] = *ptr++;
 10066fc:	28c00003 	ldbu	r3,0(r5)
        }
        while ((next == sp->tx_start));
      }
    }

    count--;
 1006700:	8c7fffc4 	addi	r17,r17,-1

    /* Add the next character to the transmit buffer */

    sp->tx_buf[sp->tx_end] = *ptr++;
 1006704:	2405883a 	add	r2,r4,r16
 1006708:	10c01705 	stb	r3,92(r2)
    sp->tx_end = next;
 100670c:	3009883a 	mov	r4,r6
 1006710:	81800515 	stw	r6,20(r16)
   * Loop transferring data from the input buffer to the transmit circular
   * buffer. The loop is terminated once all the data has been transferred,
   * or, (if in non-blocking mode) the buffer becomes full.
   */

  while (count)
 1006714:	883fe61e 	bne	r17,zero,10066b0 <altera_avalon_uart_write+0x4c>

    count--;

    /* Add the next character to the transmit buffer */

    sp->tx_buf[sp->tx_end] = *ptr++;
 1006718:	944bc83a 	sub	r5,r18,r17
static ALT_INLINE alt_irq_context ALT_ALWAYS_INLINE 
       alt_irq_disable_all (void)
{
  alt_irq_context context;

  NIOS2_READ_STATUS (context);
 100671c:	0009303a 	rdctl	r4,status

  NIOS2_WRITE_STATUS (context & ~NIOS2_STATUS_PIE_MSK);
 1006720:	00bfff84 	movi	r2,-2
 1006724:	2084703a 	and	r2,r4,r2
 1006728:	1001703a 	wrctl	status,r2
   * Ensure that interrupts are enabled, so that the circular buffer can 
   * drain.
   */

  context = alt_irq_disable_all ();
  sp->ctrl |= ALTERA_AVALON_UART_CONTROL_TRDY_MSK |
 100672c:	80c00117 	ldw	r3,4(r16)
                 ALTERA_AVALON_UART_CONTROL_DCTS_MSK;
  IOWR_ALTERA_AVALON_UART_CONTROL(sp->base, sp->ctrl);
 1006730:	80800017 	ldw	r2,0(r16)
   * Ensure that interrupts are enabled, so that the circular buffer can 
   * drain.
   */

  context = alt_irq_disable_all ();
  sp->ctrl |= ALTERA_AVALON_UART_CONTROL_TRDY_MSK |
 1006734:	18c11014 	ori	r3,r3,1088
 1006738:	80c00115 	stw	r3,4(r16)
                 ALTERA_AVALON_UART_CONTROL_DCTS_MSK;
  IOWR_ALTERA_AVALON_UART_CONTROL(sp->base, sp->ctrl);
 100673c:	10c00335 	stwio	r3,12(r2)
  status &= ~NIOS2_STATUS_PIE_MSK;
  status |= (context & NIOS2_STATUS_PIE_MSK);
  
  NIOS2_WRITE_STATUS (status);
#else
  NIOS2_WRITE_STATUS (context);
 1006740:	2001703a 	wrctl	status,r4
  alt_irq_enable_all (context);

  /* return the number of bytes written */

  return (len - count);
}
 1006744:	2805883a 	mov	r2,r5
 1006748:	dfc00317 	ldw	ra,12(sp)
 100674c:	dc800217 	ldw	r18,8(sp)
 1006750:	dc400117 	ldw	r17,4(sp)
 1006754:	dc000017 	ldw	r16,0(sp)
 1006758:	dec00404 	addi	sp,sp,16
 100675c:	f800283a 	ret
 1006760:	00804074 	movhi	r2,257
 1006764:	10a8bf04 	addi	r2,r2,-23812
 1006768:	10800017 	ldw	r2,0(r2)
 100676c:	10000626 	beq	r2,zero,1006788 <altera_avalon_uart_write+0x124>
 1006770:	103ee83a 	callr	r2
 1006774:	1007883a 	mov	r3,r2
    {
      if (no_block)
      {
        /* Set errno to indicate why this function returned early */
 
        ALT_ERRNO = EWOULDBLOCK;
 1006778:	008002c4 	movi	r2,11
 100677c:	944bc83a 	sub	r5,r18,r17
 1006780:	18800015 	stw	r2,0(r3)
 1006784:	003fe506 	br	100671c <altera_avalon_uart_write+0xb8>
 1006788:	00c04074 	movhi	r3,257
 100678c:	18e8d004 	addi	r3,r3,-23744
 1006790:	003ff906 	br	1006778 <altera_avalon_uart_write+0x114>
   * Loop transferring data from the input buffer to the transmit circular
   * buffer. The loop is terminated once all the data has been transferred,
   * or, (if in non-blocking mode) the buffer becomes full.
   */

  while (count)
 1006794:	000b883a 	mov	r5,zero
 1006798:	003fe006 	br	100671c <altera_avalon_uart_write+0xb8>

0100679c <epcs_read_device_id>:

  return res;
}

alt_u32 epcs_read_device_id(alt_u32 base)
{
 100679c:	defffb04 	addi	sp,sp,-20
  const alt_u8 rd_id_cmd[] = {epcs_rdid};
  alt_u8 id[3];

  alt_avalon_spi_command(
 10067a0:	d8c00304 	addi	r3,sp,12
 10067a4:	00800044 	movi	r2,1
 10067a8:	1891883a 	add	r8,r3,r2
 10067ac:	100d883a 	mov	r6,r2
 10067b0:	180f883a 	mov	r7,r3
 10067b4:	000b883a 	mov	r5,zero
 10067b8:	00c000c4 	movi	r3,3
  return res;
}

alt_u32 epcs_read_device_id(alt_u32 base)
{
  const alt_u8 rd_id_cmd[] = {epcs_rdid};
 10067bc:	00bfe7c4 	movi	r2,-97
  alt_u8 id[3];

  alt_avalon_spi_command(
 10067c0:	d8c00015 	stw	r3,0(sp)

  return res;
}

alt_u32 epcs_read_device_id(alt_u32 base)
{
 10067c4:	dfc00415 	stw	ra,16(sp)
  const alt_u8 rd_id_cmd[] = {epcs_rdid};
 10067c8:	d8800305 	stb	r2,12(sp)
  alt_u8 id[3];

  alt_avalon_spi_command(
 10067cc:	da000115 	stw	r8,4(sp)
 10067d0:	d8000215 	stw	zero,8(sp)
 10067d4:	1007a0c0 	call	1007a0c <alt_avalon_spi_command>
 10067d8:	d8800343 	ldbu	r2,13(sp)
 10067dc:	d8c00383 	ldbu	r3,14(sp)
 10067e0:	d90003c3 	ldbu	r4,15(sp)
 10067e4:	1004943a 	slli	r2,r2,16
 10067e8:	1806923a 	slli	r3,r3,8
 10067ec:	1104b03a 	or	r2,r2,r4
    id,
    0
  );

  return (alt_u32) ((id[0] << 16) | (id[1] << 8) | id[2]);
}
 10067f0:	1884b03a 	or	r2,r3,r2
 10067f4:	dfc00417 	ldw	ra,16(sp)
 10067f8:	dec00504 	addi	sp,sp,20
 10067fc:	f800283a 	ret

01006800 <epcs_read_electronic_signature>:
  return length;
}


alt_u8 epcs_read_electronic_signature(alt_u32 base)
{
 1006800:	defffa04 	addi	sp,sp,-24
  const alt_u8 res_cmd[] = {epcs_res, 0, 0, 0};
  alt_u8 res;

  alt_avalon_spi_command(
 1006804:	00c00044 	movi	r3,1
 1006808:	d8800304 	addi	r2,sp,12
 100680c:	10cf883a 	add	r7,r2,r3
}


alt_u8 epcs_read_electronic_signature(alt_u32 base)
{
  const alt_u8 res_cmd[] = {epcs_res, 0, 0, 0};
 1006810:	00bfeac4 	movi	r2,-85
 1006814:	d8800345 	stb	r2,13(sp)
  alt_u8 res;

  alt_avalon_spi_command(
 1006818:	000b883a 	mov	r5,zero
 100681c:	d8800304 	addi	r2,sp,12
 1006820:	01800104 	movi	r6,4
  return length;
}


alt_u8 epcs_read_electronic_signature(alt_u32 base)
{
 1006824:	dfc00515 	stw	ra,20(sp)
  const alt_u8 res_cmd[] = {epcs_res, 0, 0, 0};
 1006828:	d8000385 	stb	zero,14(sp)
 100682c:	d80003c5 	stb	zero,15(sp)
 1006830:	d8000405 	stb	zero,16(sp)
  alt_u8 res;

  alt_avalon_spi_command(
 1006834:	d8c00015 	stw	r3,0(sp)
 1006838:	d8800115 	stw	r2,4(sp)
 100683c:	d8000215 	stw	zero,8(sp)
 1006840:	1007a0c0 	call	1007a0c <alt_avalon_spi_command>
    &res,
    0
  );

  return res;
}
 1006844:	d8800303 	ldbu	r2,12(sp)
 1006848:	dfc00517 	ldw	ra,20(sp)
 100684c:	dec00604 	addi	sp,sp,24
 1006850:	f800283a 	ret

01006854 <epcs_write_enable>:

  return length;
}

void epcs_write_enable(alt_u32 base)
{
 1006854:	defffb04 	addi	sp,sp,-20
  const alt_u8 wren = epcs_wren;
  alt_avalon_spi_command(
 1006858:	000b883a 	mov	r5,zero
 100685c:	01800044 	movi	r6,1
 1006860:	d9c00304 	addi	r7,sp,12
  return length;
}

void epcs_write_enable(alt_u32 base)
{
  const alt_u8 wren = epcs_wren;
 1006864:	00800184 	movi	r2,6

  return length;
}

void epcs_write_enable(alt_u32 base)
{
 1006868:	dfc00415 	stw	ra,16(sp)
  const alt_u8 wren = epcs_wren;
 100686c:	d8800305 	stb	r2,12(sp)
  alt_avalon_spi_command(
 1006870:	d8000015 	stw	zero,0(sp)
 1006874:	d8000115 	stw	zero,4(sp)
 1006878:	d8000215 	stw	zero,8(sp)
 100687c:	1007a0c0 	call	1007a0c <alt_avalon_spi_command>
    &wren,
    0,
    (alt_u8*)0,
    0
  );
}
 1006880:	dfc00417 	ldw	ra,16(sp)
 1006884:	dec00504 	addi	sp,sp,20
 1006888:	f800283a 	ret

0100688c <epcs_exit_4_bytes_mode>:

  return;
}

void epcs_exit_4_bytes_mode(alt_u32 base)
{
 100688c:	defffa04 	addi	sp,sp,-24
  const alt_u8 exit4b_cmd = epcs_dis4b;
 1006890:	00bffa44 	movi	r2,-23

  return;
}

void epcs_exit_4_bytes_mode(alt_u32 base)
{
 1006894:	dfc00515 	stw	ra,20(sp)
 1006898:	dc400415 	stw	r17,16(sp)
  const alt_u8 exit4b_cmd = epcs_dis4b;
 100689c:	d8800305 	stb	r2,12(sp)

  return;
}

void epcs_exit_4_bytes_mode(alt_u32 base)
{
 10068a0:	2023883a 	mov	r17,r4
  const alt_u8 exit4b_cmd = epcs_dis4b;

  /* First, WREN */
  epcs_write_enable(base);
 10068a4:	10068540 	call	1006854 <epcs_write_enable>

  alt_avalon_spi_command(
 10068a8:	000b883a 	mov	r5,zero
 10068ac:	8809883a 	mov	r4,r17
 10068b0:	01800044 	movi	r6,1
 10068b4:	d9c00304 	addi	r7,sp,12
 10068b8:	d8000015 	stw	zero,0(sp)
 10068bc:	d8000115 	stw	zero,4(sp)
 10068c0:	d8000215 	stw	zero,8(sp)
 10068c4:	1007a0c0 	call	1007a0c <alt_avalon_spi_command>
    (alt_u8*)0,
    0
  );

  return;
}
 10068c8:	dfc00517 	ldw	ra,20(sp)
 10068cc:	dc400417 	ldw	r17,16(sp)
 10068d0:	dec00604 	addi	sp,sp,24
 10068d4:	f800283a 	ret

010068d8 <epcs_enter_4_bytes_mode>:

  return (alt_u32) ((id[0] << 16) | (id[1] << 8) | id[2]);
}

void epcs_enter_4_bytes_mode(alt_u32 base)
{
 10068d8:	defffa04 	addi	sp,sp,-24
  const alt_u8 en4b_cmd = epcs_en4b;
 10068dc:	00bfedc4 	movi	r2,-73

  return (alt_u32) ((id[0] << 16) | (id[1] << 8) | id[2]);
}

void epcs_enter_4_bytes_mode(alt_u32 base)
{
 10068e0:	dfc00515 	stw	ra,20(sp)
 10068e4:	dc400415 	stw	r17,16(sp)
  const alt_u8 en4b_cmd = epcs_en4b;
 10068e8:	d8800305 	stb	r2,12(sp)

  return (alt_u32) ((id[0] << 16) | (id[1] << 8) | id[2]);
}

void epcs_enter_4_bytes_mode(alt_u32 base)
{
 10068ec:	2023883a 	mov	r17,r4
  const alt_u8 en4b_cmd = epcs_en4b;

  /* First, WREN */
  epcs_write_enable(base);
 10068f0:	10068540 	call	1006854 <epcs_write_enable>

  alt_avalon_spi_command(
 10068f4:	000b883a 	mov	r5,zero
 10068f8:	8809883a 	mov	r4,r17
 10068fc:	01800044 	movi	r6,1
 1006900:	d9c00304 	addi	r7,sp,12
 1006904:	d8000015 	stw	zero,0(sp)
 1006908:	d8000115 	stw	zero,4(sp)
 100690c:	d8000215 	stw	zero,8(sp)
 1006910:	1007a0c0 	call	1007a0c <alt_avalon_spi_command>
    (alt_u8*)0,
    0
  );

  return;
}
 1006914:	dfc00517 	ldw	ra,20(sp)
 1006918:	dc400417 	ldw	r17,16(sp)
 100691c:	dec00604 	addi	sp,sp,24
 1006920:	f800283a 	ret

01006924 <epcs_read_status_register>:
#include "alt_types.h"
#include "epcs_commands.h"
#include "altera_avalon_spi.h"

alt_u8 epcs_read_status_register(alt_u32 base)
{
 1006924:	defffb04 	addi	sp,sp,-20
  const alt_u8 rdsr = epcs_rdsr;
  alt_u8 status;
  alt_avalon_spi_command(
 1006928:	00c00044 	movi	r3,1
 100692c:	d8800304 	addi	r2,sp,12
 1006930:	10cf883a 	add	r7,r2,r3
#include "epcs_commands.h"
#include "altera_avalon_spi.h"

alt_u8 epcs_read_status_register(alt_u32 base)
{
  const alt_u8 rdsr = epcs_rdsr;
 1006934:	00800144 	movi	r2,5
 1006938:	d8800345 	stb	r2,13(sp)
  alt_u8 status;
  alt_avalon_spi_command(
 100693c:	180d883a 	mov	r6,r3
 1006940:	d8800304 	addi	r2,sp,12
 1006944:	000b883a 	mov	r5,zero
#include "alt_types.h"
#include "epcs_commands.h"
#include "altera_avalon_spi.h"

alt_u8 epcs_read_status_register(alt_u32 base)
{
 1006948:	dfc00415 	stw	ra,16(sp)
  const alt_u8 rdsr = epcs_rdsr;
  alt_u8 status;
  alt_avalon_spi_command(
 100694c:	d8c00015 	stw	r3,0(sp)
 1006950:	d8800115 	stw	r2,4(sp)
 1006954:	d8000215 	stw	zero,8(sp)
 1006958:	1007a0c0 	call	1007a0c <alt_avalon_spi_command>
    &status,
    0
  );

  return status;
}
 100695c:	d8800303 	ldbu	r2,12(sp)
 1006960:	dfc00417 	ldw	ra,16(sp)
 1006964:	dec00504 	addi	sp,sp,20
 1006968:	f800283a 	ret

0100696c <epcs_sector_erase>:
  {
  }
}

void epcs_sector_erase(alt_u32 base, alt_u32 offset, alt_u32 four_bytes_mode)
{
 100696c:	defff704 	addi	sp,sp,-36
 1006970:	dc800715 	stw	r18,28(sp)
  alt_u8 se[5];
  alt_u8 len;
  
  if(four_bytes_mode)
 1006974:	3025003a 	cmpeq	r18,r6,zero
  {
  }
}

void epcs_sector_erase(alt_u32 base, alt_u32 offset, alt_u32 four_bytes_mode)
{
 1006978:	dc000515 	stw	r16,20(sp)
 100697c:	dfc00815 	stw	ra,32(sp)
 1006980:	dc400615 	stw	r17,24(sp)
 1006984:	280f883a 	mov	r7,r5
 1006988:	2021883a 	mov	r16,r4
  alt_u8 se[5];
  alt_u8 len;
  
  if(four_bytes_mode)
 100698c:	90001f26 	beq	r18,zero,1006a0c <epcs_sector_erase+0xa0>
      epcs_enter_4_bytes_mode(base);
  }
  else
  {
      se[0] = epcs_se;
      se[1] = (offset >> 16) & 0xFF;
 1006990:	2804d43a 	srli	r2,r5,16
      se[2] = (offset >> 8) & 0xFF;
 1006994:	2808d23a 	srli	r4,r5,8
      len   = 5;
      epcs_enter_4_bytes_mode(base);
  }
  else
  {
      se[0] = epcs_se;
 1006998:	00fff604 	movi	r3,-40
 100699c:	d8c00305 	stb	r3,12(sp)
      se[1] = (offset >> 16) & 0xFF;
 10069a0:	d8800345 	stb	r2,13(sp)
      se[2] = (offset >> 8) & 0xFF;
 10069a4:	d9000385 	stb	r4,14(sp)
      se[3] = offset & 0xFF;
 10069a8:	d94003c5 	stb	r5,15(sp)
 10069ac:	04400104 	movi	r17,4
      len   = 4;
  }

  /* Execute a WREN instruction */
  epcs_write_enable(base);
 10069b0:	8009883a 	mov	r4,r16
 10069b4:	10068540 	call	1006854 <epcs_write_enable>

  alt_avalon_spi_command(
 10069b8:	880d883a 	mov	r6,r17
 10069bc:	8009883a 	mov	r4,r16
 10069c0:	000b883a 	mov	r5,zero
 10069c4:	d9c00304 	addi	r7,sp,12
 10069c8:	d8000015 	stw	zero,0(sp)
 10069cc:	d8000115 	stw	zero,4(sp)
 10069d0:	d8000215 	stw	zero,8(sp)
 10069d4:	1007a0c0 	call	1007a0c <alt_avalon_spi_command>
  return status;
}

static ALT_INLINE int epcs_test_wip(alt_u32 base)
{
  return epcs_read_status_register(base) & 1;
 10069d8:	8009883a 	mov	r4,r16
 10069dc:	10069240 	call	1006924 <epcs_read_status_register>
}

static ALT_INLINE void epcs_await_wip_released(alt_u32 base)
{
  /* Wait until the WIP bit goes low. */
  while (epcs_test_wip(base))
 10069e0:	1080004c 	andi	r2,r2,1
 10069e4:	103ffc1e 	bne	r2,zero,10069d8 <epcs_sector_erase+0x6c>
    0
  );

  epcs_await_wip_released(base);

  if(four_bytes_mode)
 10069e8:	9000021e 	bne	r18,zero,10069f4 <epcs_sector_erase+0x88>
  {
    epcs_exit_4_bytes_mode(base);
 10069ec:	8009883a 	mov	r4,r16
 10069f0:	100688c0 	call	100688c <epcs_exit_4_bytes_mode>
  }
}
 10069f4:	dfc00817 	ldw	ra,32(sp)
 10069f8:	dc800717 	ldw	r18,28(sp)
 10069fc:	dc400617 	ldw	r17,24(sp)
 1006a00:	dc000517 	ldw	r16,20(sp)
 1006a04:	dec00904 	addi	sp,sp,36
 1006a08:	f800283a 	ret
  alt_u8 len;
  
  if(four_bytes_mode)
  {
      se[0] = epcs_se;  /* Note: Use epcs_se for Micron EPCS256 */
      se[1] = (offset >> 24) & 0xFF;
 1006a0c:	2806d63a 	srli	r3,r5,24
      se[2] = (offset >> 16) & 0xFF;
      se[3] = (offset >> 8) & 0xFF;
 1006a10:	380cd23a 	srli	r6,r7,8
  
  if(four_bytes_mode)
  {
      se[0] = epcs_se;  /* Note: Use epcs_se for Micron EPCS256 */
      se[1] = (offset >> 24) & 0xFF;
      se[2] = (offset >> 16) & 0xFF;
 1006a14:	280ad43a 	srli	r5,r5,16
  alt_u8 se[5];
  alt_u8 len;
  
  if(four_bytes_mode)
  {
      se[0] = epcs_se;  /* Note: Use epcs_se for Micron EPCS256 */
 1006a18:	00bff604 	movi	r2,-40
 1006a1c:	d8800305 	stb	r2,12(sp)
      se[1] = (offset >> 24) & 0xFF;
 1006a20:	d8c00345 	stb	r3,13(sp)
      se[2] = (offset >> 16) & 0xFF;
 1006a24:	d9400385 	stb	r5,14(sp)
      se[3] = (offset >> 8) & 0xFF;
 1006a28:	d98003c5 	stb	r6,15(sp)
      se[4] = offset & 0xFF;
 1006a2c:	d9c00405 	stb	r7,16(sp)
      len   = 5;
      epcs_enter_4_bytes_mode(base);
 1006a30:	04400144 	movi	r17,5
 1006a34:	10068d80 	call	10068d8 <epcs_enter_4_bytes_mode>
 1006a38:	003fdd06 	br	10069b0 <epcs_sector_erase+0x44>

01006a3c <epcs_write_buffer>:
}

/* Write a partial or full page, assuming that page has been erased */
alt_32 epcs_write_buffer(alt_u32 base, int offset, const alt_u8* src_addr, 
                         int length, alt_u32 four_bytes_mode)
{
 1006a3c:	defff504 	addi	sp,sp,-44
  alt_u8 pp[5];
  alt_u32 cmd_len;
  
  pp[0] = epcs_pp;
  
  if(four_bytes_mode)
 1006a40:	d8c00b17 	ldw	r3,44(sp)
}

/* Write a partial or full page, assuming that page has been erased */
alt_32 epcs_write_buffer(alt_u32 base, int offset, const alt_u8* src_addr, 
                         int length, alt_u32 four_bytes_mode)
{
 1006a44:	dcc00815 	stw	r19,32(sp)
  alt_u8 pp[5];
  alt_u32 cmd_len;
  
  pp[0] = epcs_pp;
 1006a48:	00800084 	movi	r2,2
  
  if(four_bytes_mode)
 1006a4c:	1827003a 	cmpeq	r19,r3,zero
}

/* Write a partial or full page, assuming that page has been erased */
alt_32 epcs_write_buffer(alt_u32 base, int offset, const alt_u8* src_addr, 
                         int length, alt_u32 four_bytes_mode)
{
 1006a50:	dd000915 	stw	r20,36(sp)
 1006a54:	dc800715 	stw	r18,28(sp)
 1006a58:	dc000515 	stw	r16,20(sp)
 1006a5c:	dfc00a15 	stw	ra,40(sp)
 1006a60:	dc400615 	stw	r17,24(sp)
  alt_u8 pp[5];
  alt_u32 cmd_len;
  
  pp[0] = epcs_pp;
 1006a64:	d8800305 	stb	r2,12(sp)
}

/* Write a partial or full page, assuming that page has been erased */
alt_32 epcs_write_buffer(alt_u32 base, int offset, const alt_u8* src_addr, 
                         int length, alt_u32 four_bytes_mode)
{
 1006a68:	2811883a 	mov	r8,r5
 1006a6c:	3029883a 	mov	r20,r6
 1006a70:	3825883a 	mov	r18,r7
 1006a74:	2021883a 	mov	r16,r4
  alt_u8 pp[5];
  alt_u32 cmd_len;
  
  pp[0] = epcs_pp;
  
  if(four_bytes_mode)
 1006a78:	98002926 	beq	r19,zero,1006b20 <epcs_write_buffer+0xe4>
      cmd_len = 5;
      epcs_enter_4_bytes_mode(base);
  }
  else
  {
      pp[1] = (offset >> 16) & 0xFF;
 1006a7c:	2805d43a 	srai	r2,r5,16
      pp[2] = (offset >> 8) & 0xFF;
 1006a80:	2807d23a 	srai	r3,r5,8
      pp[3] = offset & 0xFF;
 1006a84:	d94003c5 	stb	r5,15(sp)
      cmd_len = 5;
      epcs_enter_4_bytes_mode(base);
  }
  else
  {
      pp[1] = (offset >> 16) & 0xFF;
 1006a88:	d8800345 	stb	r2,13(sp)
      pp[2] = (offset >> 8) & 0xFF;
 1006a8c:	d8c00385 	stb	r3,14(sp)
      pp[3] = offset & 0xFF;
 1006a90:	04400104 	movi	r17,4
      cmd_len = 4;
  }

  /* First, WREN */
  epcs_write_enable(base);
 1006a94:	8009883a 	mov	r4,r16
 1006a98:	10068540 	call	1006854 <epcs_write_enable>

  /* Send the PP command */
  alt_avalon_spi_command(
 1006a9c:	880d883a 	mov	r6,r17
 1006aa0:	8009883a 	mov	r4,r16
 1006aa4:	000b883a 	mov	r5,zero
 1006aa8:	d9c00304 	addi	r7,sp,12
 1006aac:	00800044 	movi	r2,1
 1006ab0:	d8800215 	stw	r2,8(sp)
 1006ab4:	d8000015 	stw	zero,0(sp)
 1006ab8:	d8000115 	stw	zero,4(sp)
 1006abc:	1007a0c0 	call	1007a0c <alt_avalon_spi_command>
    (alt_u8*)0,
    ALT_AVALON_SPI_COMMAND_MERGE
  );

  /* Send the user's buffer */
  alt_avalon_spi_command(
 1006ac0:	a00f883a 	mov	r7,r20
 1006ac4:	8009883a 	mov	r4,r16
 1006ac8:	000b883a 	mov	r5,zero
 1006acc:	900d883a 	mov	r6,r18
 1006ad0:	d8000015 	stw	zero,0(sp)
 1006ad4:	d8000115 	stw	zero,4(sp)
 1006ad8:	d8000215 	stw	zero,8(sp)
 1006adc:	1007a0c0 	call	1007a0c <alt_avalon_spi_command>
  return status;
}

static ALT_INLINE int epcs_test_wip(alt_u32 base)
{
  return epcs_read_status_register(base) & 1;
 1006ae0:	8009883a 	mov	r4,r16
 1006ae4:	10069240 	call	1006924 <epcs_read_status_register>
}

static ALT_INLINE void epcs_await_wip_released(alt_u32 base)
{
  /* Wait until the WIP bit goes low. */
  while (epcs_test_wip(base))
 1006ae8:	1080004c 	andi	r2,r2,1
 1006aec:	103ffc1e 	bne	r2,zero,1006ae0 <epcs_write_buffer+0xa4>
   * execution.  Unfortunately, I have to guard all reads/writes
   * with wip-tests, to make that happen.
   */
  epcs_await_wip_released(base);

  if(four_bytes_mode)
 1006af0:	9800021e 	bne	r19,zero,1006afc <epcs_write_buffer+0xc0>
  {
    epcs_exit_4_bytes_mode(base);
 1006af4:	8009883a 	mov	r4,r16
 1006af8:	100688c0 	call	100688c <epcs_exit_4_bytes_mode>
  }

  return length;
}
 1006afc:	9005883a 	mov	r2,r18
 1006b00:	dfc00a17 	ldw	ra,40(sp)
 1006b04:	dd000917 	ldw	r20,36(sp)
 1006b08:	dcc00817 	ldw	r19,32(sp)
 1006b0c:	dc800717 	ldw	r18,28(sp)
 1006b10:	dc400617 	ldw	r17,24(sp)
 1006b14:	dc000517 	ldw	r16,20(sp)
 1006b18:	dec00b04 	addi	sp,sp,44
 1006b1c:	f800283a 	ret
  
  pp[0] = epcs_pp;
  
  if(four_bytes_mode)
  {
      pp[1] = (offset >> 24) & 0xFF;
 1006b20:	2805d63a 	srai	r2,r5,24
      pp[2] = (offset >> 16) & 0xFF;
 1006b24:	2807d43a 	srai	r3,r5,16
      pp[3] = (offset >> 8) & 0xFF;
 1006b28:	280bd23a 	srai	r5,r5,8
  
  pp[0] = epcs_pp;
  
  if(four_bytes_mode)
  {
      pp[1] = (offset >> 24) & 0xFF;
 1006b2c:	d8800345 	stb	r2,13(sp)
      pp[2] = (offset >> 16) & 0xFF;
 1006b30:	d8c00385 	stb	r3,14(sp)
      pp[3] = (offset >> 8) & 0xFF;
 1006b34:	d94003c5 	stb	r5,15(sp)
      pp[4] = offset & 0xFF;
 1006b38:	da000405 	stb	r8,16(sp)
      cmd_len = 5;
      epcs_enter_4_bytes_mode(base);
 1006b3c:	04400144 	movi	r17,5
 1006b40:	10068d80 	call	10068d8 <epcs_enter_4_bytes_mode>
 1006b44:	003fd306 	br	1006a94 <epcs_write_buffer+0x58>

01006b48 <epcs_read_buffer>:
  }
}

alt_32 epcs_read_buffer(alt_u32 base, int offset, alt_u8 *dest_addr, int length,
                        alt_u32 four_bytes_mode)
{
 1006b48:	defff504 	addi	sp,sp,-44
  alt_u8 read_command[5];
  alt_u32 cmd_len;

  read_command[0] = epcs_read;
  
  if(four_bytes_mode)
 1006b4c:	d8c00b17 	ldw	r3,44(sp)
  }
}

alt_32 epcs_read_buffer(alt_u32 base, int offset, alt_u8 *dest_addr, int length,
                        alt_u32 four_bytes_mode)
{
 1006b50:	dcc00815 	stw	r19,32(sp)
  alt_u8 read_command[5];
  alt_u32 cmd_len;

  read_command[0] = epcs_read;
 1006b54:	008000c4 	movi	r2,3
  
  if(four_bytes_mode)
 1006b58:	1827003a 	cmpeq	r19,r3,zero
  }
}

alt_32 epcs_read_buffer(alt_u32 base, int offset, alt_u8 *dest_addr, int length,
                        alt_u32 four_bytes_mode)
{
 1006b5c:	dd000915 	stw	r20,36(sp)
 1006b60:	dc800715 	stw	r18,28(sp)
 1006b64:	dc000515 	stw	r16,20(sp)
 1006b68:	dfc00a15 	stw	ra,40(sp)
 1006b6c:	dc400615 	stw	r17,24(sp)
  alt_u8 read_command[5];
  alt_u32 cmd_len;

  read_command[0] = epcs_read;
 1006b70:	d8800305 	stb	r2,12(sp)
  }
}

alt_32 epcs_read_buffer(alt_u32 base, int offset, alt_u8 *dest_addr, int length,
                        alt_u32 four_bytes_mode)
{
 1006b74:	2811883a 	mov	r8,r5
 1006b78:	3029883a 	mov	r20,r6
 1006b7c:	3825883a 	mov	r18,r7
 1006b80:	2021883a 	mov	r16,r4
  alt_u8 read_command[5];
  alt_u32 cmd_len;

  read_command[0] = epcs_read;
  
  if(four_bytes_mode)
 1006b84:	98001e26 	beq	r19,zero,1006c00 <epcs_read_buffer+0xb8>
        cmd_len = 5;
        epcs_enter_4_bytes_mode(base);
  }
  else
  {
        read_command[1] = (offset >> 16) & 0xFF;
 1006b88:	2805d43a 	srai	r2,r5,16
        read_command[2] = (offset >> 8) & 0xFF;
 1006b8c:	2807d23a 	srai	r3,r5,8
        read_command[3] = offset & 0xFF;
 1006b90:	d94003c5 	stb	r5,15(sp)
        cmd_len = 5;
        epcs_enter_4_bytes_mode(base);
  }
  else
  {
        read_command[1] = (offset >> 16) & 0xFF;
 1006b94:	d8800345 	stb	r2,13(sp)
        read_command[2] = (offset >> 8) & 0xFF;
 1006b98:	d8c00385 	stb	r3,14(sp)
        read_command[3] = offset & 0xFF;
 1006b9c:	04400104 	movi	r17,4
  return status;
}

static ALT_INLINE int epcs_test_wip(alt_u32 base)
{
  return epcs_read_status_register(base) & 1;
 1006ba0:	8009883a 	mov	r4,r16
 1006ba4:	10069240 	call	1006924 <epcs_read_status_register>
}

static ALT_INLINE void epcs_await_wip_released(alt_u32 base)
{
  /* Wait until the WIP bit goes low. */
  while (epcs_test_wip(base))
 1006ba8:	1080004c 	andi	r2,r2,1
 1006bac:	103ffc1e 	bne	r2,zero,1006ba0 <epcs_read_buffer+0x58>
        cmd_len = 4;
  }

  epcs_await_wip_released(base);

  alt_avalon_spi_command(
 1006bb0:	880d883a 	mov	r6,r17
 1006bb4:	8009883a 	mov	r4,r16
 1006bb8:	000b883a 	mov	r5,zero
 1006bbc:	d9c00304 	addi	r7,sp,12
 1006bc0:	dd000115 	stw	r20,4(sp)
 1006bc4:	dc800015 	stw	r18,0(sp)
 1006bc8:	d8000215 	stw	zero,8(sp)
 1006bcc:	1007a0c0 	call	1007a0c <alt_avalon_spi_command>
    length,
    (alt_u8*)dest_addr,
    0
  );

  if(four_bytes_mode)
 1006bd0:	9800021e 	bne	r19,zero,1006bdc <epcs_read_buffer+0x94>
  {
    epcs_exit_4_bytes_mode(base);
 1006bd4:	8009883a 	mov	r4,r16
 1006bd8:	100688c0 	call	100688c <epcs_exit_4_bytes_mode>
  }

  return length;
}
 1006bdc:	9005883a 	mov	r2,r18
 1006be0:	dfc00a17 	ldw	ra,40(sp)
 1006be4:	dd000917 	ldw	r20,36(sp)
 1006be8:	dcc00817 	ldw	r19,32(sp)
 1006bec:	dc800717 	ldw	r18,28(sp)
 1006bf0:	dc400617 	ldw	r17,24(sp)
 1006bf4:	dc000517 	ldw	r16,20(sp)
 1006bf8:	dec00b04 	addi	sp,sp,44
 1006bfc:	f800283a 	ret

  read_command[0] = epcs_read;
  
  if(four_bytes_mode)
  {
        read_command[1] = (offset >> 24) & 0xFF;
 1006c00:	2805d63a 	srai	r2,r5,24
        read_command[2] = (offset >> 16) & 0xFF;
 1006c04:	2807d43a 	srai	r3,r5,16
        read_command[3] = (offset >> 8) & 0xFF;
 1006c08:	280bd23a 	srai	r5,r5,8

  read_command[0] = epcs_read;
  
  if(four_bytes_mode)
  {
        read_command[1] = (offset >> 24) & 0xFF;
 1006c0c:	d8800345 	stb	r2,13(sp)
        read_command[2] = (offset >> 16) & 0xFF;
 1006c10:	d8c00385 	stb	r3,14(sp)
        read_command[3] = (offset >> 8) & 0xFF;
 1006c14:	d94003c5 	stb	r5,15(sp)
        read_command[4] = offset & 0xFF;
 1006c18:	da000405 	stb	r8,16(sp)
        cmd_len = 5;
        epcs_enter_4_bytes_mode(base);
 1006c1c:	04400144 	movi	r17,5
 1006c20:	10068d80 	call	10068d8 <epcs_enter_4_bytes_mode>
 1006c24:	003fde06 	br	1006ba0 <epcs_read_buffer+0x58>

01006c28 <epcs_write_status_register>:
    0
  );
}

void epcs_write_status_register(alt_u32 base, alt_u8 value)
{
 1006c28:	defffa04 	addi	sp,sp,-24
  alt_u8 wrsr[2];
  
  wrsr[0] = epcs_wrsr;
  wrsr[1] = value;
 1006c2c:	d9400345 	stb	r5,13(sp)

void epcs_write_status_register(alt_u32 base, alt_u8 value)
{
  alt_u8 wrsr[2];
  
  wrsr[0] = epcs_wrsr;
 1006c30:	00800044 	movi	r2,1
  wrsr[1] = value;

  alt_avalon_spi_command(
 1006c34:	000b883a 	mov	r5,zero
 1006c38:	01800084 	movi	r6,2
 1006c3c:	d9c00304 	addi	r7,sp,12
    0
  );
}

void epcs_write_status_register(alt_u32 base, alt_u8 value)
{
 1006c40:	dc000415 	stw	r16,16(sp)
 1006c44:	dfc00515 	stw	ra,20(sp)
  alt_u8 wrsr[2];
  
  wrsr[0] = epcs_wrsr;
 1006c48:	d8800305 	stb	r2,12(sp)
  wrsr[1] = value;

  alt_avalon_spi_command(
 1006c4c:	d8000015 	stw	zero,0(sp)
 1006c50:	d8000115 	stw	zero,4(sp)
 1006c54:	d8000215 	stw	zero,8(sp)
    0
  );
}

void epcs_write_status_register(alt_u32 base, alt_u8 value)
{
 1006c58:	2021883a 	mov	r16,r4
  alt_u8 wrsr[2];
  
  wrsr[0] = epcs_wrsr;
  wrsr[1] = value;

  alt_avalon_spi_command(
 1006c5c:	1007a0c0 	call	1007a0c <alt_avalon_spi_command>
  return status;
}

static ALT_INLINE int epcs_test_wip(alt_u32 base)
{
  return epcs_read_status_register(base) & 1;
 1006c60:	8009883a 	mov	r4,r16
 1006c64:	10069240 	call	1006924 <epcs_read_status_register>
}

static ALT_INLINE void epcs_await_wip_released(alt_u32 base)
{
  /* Wait until the WIP bit goes low. */
  while (epcs_test_wip(base))
 1006c68:	1080004c 	andi	r2,r2,1
 1006c6c:	103ffc1e 	bne	r2,zero,1006c60 <epcs_write_status_register+0x38>
    (alt_u8*)0,
    0
  );

  epcs_await_wip_released(base);
}
 1006c70:	dfc00517 	ldw	ra,20(sp)
 1006c74:	dc000417 	ldw	r16,16(sp)
 1006c78:	dec00604 	addi	sp,sp,24
 1006c7c:	f800283a 	ret

01006c80 <alt_alarm_start>:
                     void* context)
{
  alt_irq_context irq_context;
  alt_u32 current_nticks = 0;
  
  if (alt_ticks_per_second ())
 1006c80:	00804074 	movhi	r2,257
 1006c84:	10a8d504 	addi	r2,r2,-23724
 1006c88:	10c00017 	ldw	r3,0(r2)
 */ 

int alt_alarm_start (alt_alarm* alarm, alt_u32 nticks,
                     alt_u32 (*callback) (void* context),
                     void* context)
{
 1006c8c:	2011883a 	mov	r8,r4
  alt_irq_context irq_context;
  alt_u32 current_nticks = 0;
  
  if (alt_ticks_per_second ())
 1006c90:	00bfde84 	movi	r2,-134
 1006c94:	1800011e 	bne	r3,zero,1006c9c <alt_alarm_start+0x1c>
  }
  else
  {
    return -ENOTSUP;
  }
}
 1006c98:	f800283a 	ret
  alt_irq_context irq_context;
  alt_u32 current_nticks = 0;
  
  if (alt_ticks_per_second ())
  {
    if (alarm)
 1006c9c:	00bffa84 	movi	r2,-22
 1006ca0:	203ffd26 	beq	r4,zero,1006c98 <alt_alarm_start+0x18>
    {
      alarm->callback = callback;
 1006ca4:	21800315 	stw	r6,12(r4)
      alarm->context  = context;
 1006ca8:	21c00515 	stw	r7,20(r4)
static ALT_INLINE alt_irq_context ALT_ALWAYS_INLINE 
       alt_irq_disable_all (void)
{
  alt_irq_context context;

  NIOS2_READ_STATUS (context);
 1006cac:	000d303a 	rdctl	r6,status

  NIOS2_WRITE_STATUS (context & ~NIOS2_STATUS_PIE_MSK);
 1006cb0:	00bfff84 	movi	r2,-2
 1006cb4:	3084703a 	and	r2,r6,r2
 1006cb8:	1001703a 	wrctl	status,r2
 * alt_nticks() returns the elapsed number of system clock ticks since reset.
 */

static ALT_INLINE alt_u32 ALT_ALWAYS_INLINE alt_nticks (void)
{
  return _alt_nticks;
 1006cbc:	00c04074 	movhi	r3,257
 1006cc0:	18e8d604 	addi	r3,r3,-23720
 1006cc4:	19000017 	ldw	r4,0(r3)
 
      irq_context = alt_irq_disable_all ();
      
      current_nticks = alt_nticks();
      
      alarm->time = nticks + current_nticks + 1; 
 1006cc8:	20800044 	addi	r2,r4,1
 1006ccc:	2885883a 	add	r2,r5,r2
 1006cd0:	40800215 	stw	r2,8(r8)
      /* 
       * If the desired alarm time causes a roll-over, set the rollover
       * flag. This will prevent the subsequent tick event from causing
       * an alarm too early.
       */
      if(alarm->time < current_nticks)
 1006cd4:	11000d2e 	bgeu	r2,r4,1006d0c <alt_alarm_start+0x8c>
      {
        alarm->rollover = 1;
 1006cd8:	00800044 	movi	r2,1
 1006cdc:	40800405 	stb	r2,16(r8)
 */

static ALT_INLINE void ALT_ALWAYS_INLINE alt_llist_insert(alt_llist* list, 
                alt_llist* entry)
{
  entry->previous = list;
 1006ce0:	00804074 	movhi	r2,257
 1006ce4:	10a8c504 	addi	r2,r2,-23788
  entry->next     = list->next;
 1006ce8:	10c00017 	ldw	r3,0(r2)
 */

static ALT_INLINE void ALT_ALWAYS_INLINE alt_llist_insert(alt_llist* list, 
                alt_llist* entry)
{
  entry->previous = list;
 1006cec:	40800115 	stw	r2,4(r8)
  entry->next     = list->next;
 1006cf0:	40c00015 	stw	r3,0(r8)

  list->next->previous = entry;
 1006cf4:	11000017 	ldw	r4,0(r2)
  list->next           = entry;
 1006cf8:	12000015 	stw	r8,0(r2)
                alt_llist* entry)
{
  entry->previous = list;
  entry->next     = list->next;

  list->next->previous = entry;
 1006cfc:	22000115 	stw	r8,4(r4)
  status &= ~NIOS2_STATUS_PIE_MSK;
  status |= (context & NIOS2_STATUS_PIE_MSK);
  
  NIOS2_WRITE_STATUS (status);
#else
  NIOS2_WRITE_STATUS (context);
 1006d00:	3001703a 	wrctl	status,r6
 1006d04:	0005883a 	mov	r2,zero
  }
  else
  {
    return -ENOTSUP;
  }
}
 1006d08:	f800283a 	ret
      {
        alarm->rollover = 1;
      }
      else
      {
        alarm->rollover = 0;
 1006d0c:	40000405 	stb	zero,16(r8)
 1006d10:	003ff306 	br	1006ce0 <alt_alarm_start+0x60>

01006d14 <alt_busy_sleep>:
#include "alt_types.h"

#include "priv/alt_busy_sleep.h"

unsigned int alt_busy_sleep (unsigned int us)
{
 1006d14:	defffe04 	addi	sp,sp,-8
  {
    cycles_per_loop = 3;
  }
  

  big_loops = us / (INT_MAX/
 1006d18:	014666b4 	movhi	r5,6554
 1006d1c:	29666644 	addi	r5,r5,-26215
#include "alt_types.h"

#include "priv/alt_busy_sleep.h"

unsigned int alt_busy_sleep (unsigned int us)
{
 1006d20:	dc000015 	stw	r16,0(sp)
 1006d24:	dfc00115 	stw	ra,4(sp)
 1006d28:	2021883a 	mov	r16,r4
  {
    cycles_per_loop = 3;
  }
  

  big_loops = us / (INT_MAX/
 1006d2c:	10081b80 	call	10081b8 <__udivsi3>
  (ALT_CPU_FREQ/(cycles_per_loop * 1000000)));

  if (big_loops)
 1006d30:	10001726 	beq	r2,zero,1006d90 <alt_busy_sleep+0x7c>
  {
    for(i=0;i<big_loops;i++)
 1006d34:	00800c0e 	bge	zero,r2,1006d68 <alt_busy_sleep+0x54>
 1006d38:	0007883a 	mov	r3,zero
 1006d3c:	01200034 	movhi	r4,32768
 1006d40:	213fffc4 	addi	r4,r4,-1
      /*
      * Do NOT Try to single step the asm statement below 
      * (single step will never return)
      * Step out of this function or set a breakpoint after the asm statements
      */
      __asm__ volatile (
 1006d44:	213fffc4 	addi	r4,r4,-1
 1006d48:	203ffe1e 	bne	r4,zero,1006d44 <alt_busy_sleep+0x30>
  big_loops = us / (INT_MAX/
  (ALT_CPU_FREQ/(cycles_per_loop * 1000000)));

  if (big_loops)
  {
    for(i=0;i<big_loops;i++)
 1006d4c:	18c00044 	addi	r3,r3,1
 1006d50:	10fffc1e 	bne	r2,r3,1006d44 <alt_busy_sleep+0x30>
 1006d54:	1009883a 	mov	r4,r2
 1006d58:	017999b4 	movhi	r5,58982
 1006d5c:	295999c4 	addi	r5,r5,26215
 1006d60:	1000cc40 	call	1000cc4 <__mulsi3>
 1006d64:	80a1883a 	add	r16,r16,r2
    /*
    * Do NOT Try to single step the asm statement below 
    * (single step will never return)
    * Step out of this function or set a breakpoint after the asm statements
    */
    __asm__ volatile (
 1006d68:	8009883a 	mov	r4,r16
 1006d6c:	01400144 	movi	r5,5
 1006d70:	1000cc40 	call	1000cc4 <__mulsi3>
 1006d74:	10bfffc4 	addi	r2,r2,-1
 1006d78:	103ffe1e 	bne	r2,zero,1006d74 <alt_busy_sleep+0x60>
      "\n\t.popsection"
      :: "r" (us*(ALT_CPU_FREQ/(cycles_per_loop * 1000000))));
  }
#endif /* #ifndef ALT_SIM_OPTIMIZE */
  return 0;
}
 1006d7c:	0005883a 	mov	r2,zero
 1006d80:	dfc00117 	ldw	ra,4(sp)
 1006d84:	dc000017 	ldw	r16,0(sp)
 1006d88:	dec00204 	addi	sp,sp,8
 1006d8c:	f800283a 	ret
    /*
    * Do NOT Try to single step the asm statement below 
    * (single step will never return)
    * Step out of this function or set a breakpoint after the asm statements
    */
    __asm__ volatile (
 1006d90:	8009883a 	mov	r4,r16
 1006d94:	01400144 	movi	r5,5
 1006d98:	1000cc40 	call	1000cc4 <__mulsi3>
 1006d9c:	10bfffc4 	addi	r2,r2,-1
 1006da0:	00bffe16 	blt	zero,r2,1006d9c <alt_busy_sleep+0x88>
      "\n\t.popsection"
      :: "r" (us*(ALT_CPU_FREQ/(cycles_per_loop * 1000000))));
  }
#endif /* #ifndef ALT_SIM_OPTIMIZE */
  return 0;
}
 1006da4:	0005883a 	mov	r2,zero
 1006da8:	dfc00117 	ldw	ra,4(sp)
 1006dac:	dc000017 	ldw	r16,0(sp)
 1006db0:	dec00204 	addi	sp,sp,8
 1006db4:	f800283a 	ret

01006db8 <alt_dcache_flush>:
  {
    ALT_FLUSH_DATA(i);
  }

#endif /* NIOS2_DCACHE_SIZE > 0 */
}
 1006db8:	f800283a 	ret

01006dbc <alt_dev_llist_insert>:
/*
 *
 */

int alt_dev_llist_insert (alt_dev_llist* dev, alt_llist* list)
{
 1006dbc:	deffff04 	addi	sp,sp,-4
 1006dc0:	dfc00015 	stw	ra,0(sp)
  /*
   * check that the device exists, and that it has a valid name.
   */

  if (!dev || !dev->name)
 1006dc4:	20000d26 	beq	r4,zero,1006dfc <alt_dev_llist_insert+0x40>
 1006dc8:	20800217 	ldw	r2,8(r4)
  list->next           = entry;
 1006dcc:	000d883a 	mov	r6,zero
 1006dd0:	10000a26 	beq	r2,zero,1006dfc <alt_dev_llist_insert+0x40>

static ALT_INLINE void ALT_ALWAYS_INLINE alt_llist_insert(alt_llist* list, 
                alt_llist* entry)
{
  entry->previous = list;
  entry->next     = list->next;
 1006dd4:	28c00017 	ldw	r3,0(r5)
 */

static ALT_INLINE void ALT_ALWAYS_INLINE alt_llist_insert(alt_llist* list, 
                alt_llist* entry)
{
  entry->previous = list;
 1006dd8:	21400115 	stw	r5,4(r4)
  entry->next     = list->next;
 1006ddc:	20c00015 	stw	r3,0(r4)

  list->next->previous = entry;
 1006de0:	28800017 	ldw	r2,0(r5)
  list->next           = entry;
 1006de4:	29000015 	stw	r4,0(r5)
                alt_llist* entry)
{
  entry->previous = list;
  entry->next     = list->next;

  list->next->previous = entry;
 1006de8:	11000115 	stw	r4,4(r2)
   */
  
  alt_llist_insert(list, &dev->llist);

  return 0;  
}
 1006dec:	3005883a 	mov	r2,r6
 1006df0:	dfc00017 	ldw	ra,0(sp)
 1006df4:	dec00104 	addi	sp,sp,4
 1006df8:	f800283a 	ret
 1006dfc:	00804074 	movhi	r2,257
 1006e00:	10a8bf04 	addi	r2,r2,-23812
 1006e04:	10800017 	ldw	r2,0(r2)
 1006e08:	00c04074 	movhi	r3,257
 1006e0c:	18e8d004 	addi	r3,r3,-23744
 1006e10:	10000226 	beq	r2,zero,1006e1c <alt_dev_llist_insert+0x60>
 1006e14:	103ee83a 	callr	r2
 1006e18:	1007883a 	mov	r3,r2
   * check that the device exists, and that it has a valid name.
   */

  if (!dev || !dev->name)
  {
    ALT_ERRNO = EINVAL;
 1006e1c:	01bffa84 	movi	r6,-22
 1006e20:	00800584 	movi	r2,22
 1006e24:	18800015 	stw	r2,0(r3)
   */
  
  alt_llist_insert(list, &dev->llist);

  return 0;  
}
 1006e28:	3005883a 	mov	r2,r6
 1006e2c:	dfc00017 	ldw	ra,0(sp)
 1006e30:	dec00104 	addi	sp,sp,4
 1006e34:	f800283a 	ret

01006e38 <_do_ctors>:
/*
 * Run the C++ static constructors.
 */

void _do_ctors(void)
{
 1006e38:	defffd04 	addi	sp,sp,-12
 1006e3c:	dc400115 	stw	r17,4(sp)
  constructor* ctor;

  for (ctor = &__CTOR_END__[-1]; ctor >= __CTOR_LIST__; ctor--)
 1006e40:	00804074 	movhi	r2,257
 1006e44:	10a07704 	addi	r2,r2,-32292
 1006e48:	04404074 	movhi	r17,257
 1006e4c:	8c607704 	addi	r17,r17,-32292
/*
 * Run the C++ static constructors.
 */

void _do_ctors(void)
{
 1006e50:	dfc00215 	stw	ra,8(sp)
 1006e54:	dc000015 	stw	r16,0(sp)
  constructor* ctor;

  for (ctor = &__CTOR_END__[-1]; ctor >= __CTOR_LIST__; ctor--)
 1006e58:	14400536 	bltu	r2,r17,1006e70 <_do_ctors+0x38>
 1006e5c:	1021883a 	mov	r16,r2
        (*ctor) (); 
 1006e60:	80800017 	ldw	r2,0(r16)

void _do_ctors(void)
{
  constructor* ctor;

  for (ctor = &__CTOR_END__[-1]; ctor >= __CTOR_LIST__; ctor--)
 1006e64:	843fff04 	addi	r16,r16,-4
        (*ctor) (); 
 1006e68:	103ee83a 	callr	r2

void _do_ctors(void)
{
  constructor* ctor;

  for (ctor = &__CTOR_END__[-1]; ctor >= __CTOR_LIST__; ctor--)
 1006e6c:	847ffc2e 	bgeu	r16,r17,1006e60 <_do_ctors+0x28>
        (*ctor) (); 
}
 1006e70:	dfc00217 	ldw	ra,8(sp)
 1006e74:	dc400117 	ldw	r17,4(sp)
 1006e78:	dc000017 	ldw	r16,0(sp)
 1006e7c:	dec00304 	addi	sp,sp,12
 1006e80:	f800283a 	ret

01006e84 <_do_dtors>:
/*
 * Run the C++ static destructors.
 */

void _do_dtors(void)
{
 1006e84:	defffd04 	addi	sp,sp,-12
 1006e88:	dc400115 	stw	r17,4(sp)
  destructor* dtor;

  for (dtor = &__DTOR_END__[-1]; dtor >= __DTOR_LIST__; dtor--)
 1006e8c:	00804074 	movhi	r2,257
 1006e90:	10a07704 	addi	r2,r2,-32292
 1006e94:	04404074 	movhi	r17,257
 1006e98:	8c607804 	addi	r17,r17,-32288
/*
 * Run the C++ static destructors.
 */

void _do_dtors(void)
{
 1006e9c:	dfc00215 	stw	ra,8(sp)
 1006ea0:	dc000015 	stw	r16,0(sp)
  destructor* dtor;

  for (dtor = &__DTOR_END__[-1]; dtor >= __DTOR_LIST__; dtor--)
 1006ea4:	14400536 	bltu	r2,r17,1006ebc <_do_dtors+0x38>
 1006ea8:	1021883a 	mov	r16,r2
        (*dtor) (); 
 1006eac:	80800017 	ldw	r2,0(r16)

void _do_dtors(void)
{
  destructor* dtor;

  for (dtor = &__DTOR_END__[-1]; dtor >= __DTOR_LIST__; dtor--)
 1006eb0:	843fff04 	addi	r16,r16,-4
        (*dtor) (); 
 1006eb4:	103ee83a 	callr	r2

void _do_dtors(void)
{
  destructor* dtor;

  for (dtor = &__DTOR_END__[-1]; dtor >= __DTOR_LIST__; dtor--)
 1006eb8:	847ffc2e 	bgeu	r16,r17,1006eac <_do_dtors+0x28>
        (*dtor) (); 
}
 1006ebc:	dfc00217 	ldw	ra,8(sp)
 1006ec0:	dc400117 	ldw	r17,4(sp)
 1006ec4:	dc000017 	ldw	r16,0(sp)
 1006ec8:	dec00304 	addi	sp,sp,12
 1006ecc:	f800283a 	ret

01006ed0 <alt_flash_close_dev>:
  return dev;
}

void alt_flash_close_dev(alt_flash_fd* fd)
{
  if (fd && fd->close)
 1006ed0:	20000326 	beq	r4,zero,1006ee0 <alt_flash_close_dev+0x10>
 1006ed4:	20800417 	ldw	r2,16(r4)
 1006ed8:	10000126 	beq	r2,zero,1006ee0 <alt_flash_close_dev+0x10>
  {
    fd->close(fd);
 1006edc:	1000683a 	jmp	r2
 1006ee0:	f800283a 	ret

01006ee4 <alt_flash_open_dev>:
#include "priv/alt_file.h"

ALT_LLIST_HEAD(alt_flash_dev_list);

alt_flash_fd* alt_flash_open_dev(const char* name)
{
 1006ee4:	defffe04 	addi	sp,sp,-8
  alt_flash_dev* dev = (alt_flash_dev*)alt_find_dev(name, &alt_flash_dev_list);
 1006ee8:	d1600f04 	addi	r5,gp,-32708
#include "priv/alt_file.h"

ALT_LLIST_HEAD(alt_flash_dev_list);

alt_flash_fd* alt_flash_open_dev(const char* name)
{
 1006eec:	dc000015 	stw	r16,0(sp)
 1006ef0:	dfc00115 	stw	ra,4(sp)
 1006ef4:	2021883a 	mov	r16,r4
  alt_flash_dev* dev = (alt_flash_dev*)alt_find_dev(name, &alt_flash_dev_list);
 1006ef8:	1007b300 	call	1007b30 <alt_find_dev>

  if ((dev) && dev->open)
 1006efc:	10000826 	beq	r2,zero,1006f20 <alt_flash_open_dev+0x3c>
 1006f00:	10c00317 	ldw	r3,12(r2)
  {
    return dev->open(dev, name);
 1006f04:	1009883a 	mov	r4,r2
 1006f08:	800b883a 	mov	r5,r16

alt_flash_fd* alt_flash_open_dev(const char* name)
{
  alt_flash_dev* dev = (alt_flash_dev*)alt_find_dev(name, &alt_flash_dev_list);

  if ((dev) && dev->open)
 1006f0c:	18000426 	beq	r3,zero,1006f20 <alt_flash_open_dev+0x3c>
  {
    return dev->open(dev, name);
  }

  return dev;
}
 1006f10:	dfc00117 	ldw	ra,4(sp)
 1006f14:	dc000017 	ldw	r16,0(sp)
 1006f18:	dec00204 	addi	sp,sp,8
{
  alt_flash_dev* dev = (alt_flash_dev*)alt_find_dev(name, &alt_flash_dev_list);

  if ((dev) && dev->open)
  {
    return dev->open(dev, name);
 1006f1c:	1800683a 	jmp	r3
  }

  return dev;
}
 1006f20:	dfc00117 	ldw	ra,4(sp)
 1006f24:	dc000017 	ldw	r16,0(sp)
 1006f28:	dec00204 	addi	sp,sp,8
 1006f2c:	f800283a 	ret

01006f30 <alt_ic_irq_enabled>:
  */
alt_u32 alt_ic_irq_enabled(alt_u32 ic_id, alt_u32 irq)
{
    alt_u32 irq_enabled;

    NIOS2_READ_IENABLE(irq_enabled);
 1006f30:	000530fa 	rdctl	r2,ienable
 1006f34:	00c00044 	movi	r3,1
 1006f38:	1946983a 	sll	r3,r3,r5
 1006f3c:	10c4703a 	and	r2,r2,r3

    return (irq_enabled & (1 << irq)) ? 1: 0;
}
 1006f40:	1004c03a 	cmpne	r2,r2,zero
 1006f44:	f800283a 	ret

01006f48 <alt_ic_irq_enable>:
static ALT_INLINE alt_irq_context ALT_ALWAYS_INLINE 
       alt_irq_disable_all (void)
{
  alt_irq_context context;

  NIOS2_READ_STATUS (context);
 1006f48:	000d303a 	rdctl	r6,status

  NIOS2_WRITE_STATUS (context & ~NIOS2_STATUS_PIE_MSK);
 1006f4c:	00bfff84 	movi	r2,-2
 1006f50:	3084703a 	and	r2,r6,r2
 1006f54:	1001703a 	wrctl	status,r2
  alt_irq_context  status;
  extern volatile alt_u32 alt_irq_active;

  status = alt_irq_disable_all ();

  alt_irq_active |= (1 << id);
 1006f58:	01004074 	movhi	r4,257
 1006f5c:	2128d104 	addi	r4,r4,-23740
 1006f60:	00800044 	movi	r2,1
 1006f64:	20c00017 	ldw	r3,0(r4)
 1006f68:	1144983a 	sll	r2,r2,r5
 1006f6c:	10c4b03a 	or	r2,r2,r3
 1006f70:	20800015 	stw	r2,0(r4)
  NIOS2_WRITE_IENABLE (alt_irq_active);
 1006f74:	20c00017 	ldw	r3,0(r4)
 1006f78:	180170fa 	wrctl	ienable,r3
  status &= ~NIOS2_STATUS_PIE_MSK;
  status |= (context & NIOS2_STATUS_PIE_MSK);
  
  NIOS2_WRITE_STATUS (status);
#else
  NIOS2_WRITE_STATUS (context);
 1006f7c:	3001703a 	wrctl	status,r6
  * @return                 0 if successful, else error (-1)
  */
int alt_ic_irq_enable (alt_u32 ic_id, alt_u32 irq)
{
    return alt_irq_enable(irq);
}
 1006f80:	0005883a 	mov	r2,zero
 1006f84:	f800283a 	ret

01006f88 <alt_ic_irq_disable>:
static ALT_INLINE alt_irq_context ALT_ALWAYS_INLINE 
       alt_irq_disable_all (void)
{
  alt_irq_context context;

  NIOS2_READ_STATUS (context);
 1006f88:	000d303a 	rdctl	r6,status

  NIOS2_WRITE_STATUS (context & ~NIOS2_STATUS_PIE_MSK);
 1006f8c:	00bfff84 	movi	r2,-2
 1006f90:	3084703a 	and	r2,r6,r2
 1006f94:	1001703a 	wrctl	status,r2
  alt_irq_context  status;
  extern volatile alt_u32 alt_irq_active;

  status = alt_irq_disable_all ();

  alt_irq_active &= ~(1 << id);
 1006f98:	01004074 	movhi	r4,257
 1006f9c:	2128d104 	addi	r4,r4,-23740
 1006fa0:	00bfff84 	movi	r2,-2
 1006fa4:	20c00017 	ldw	r3,0(r4)
 1006fa8:	1144183a 	rol	r2,r2,r5
 1006fac:	10c4703a 	and	r2,r2,r3
 1006fb0:	20800015 	stw	r2,0(r4)
  NIOS2_WRITE_IENABLE (alt_irq_active);
 1006fb4:	20c00017 	ldw	r3,0(r4)
 1006fb8:	180170fa 	wrctl	ienable,r3
  status &= ~NIOS2_STATUS_PIE_MSK;
  status |= (context & NIOS2_STATUS_PIE_MSK);
  
  NIOS2_WRITE_STATUS (status);
#else
  NIOS2_WRITE_STATUS (context);
 1006fbc:	3001703a 	wrctl	status,r6
  * @return                 0 if successful, else error (-1)
  */
int alt_ic_irq_disable(alt_u32 ic_id, alt_u32 irq)
{
    return alt_irq_disable(irq);
}
 1006fc0:	0005883a 	mov	r2,zero
 1006fc4:	f800283a 	ret

01006fc8 <alt_ic_isr_register>:
  * @return                 0 if successful, else error (-1)
  */
int alt_ic_isr_register(alt_u32 ic_id, alt_u32 irq, alt_isr_func isr, 
  void *isr_context, void *flags)
{
    return alt_iic_isr_register(ic_id, irq, isr, isr_context, flags);
 1006fc8:	1006fcc1 	jmpi	1006fcc <alt_iic_isr_register>

01006fcc <alt_iic_isr_register>:
  * @param flags            
  * @return                 0 if successful, else error (-1)
  */
int alt_iic_isr_register(alt_u32 ic_id, alt_u32 irq, alt_isr_func isr, 
  void *isr_context, void *flags)
{
 1006fcc:	defffe04 	addi	sp,sp,-8
  int rc = -EINVAL;  
  int id = irq;             /* IRQ interpreted as the interrupt ID. */
  alt_irq_context status;

  if (id < ALT_NIRQ)
 1006fd0:	008007c4 	movi	r2,31
  * @param flags            
  * @return                 0 if successful, else error (-1)
  */
int alt_iic_isr_register(alt_u32 ic_id, alt_u32 irq, alt_isr_func isr, 
  void *isr_context, void *flags)
{
 1006fd4:	dfc00115 	stw	ra,4(sp)
 1006fd8:	dc000015 	stw	r16,0(sp)
  int rc = -EINVAL;  
  int id = irq;             /* IRQ interpreted as the interrupt ID. */
  alt_irq_context status;

  if (id < ALT_NIRQ)
 1006fdc:	023ffa84 	movi	r8,-22
 1006fe0:	1140050e 	bge	r2,r5,1006ff8 <alt_iic_isr_register+0x2c>

    alt_irq_enable_all(status);
  }

  return rc; 
}
 1006fe4:	4005883a 	mov	r2,r8
 1006fe8:	dfc00117 	ldw	ra,4(sp)
 1006fec:	dc000017 	ldw	r16,0(sp)
 1006ff0:	dec00204 	addi	sp,sp,8
 1006ff4:	f800283a 	ret
static ALT_INLINE alt_irq_context ALT_ALWAYS_INLINE 
       alt_irq_disable_all (void)
{
  alt_irq_context context;

  NIOS2_READ_STATUS (context);
 1006ff8:	0021303a 	rdctl	r16,status

  NIOS2_WRITE_STATUS (context & ~NIOS2_STATUS_PIE_MSK);
 1006ffc:	00bfff84 	movi	r2,-2
 1007000:	8084703a 	and	r2,r16,r2
 1007004:	1001703a 	wrctl	status,r2
     * state.
     */

    status = alt_irq_disable_all();

    alt_irq[id].handler = isr;
 1007008:	280690fa 	slli	r3,r5,3
 100700c:	00804074 	movhi	r2,257
 1007010:	10a96104 	addi	r2,r2,-23164
 1007014:	1887883a 	add	r3,r3,r2
    alt_irq[id].context = isr_context;
 1007018:	19c00115 	stw	r7,4(r3)
     * state.
     */

    status = alt_irq_disable_all();

    alt_irq[id].handler = isr;
 100701c:	19800015 	stw	r6,0(r3)
    alt_irq[id].context = isr_context;

    rc = (isr) ? alt_ic_irq_enable(ic_id, id) : alt_ic_irq_disable(ic_id, id);
 1007020:	30000826 	beq	r6,zero,1007044 <alt_iic_isr_register+0x78>
 1007024:	1006f480 	call	1006f48 <alt_ic_irq_enable>
 1007028:	1011883a 	mov	r8,r2
  status &= ~NIOS2_STATUS_PIE_MSK;
  status |= (context & NIOS2_STATUS_PIE_MSK);
  
  NIOS2_WRITE_STATUS (status);
#else
  NIOS2_WRITE_STATUS (context);
 100702c:	8001703a 	wrctl	status,r16

    alt_irq_enable_all(status);
  }

  return rc; 
}
 1007030:	4005883a 	mov	r2,r8
 1007034:	dfc00117 	ldw	ra,4(sp)
 1007038:	dc000017 	ldw	r16,0(sp)
 100703c:	dec00204 	addi	sp,sp,8
 1007040:	f800283a 	ret
    status = alt_irq_disable_all();

    alt_irq[id].handler = isr;
    alt_irq[id].context = isr_context;

    rc = (isr) ? alt_ic_irq_enable(ic_id, id) : alt_ic_irq_disable(ic_id, id);
 1007044:	1006f880 	call	1006f88 <alt_ic_irq_disable>
 1007048:	1011883a 	mov	r8,r2
 100704c:	8001703a 	wrctl	status,r16
 1007050:	003ff706 	br	1007030 <alt_iic_isr_register+0x64>

01007054 <alt_open_fd>:
 * If the device can not be succesfully opened, then the input file descriptor
 * remains unchanged.
 */

static void alt_open_fd(alt_fd* fd, const char* name, int flags, int mode)
{
 1007054:	defffd04 	addi	sp,sp,-12
 1007058:	dc400115 	stw	r17,4(sp)
 100705c:	2023883a 	mov	r17,r4
  int old;

  old = open (name, flags, mode);
 1007060:	2809883a 	mov	r4,r5
 1007064:	300b883a 	mov	r5,r6
 1007068:	380d883a 	mov	r6,r7
 * If the device can not be succesfully opened, then the input file descriptor
 * remains unchanged.
 */

static void alt_open_fd(alt_fd* fd, const char* name, int flags, int mode)
{
 100706c:	dc000015 	stw	r16,0(sp)
 1007070:	dfc00215 	stw	ra,8(sp)
  int old;

  old = open (name, flags, mode);
 1007074:	10071680 	call	1007168 <open>
 1007078:	1021883a 	mov	r16,r2

  if (old >= 0)
  {
    fd->dev      = alt_fd_list[old].dev;
 100707c:	1009883a 	mov	r4,r2
 1007080:	01400304 	movi	r5,12
{
  int old;

  old = open (name, flags, mode);

  if (old >= 0)
 1007084:	10001016 	blt	r2,zero,10070c8 <alt_open_fd+0x74>
  {
    fd->dev      = alt_fd_list[old].dev;
 1007088:	1000cc40 	call	1000cc4 <__mulsi3>
 100708c:	00c04074 	movhi	r3,257
 1007090:	18e35b04 	addi	r3,r3,-29332
 1007094:	10c5883a 	add	r2,r2,r3
    fd->priv     = alt_fd_list[old].priv;
    fd->fd_flags = alt_fd_list[old].fd_flags;
 1007098:	11000217 	ldw	r4,8(r2)

  old = open (name, flags, mode);

  if (old >= 0)
  {
    fd->dev      = alt_fd_list[old].dev;
 100709c:	10c00017 	ldw	r3,0(r2)
    fd->priv     = alt_fd_list[old].priv;
 10070a0:	11400117 	ldw	r5,4(r2)
    fd->fd_flags = alt_fd_list[old].fd_flags;
 10070a4:	89000215 	stw	r4,8(r17)

    alt_release_fd (old);
 10070a8:	8009883a 	mov	r4,r16

  old = open (name, flags, mode);

  if (old >= 0)
  {
    fd->dev      = alt_fd_list[old].dev;
 10070ac:	88c00015 	stw	r3,0(r17)
    fd->priv     = alt_fd_list[old].priv;
 10070b0:	89400115 	stw	r5,4(r17)
    fd->fd_flags = alt_fd_list[old].fd_flags;

    alt_release_fd (old);
  }
} 
 10070b4:	dfc00217 	ldw	ra,8(sp)
 10070b8:	dc400117 	ldw	r17,4(sp)
 10070bc:	dc000017 	ldw	r16,0(sp)
 10070c0:	dec00304 	addi	sp,sp,12
  {
    fd->dev      = alt_fd_list[old].dev;
    fd->priv     = alt_fd_list[old].priv;
    fd->fd_flags = alt_fd_list[old].fd_flags;

    alt_release_fd (old);
 10070c4:	1003bb01 	jmpi	1003bb0 <alt_release_fd>
  }
} 
 10070c8:	dfc00217 	ldw	ra,8(sp)
 10070cc:	dc400117 	ldw	r17,4(sp)
 10070d0:	dc000017 	ldw	r16,0(sp)
 10070d4:	dec00304 	addi	sp,sp,12
 10070d8:	f800283a 	ret

010070dc <alt_io_redirect>:
 */
 
void alt_io_redirect(const char* stdout_dev, 
                     const char* stdin_dev, 
                     const char* stderr_dev)
{
 10070dc:	defffa04 	addi	sp,sp,-24
 10070e0:	dd800415 	stw	r22,16(sp)
 10070e4:	dc800215 	stw	r18,8(sp)
 10070e8:	dc000015 	stw	r16,0(sp)
  /* Redirect the channels */

  alt_open_fd (&alt_fd_list[STDOUT_FILENO], stdout_dev, O_WRONLY, 0777);
 10070ec:	04807fc4 	movi	r18,511
 10070f0:	04004074 	movhi	r16,257
 10070f4:	84235e04 	addi	r16,r16,-29320
 10070f8:	05800044 	movi	r22,1
 */
 
void alt_io_redirect(const char* stdout_dev, 
                     const char* stdin_dev, 
                     const char* stderr_dev)
{
 10070fc:	dd000315 	stw	r20,12(sp)
 1007100:	dc400115 	stw	r17,4(sp)
 1007104:	2829883a 	mov	r20,r5
 1007108:	3023883a 	mov	r17,r6
  /* Redirect the channels */

  alt_open_fd (&alt_fd_list[STDOUT_FILENO], stdout_dev, O_WRONLY, 0777);
 100710c:	200b883a 	mov	r5,r4
 1007110:	b00d883a 	mov	r6,r22
 1007114:	8009883a 	mov	r4,r16
 1007118:	900f883a 	mov	r7,r18
 */
 
void alt_io_redirect(const char* stdout_dev, 
                     const char* stdin_dev, 
                     const char* stderr_dev)
{
 100711c:	dfc00515 	stw	ra,20(sp)
  /* Redirect the channels */

  alt_open_fd (&alt_fd_list[STDOUT_FILENO], stdout_dev, O_WRONLY, 0777);
 1007120:	10070540 	call	1007054 <alt_open_fd>
  alt_open_fd (&alt_fd_list[STDIN_FILENO], stdin_dev, O_RDONLY, 0777);
 1007124:	a00b883a 	mov	r5,r20
 1007128:	813ffd04 	addi	r4,r16,-12
 100712c:	900f883a 	mov	r7,r18
 1007130:	000d883a 	mov	r6,zero
 1007134:	10070540 	call	1007054 <alt_open_fd>
  alt_open_fd (&alt_fd_list[STDERR_FILENO], stderr_dev, O_WRONLY, 0777);
 1007138:	81000304 	addi	r4,r16,12
 100713c:	880b883a 	mov	r5,r17
 1007140:	b00d883a 	mov	r6,r22
 1007144:	900f883a 	mov	r7,r18
}  
 1007148:	dfc00517 	ldw	ra,20(sp)
 100714c:	dd800417 	ldw	r22,16(sp)
 1007150:	dd000317 	ldw	r20,12(sp)
 1007154:	dc800217 	ldw	r18,8(sp)
 1007158:	dc400117 	ldw	r17,4(sp)
 100715c:	dc000017 	ldw	r16,0(sp)
 1007160:	dec00604 	addi	sp,sp,24
{
  /* Redirect the channels */

  alt_open_fd (&alt_fd_list[STDOUT_FILENO], stdout_dev, O_WRONLY, 0777);
  alt_open_fd (&alt_fd_list[STDIN_FILENO], stdin_dev, O_RDONLY, 0777);
  alt_open_fd (&alt_fd_list[STDERR_FILENO], stderr_dev, O_WRONLY, 0777);
 1007164:	10070541 	jmpi	1007054 <alt_open_fd>

01007168 <open>:
 *
 * ALT_OPEN is mapped onto the open() system call in alt_syscall.h
 */
 
int ALT_OPEN (const char* file, int flags, int mode)
{ 
 1007168:	defff904 	addi	sp,sp,-28
 100716c:	dcc00315 	stw	r19,12(sp)
 1007170:	2827883a 	mov	r19,r5
  /* 
   * Check the device list, to see if a device with a matching name is 
   * registered.
   */
  
  if (!(dev = alt_find_dev (file, &alt_dev_list)))
 1007174:	01404074 	movhi	r5,257
 1007178:	2968bc04 	addi	r5,r5,-23824
 *
 * ALT_OPEN is mapped onto the open() system call in alt_syscall.h
 */
 
int ALT_OPEN (const char* file, int flags, int mode)
{ 
 100717c:	dd400515 	stw	r21,20(sp)
 1007180:	dd000415 	stw	r20,16(sp)
 1007184:	dc400115 	stw	r17,4(sp)
 1007188:	dfc00615 	stw	ra,24(sp)
 100718c:	dc800215 	stw	r18,8(sp)
 1007190:	dc000015 	stw	r16,0(sp)
 1007194:	302b883a 	mov	r21,r6
 1007198:	2029883a 	mov	r20,r4
  /* 
   * Check the device list, to see if a device with a matching name is 
   * registered.
   */
  
  if (!(dev = alt_find_dev (file, &alt_dev_list)))
 100719c:	1007b300 	call	1007b30 <alt_find_dev>
 10071a0:	1023883a 	mov	r17,r2
 10071a4:	10004a26 	beq	r2,zero,10072d0 <open+0x168>
 10071a8:	0025883a 	mov	r18,zero
   * If a matching device or filesystem is found, allocate a file descriptor. 
   */

  if (dev)
  {
    if ((index = alt_get_fd (dev)) < 0)
 10071ac:	8809883a 	mov	r4,r17
 10071b0:	1007c740 	call	1007c74 <alt_get_fd>
 10071b4:	1021883a 	mov	r16,r2
 10071b8:	10003016 	blt	r2,zero,100727c <open+0x114>
    {
      status = index;
    }
    else
    {
      fd = &alt_fd_list[index];
 10071bc:	1009883a 	mov	r4,r2
 10071c0:	01400304 	movi	r5,12
 10071c4:	1000cc40 	call	1000cc4 <__mulsi3>
 10071c8:	02004074 	movhi	r8,257
 10071cc:	42235b04 	addi	r8,r8,-29332
 10071d0:	1209883a 	add	r4,r2,r8
      fd->fd_flags = (flags & ~ALT_FD_FLAGS_MASK);
 10071d4:	00900034 	movhi	r2,16384
 10071d8:	10bfffc4 	addi	r2,r2,-1
 10071dc:	988a703a 	and	r5,r19,r2
      
      /* If this is a device, ensure it isn't already locked */

      if (isafs || ((status = alt_file_locked (fd)) >= 0))
 10071e0:	9006c03a 	cmpne	r3,r18,zero
      status = index;
    }
    else
    {
      fd = &alt_fd_list[index];
      fd->fd_flags = (flags & ~ALT_FD_FLAGS_MASK);
 10071e4:	21400215 	stw	r5,8(r4)
      
      /* If this is a device, ensure it isn't already locked */

      if (isafs || ((status = alt_file_locked (fd)) >= 0))
 10071e8:	1800131e 	bne	r3,zero,1007238 <open+0xd0>
  /*
   * Loop through all current file descriptors searching for one that's locked
   * for exclusive access. If a match is found, generate an error.
   */

  for (i = 0; i <= alt_max_fd; i++)
 10071ec:	00804074 	movhi	r2,257
 10071f0:	10a8be04 	addi	r2,r2,-23816
 10071f4:	11c00017 	ldw	r7,0(r2)
  {
    if ((alt_fd_list[i].dev == fd->dev) &&
 10071f8:	21800017 	ldw	r6,0(r4)

  /*
   * Mark the file descriptor as belonging to a device.
   */

  fd->fd_flags |= ALT_FD_DEV;
 10071fc:	28900034 	orhi	r2,r5,16384
   * for exclusive access. If a match is found, generate an error.
   */

  for (i = 0; i <= alt_max_fd; i++)
  {
    if ((alt_fd_list[i].dev == fd->dev) &&
 1007200:	0007883a 	mov	r3,zero
 1007204:	400b883a 	mov	r5,r8

  /*
   * Mark the file descriptor as belonging to a device.
   */

  fd->fd_flags |= ALT_FD_DEV;
 1007208:	20800215 	stw	r2,8(r4)
 100720c:	00000206 	br	1007218 <open+0xb0>
  /*
   * Loop through all current file descriptors searching for one that's locked
   * for exclusive access. If a match is found, generate an error.
   */

  for (i = 0; i <= alt_max_fd; i++)
 1007210:	29400304 	addi	r5,r5,12
 1007214:	38c00836 	bltu	r7,r3,1007238 <open+0xd0>
  {
    if ((alt_fd_list[i].dev == fd->dev) &&
 1007218:	28800017 	ldw	r2,0(r5)
  /*
   * Loop through all current file descriptors searching for one that's locked
   * for exclusive access. If a match is found, generate an error.
   */

  for (i = 0; i <= alt_max_fd; i++)
 100721c:	18c00044 	addi	r3,r3,1
  {
    if ((alt_fd_list[i].dev == fd->dev) &&
 1007220:	11bffb1e 	bne	r2,r6,1007210 <open+0xa8>
 1007224:	28800217 	ldw	r2,8(r5)
 1007228:	103ff90e 	bge	r2,zero,1007210 <open+0xa8>
 100722c:	293ff826 	beq	r5,r4,1007210 <open+0xa8>
 1007230:	04400344 	movi	r17,13
 1007234:	00001206 	br	1007280 <open+0x118>
        /* 
         * If the device or filesystem provides an open() callback function,
         * call it now to perform any device/filesystem specific operations.
         */
    
        status = (dev->open) ? dev->open(fd, file, flags, mode): 0;
 1007238:	88800317 	ldw	r2,12(r17)
 100723c:	10000526 	beq	r2,zero,1007254 <open+0xec>
 1007240:	a00b883a 	mov	r5,r20
 1007244:	980d883a 	mov	r6,r19
 1007248:	a80f883a 	mov	r7,r21
 100724c:	103ee83a 	callr	r2
    status = -ENODEV;
  }

  /* Allocation failed, so clean up and return an error */ 

  if (status < 0)
 1007250:	10001516 	blt	r2,zero,10072a8 <open+0x140>
  }
  
  /* return the reference upon success */

  return index;
}
 1007254:	8005883a 	mov	r2,r16
 1007258:	dfc00617 	ldw	ra,24(sp)
 100725c:	dd400517 	ldw	r21,20(sp)
 1007260:	dd000417 	ldw	r20,16(sp)
 1007264:	dcc00317 	ldw	r19,12(sp)
 1007268:	dc800217 	ldw	r18,8(sp)
 100726c:	dc400117 	ldw	r17,4(sp)
 1007270:	dc000017 	ldw	r16,0(sp)
 1007274:	dec00704 	addi	sp,sp,28
 1007278:	f800283a 	ret
   * If a matching device or filesystem is found, allocate a file descriptor. 
   */

  if (dev)
  {
    if ((index = alt_get_fd (dev)) < 0)
 100727c:	00a3c83a 	sub	r17,zero,r2

  /* Allocation failed, so clean up and return an error */ 

  if (status < 0)
  {
    alt_release_fd (index);  
 1007280:	8009883a 	mov	r4,r16
 1007284:	1003bb00 	call	1003bb0 <alt_release_fd>
 1007288:	00804074 	movhi	r2,257
 100728c:	10a8bf04 	addi	r2,r2,-23812
 1007290:	10800017 	ldw	r2,0(r2)
 1007294:	10000b26 	beq	r2,zero,10072c4 <open+0x15c>
 1007298:	103ee83a 	callr	r2
    ALT_ERRNO = -status;
 100729c:	043fffc4 	movi	r16,-1
 10072a0:	14400015 	stw	r17,0(r2)
 10072a4:	003feb06 	br	1007254 <open+0xec>

  /* Allocation failed, so clean up and return an error */ 

  if (status < 0)
  {
    alt_release_fd (index);  
 10072a8:	8009883a 	mov	r4,r16
    status = -ENODEV;
  }

  /* Allocation failed, so clean up and return an error */ 

  if (status < 0)
 10072ac:	00a3c83a 	sub	r17,zero,r2
  {
    alt_release_fd (index);  
 10072b0:	1003bb00 	call	1003bb0 <alt_release_fd>
 10072b4:	00804074 	movhi	r2,257
 10072b8:	10a8bf04 	addi	r2,r2,-23812
 10072bc:	10800017 	ldw	r2,0(r2)
 10072c0:	103ff51e 	bne	r2,zero,1007298 <open+0x130>
 10072c4:	00804074 	movhi	r2,257
 10072c8:	10a8d004 	addi	r2,r2,-23744
 10072cc:	003ff306 	br	100729c <open+0x134>
  
  if (!(dev = alt_find_dev (file, &alt_dev_list)))
  {
    /* No matching device, so try the filesystem list */

    dev   = alt_find_file (file);
 10072d0:	a009883a 	mov	r4,r20
 10072d4:	1007bc40 	call	1007bc4 <alt_find_file>
 10072d8:	1023883a 	mov	r17,r2

  /* 
   * If a matching device or filesystem is found, allocate a file descriptor. 
   */

  if (dev)
 10072dc:	10000226 	beq	r2,zero,10072e8 <open+0x180>
 10072e0:	04800044 	movi	r18,1
 10072e4:	003fb106 	br	10071ac <open+0x44>
  /* Allocation failed, so clean up and return an error */ 

  if (status < 0)
  {
    alt_release_fd (index);  
    ALT_ERRNO = -status;
 10072e8:	043fffc4 	movi	r16,-1
 10072ec:	044004c4 	movi	r17,19
 10072f0:	003fe306 	br	1007280 <open+0x118>

010072f4 <alt_alarm_stop>:
static ALT_INLINE alt_irq_context ALT_ALWAYS_INLINE 
       alt_irq_disable_all (void)
{
  alt_irq_context context;

  NIOS2_READ_STATUS (context);
 10072f4:	000d303a 	rdctl	r6,status

  NIOS2_WRITE_STATUS (context & ~NIOS2_STATUS_PIE_MSK);
 10072f8:	00bfff84 	movi	r2,-2
 10072fc:	3084703a 	and	r2,r6,r2
 1007300:	1001703a 	wrctl	status,r2
 * input argument is the element to remove.
 */
     
static ALT_INLINE void ALT_ALWAYS_INLINE alt_llist_remove(alt_llist* entry)
{
  entry->next->previous = entry->previous;
 1007304:	21400017 	ldw	r5,0(r4)
 1007308:	20800117 	ldw	r2,4(r4)
 100730c:	28800115 	stw	r2,4(r5)
  entry->previous->next = entry->next;
 1007310:	20c00117 	ldw	r3,4(r4)
  /* 
   * Set the entry to point to itself, so that any further calls to
   * alt_llist_remove() are harmless.
   */

  entry->previous = entry;
 1007314:	21000115 	stw	r4,4(r4)
 */
     
static ALT_INLINE void ALT_ALWAYS_INLINE alt_llist_remove(alt_llist* entry)
{
  entry->next->previous = entry->previous;
  entry->previous->next = entry->next;
 1007318:	19400015 	stw	r5,0(r3)
   * Set the entry to point to itself, so that any further calls to
   * alt_llist_remove() are harmless.
   */

  entry->previous = entry;
  entry->next     = entry;
 100731c:	21000015 	stw	r4,0(r4)
  status &= ~NIOS2_STATUS_PIE_MSK;
  status |= (context & NIOS2_STATUS_PIE_MSK);
  
  NIOS2_WRITE_STATUS (status);
#else
  NIOS2_WRITE_STATUS (context);
 1007320:	3001703a 	wrctl	status,r6
  alt_irq_context irq_context;

  irq_context = alt_irq_disable_all();
  alt_llist_remove (&alarm->llist);
  alt_irq_enable_all (irq_context);
}
 1007324:	f800283a 	ret

01007328 <alt_tick>:
 * 
 * alt_tick() is expected to run at interrupt level.
 */

void alt_tick (void)
{
 1007328:	defffc04 	addi	sp,sp,-16

  alt_u32    next_callback;

  /* update the tick counter */

  _alt_nticks++;
 100732c:	d0a02217 	ldw	r2,-32632(gp)
 * 
 * alt_tick() is expected to run at interrupt level.
 */

void alt_tick (void)
{
 1007330:	dc000015 	stw	r16,0(sp)
  alt_alarm* next;
  alt_alarm* alarm = (alt_alarm*) alt_alarm_list.next;
 1007334:	d4201117 	ldw	r16,-32700(gp)
 * 
 * alt_tick() is expected to run at interrupt level.
 */

void alt_tick (void)
{
 1007338:	dc800215 	stw	r18,8(sp)

  alt_u32    next_callback;

  /* update the tick counter */

  _alt_nticks++;
 100733c:	10800044 	addi	r2,r2,1
 1007340:	d4a01104 	addi	r18,gp,-32700
 * 
 * alt_tick() is expected to run at interrupt level.
 */

void alt_tick (void)
{
 1007344:	dfc00315 	stw	ra,12(sp)
 1007348:	dc400115 	stw	r17,4(sp)

  alt_u32    next_callback;

  /* update the tick counter */

  _alt_nticks++;
 100734c:	d0a02215 	stw	r2,-32632(gp)

  /* process the registered callbacks */

  while (alarm != (alt_alarm*) &alt_alarm_list)
 1007350:	84800d26 	beq	r16,r18,1007388 <alt_tick+0x60>
    /* 
     * Upon the tick-counter rolling over it is safe to clear the 
     * roll-over flag; once the flag is cleared this (or subsequnt)
     * tick events are enabled to generate an alarm event. 
     */
    if ((alarm->rollover) && (_alt_nticks == 0))
 1007354:	80800403 	ldbu	r2,16(r16)

  /* process the registered callbacks */

  while (alarm != (alt_alarm*) &alt_alarm_list)
  {
    next = (alt_alarm*) alarm->llist.next;
 1007358:	84400017 	ldw	r17,0(r16)
    /* 
     * Upon the tick-counter rolling over it is safe to clear the 
     * roll-over flag; once the flag is cleared this (or subsequnt)
     * tick events are enabled to generate an alarm event. 
     */
    if ((alarm->rollover) && (_alt_nticks == 0))
 100735c:	10000326 	beq	r2,zero,100736c <alt_tick+0x44>
 1007360:	d0a02217 	ldw	r2,-32632(gp)
 1007364:	1000011e 	bne	r2,zero,100736c <alt_tick+0x44>
    {
      alarm->rollover = 0;
 1007368:	80000405 	stb	zero,16(r16)
    }
    
    /* if the alarm period has expired, make the callback */    
    if ((alarm->time <= _alt_nticks) && (alarm->rollover == 0))
 100736c:	d0e02217 	ldw	r3,-32632(gp)
 1007370:	80800217 	ldw	r2,8(r16)
 1007374:	18800236 	bltu	r3,r2,1007380 <alt_tick+0x58>
 1007378:	80800403 	ldbu	r2,16(r16)
 100737c:	10000826 	beq	r2,zero,10073a0 <alt_tick+0x78>
         * flag. This will prevent the subsequent tick event from causing
         * an alarm too early.
         */
        if(alarm->time < _alt_nticks)
        {
          alarm->rollover = 1;
 1007380:	8821883a 	mov	r16,r17

  _alt_nticks++;

  /* process the registered callbacks */

  while (alarm != (alt_alarm*) &alt_alarm_list)
 1007384:	84bff31e 	bne	r16,r18,1007354 <alt_tick+0x2c>
  /* 
   * Update the operating system specific timer facilities.
   */

  ALT_OS_TIME_TICK();
}
 1007388:	dfc00317 	ldw	ra,12(sp)
 100738c:	dc800217 	ldw	r18,8(sp)
 1007390:	dc400117 	ldw	r17,4(sp)
 1007394:	dc000017 	ldw	r16,0(sp)
 1007398:	dec00404 	addi	sp,sp,16
 100739c:	f800283a 	ret
    }
    
    /* if the alarm period has expired, make the callback */    
    if ((alarm->time <= _alt_nticks) && (alarm->rollover == 0))
    {
      next_callback = alarm->callback (alarm->context);
 10073a0:	81000517 	ldw	r4,20(r16)
 10073a4:	80c00317 	ldw	r3,12(r16)
 10073a8:	183ee83a 	callr	r3
 10073ac:	1009883a 	mov	r4,r2

      /* deactivate the alarm if the return value is zero */

      if (next_callback == 0)
 10073b0:	10000926 	beq	r2,zero,10073d8 <alt_tick+0xb0>
      {
        alt_alarm_stop (alarm);
      }
      else
      {
        alarm->time += next_callback;
 10073b4:	80800217 	ldw	r2,8(r16)
        /* 
         * If the desired alarm time causes a roll-over, set the rollover
         * flag. This will prevent the subsequent tick event from causing
         * an alarm too early.
         */
        if(alarm->time < _alt_nticks)
 10073b8:	d0e02217 	ldw	r3,-32632(gp)
      {
        alt_alarm_stop (alarm);
      }
      else
      {
        alarm->time += next_callback;
 10073bc:	2085883a 	add	r2,r4,r2
 10073c0:	80800215 	stw	r2,8(r16)
        /* 
         * If the desired alarm time causes a roll-over, set the rollover
         * flag. This will prevent the subsequent tick event from causing
         * an alarm too early.
         */
        if(alarm->time < _alt_nticks)
 10073c4:	10ffee2e 	bgeu	r2,r3,1007380 <alt_tick+0x58>
        {
          alarm->rollover = 1;
 10073c8:	00800044 	movi	r2,1
 10073cc:	80800405 	stb	r2,16(r16)
 10073d0:	8821883a 	mov	r16,r17
 10073d4:	003feb06 	br	1007384 <alt_tick+0x5c>

      /* deactivate the alarm if the return value is zero */

      if (next_callback == 0)
      {
        alt_alarm_stop (alarm);
 10073d8:	8009883a 	mov	r4,r16
 10073dc:	10072f40 	call	10072f4 <alt_alarm_stop>
         * flag. This will prevent the subsequent tick event from causing
         * an alarm too early.
         */
        if(alarm->time < _alt_nticks)
        {
          alarm->rollover = 1;
 10073e0:	8821883a 	mov	r16,r17
 10073e4:	003fe706 	br	1007384 <alt_tick+0x5c>

010073e8 <altera_nios2_qsys_irq_init>:
 * To initialize the internal interrupt controller, just clear the IENABLE
 * register so that all possible IRQs are disabled.
 */
void altera_nios2_qsys_irq_init(void) 
{
    NIOS2_WRITE_IENABLE(0);
 10073e8:	000170fa 	wrctl	ienable,zero
}
 10073ec:	f800283a 	ret

010073f0 <alt_erase_block_amd>:
 * alt_erase_block_amd
 * 
 * Erase the selected erase block
 */
int alt_erase_block_amd(alt_flash_dev* flash_info, int block_offset)
{
 10073f0:	defffb04 	addi	sp,sp,-20
 10073f4:	dc400215 	stw	r17,8(sp)
 10073f8:	2023883a 	mov	r17,r4
  int   ret_code = 0;
  int   timeout;
  alt_flash_cfi_dev* flash = (alt_flash_cfi_dev*)flash_info;
  volatile alt_u8  value;

  (*flash->write_command)(flash->dev.base_addr, 0x555, (alt_u8)0xAA);
 10073fc:	88803317 	ldw	r2,204(r17)
 1007400:	21000a17 	ldw	r4,40(r4)
 * alt_erase_block_amd
 * 
 * Erase the selected erase block
 */
int alt_erase_block_amd(alt_flash_dev* flash_info, int block_offset)
{
 1007404:	dfc00415 	stw	ra,16(sp)
 1007408:	dc800315 	stw	r18,12(sp)
 100740c:	dc000115 	stw	r16,4(sp)
 1007410:	2825883a 	mov	r18,r5
  int   ret_code = 0;
  int   timeout;
  alt_flash_cfi_dev* flash = (alt_flash_cfi_dev*)flash_info;
  volatile alt_u8  value;

  (*flash->write_command)(flash->dev.base_addr, 0x555, (alt_u8)0xAA);
 1007414:	01802a84 	movi	r6,170
 1007418:	01415544 	movi	r5,1365
 100741c:	103ee83a 	callr	r2
  (*flash->write_command)(flash->dev.base_addr, 0x2AA, (alt_u8)0x55);
 1007420:	89000a17 	ldw	r4,40(r17)
 1007424:	88803317 	ldw	r2,204(r17)
 1007428:	0140aa84 	movi	r5,682
 100742c:	01801544 	movi	r6,85
 1007430:	103ee83a 	callr	r2
  (*flash->write_command)(flash->dev.base_addr, 0x555, (alt_u8)0x80);
 1007434:	89000a17 	ldw	r4,40(r17)
 1007438:	88803317 	ldw	r2,204(r17)
 100743c:	01415544 	movi	r5,1365
 1007440:	01802004 	movi	r6,128
 1007444:	103ee83a 	callr	r2
  (*flash->write_command)(flash->dev.base_addr, 0x555, (alt_u8)0xAA);
 1007448:	89000a17 	ldw	r4,40(r17)
 100744c:	88803317 	ldw	r2,204(r17)
 1007450:	01415544 	movi	r5,1365
 1007454:	01802a84 	movi	r6,170
 1007458:	103ee83a 	callr	r2
  (*flash->write_command)(flash->dev.base_addr, 0x2AA, (alt_u8)0x55);
 100745c:	89000a17 	ldw	r4,40(r17)
 1007460:	88803317 	ldw	r2,204(r17)
 1007464:	01801544 	movi	r6,85
 1007468:	0140aa84 	movi	r5,682
 100746c:	103ee83a 	callr	r2

  (*flash->write_native)((alt_u8*)flash->dev.base_addr+block_offset, 0x30);
 1007470:	89000a17 	ldw	r4,40(r17)
 1007474:	88803517 	ldw	r2,212(r17)
 1007478:	01400c04 	movi	r5,48
 100747c:	9109883a 	add	r4,r18,r4
 1007480:	103ee83a 	callr	r2

  /*
   * Delay to meet AM29LV065D timing requirements
   */
  usleep(10000);
 1007484:	0109c404 	movi	r4,10000
 1007488:	1003c600 	call	1003c60 <usleep>
 100748c:	04000c84 	movi	r16,50
 1007490:	00000106 	br	1007498 <alt_erase_block_amd+0xa8>
  do 
  {
    value = IORD_8DIRECT((alt_u8*)flash->dev.base_addr + block_offset, 0);
    usleep(1000);
    timeout--;
  }while(!(value & 0x8) && (timeout > 0));
 1007494:	80000a26 	beq	r16,zero,10074c0 <alt_erase_block_amd+0xd0>
   * this last 50S
   */
  timeout = 50;   
  do 
  {
    value = IORD_8DIRECT((alt_u8*)flash->dev.base_addr + block_offset, 0);
 1007498:	88800a17 	ldw	r2,40(r17)
 100749c:	9085883a 	add	r2,r18,r2
 10074a0:	10c00023 	ldbuio	r3,0(r2)
    usleep(1000);
 10074a4:	0100fa04 	movi	r4,1000
   * this last 50S
   */
  timeout = 50;   
  do 
  {
    value = IORD_8DIRECT((alt_u8*)flash->dev.base_addr + block_offset, 0);
 10074a8:	d8c00005 	stb	r3,0(sp)
    usleep(1000);
 10074ac:	1003c600 	call	1003c60 <usleep>
    timeout--;
  }while(!(value & 0x8) && (timeout > 0));
 10074b0:	d8c00003 	ldbu	r3,0(sp)
  timeout = 50;   
  do 
  {
    value = IORD_8DIRECT((alt_u8*)flash->dev.base_addr + block_offset, 0);
    usleep(1000);
    timeout--;
 10074b4:	843fffc4 	addi	r16,r16,-1
  }while(!(value & 0x8) && (timeout > 0));
 10074b8:	18c0020c 	andi	r3,r3,8
 10074bc:	183ff526 	beq	r3,zero,1007494 <alt_erase_block_amd+0xa4>


  timeout = flash->erase_timeout;
 10074c0:	8c003117 	ldw	r16,196(r17)
  
  /*
   *  Bit 7 goes low until the block is erased if bit 5 goes to 
   *  1 it's an error
   */
  while (timeout > 0)
 10074c4:	04000616 	blt	zero,r16,10074e0 <alt_erase_block_amd+0xf0>
 10074c8:	00001f06 	br	1007548 <alt_erase_block_amd+0x158>
  {
    value = IORD_8DIRECT((alt_u8*)flash->dev.base_addr + block_offset, 0);
    if ((value & 0x80) || (value &0x20))
 10074cc:	d8800003 	ldbu	r2,0(sp)
 10074d0:	1080080c 	andi	r2,r2,32
 10074d4:	10000d1e 	bne	r2,zero,100750c <alt_erase_block_amd+0x11c>
    {
      break;
    }
    usleep(1000);
 10074d8:	1003c600 	call	1003c60 <usleep>
  
  /*
   *  Bit 7 goes low until the block is erased if bit 5 goes to 
   *  1 it's an error
   */
  while (timeout > 0)
 10074dc:	04001a0e 	bge	zero,r16,1007548 <alt_erase_block_amd+0x158>
  {
    value = IORD_8DIRECT((alt_u8*)flash->dev.base_addr + block_offset, 0);
 10074e0:	89400a17 	ldw	r5,40(r17)
 10074e4:	9145883a 	add	r2,r18,r5
 10074e8:	10c00023 	ldbuio	r3,0(r2)
    if ((value & 0x80) || (value &0x20))
    {
      break;
    }
    usleep(1000);
 10074ec:	0100fa04 	movi	r4,1000
   *  Bit 7 goes low until the block is erased if bit 5 goes to 
   *  1 it's an error
   */
  while (timeout > 0)
  {
    value = IORD_8DIRECT((alt_u8*)flash->dev.base_addr + block_offset, 0);
 10074f0:	d8c00005 	stb	r3,0(sp)
    if ((value & 0x80) || (value &0x20))
 10074f4:	d8800003 	ldbu	r2,0(sp)
    {
      break;
    }
    usleep(1000);
    timeout -= 1000;
 10074f8:	843f0604 	addi	r16,r16,-1000
   *  1 it's an error
   */
  while (timeout > 0)
  {
    value = IORD_8DIRECT((alt_u8*)flash->dev.base_addr + block_offset, 0);
    if ((value & 0x80) || (value &0x20))
 10074fc:	10803fcc 	andi	r2,r2,255
 1007500:	1080201c 	xori	r2,r2,128
 1007504:	10bfe004 	addi	r2,r2,-128
 1007508:	103ff00e 	bge	r2,zero,10074cc <alt_erase_block_amd+0xdc>
  {
    ret_code = -ETIMEDOUT;
  }
  else
  {
    value = IORD_8DIRECT((alt_u8*)flash->dev.base_addr + block_offset, 0);
 100750c:	9145883a 	add	r2,r18,r5
 1007510:	10c00023 	ldbuio	r3,0(r2)
 1007514:	d8c00005 	stb	r3,0(sp)
    if (!(value & 0x80))
 1007518:	d8800003 	ldbu	r2,0(sp)
 100751c:	10803fcc 	andi	r2,r2,255
 1007520:	1080201c 	xori	r2,r2,128
 1007524:	10bfe004 	addi	r2,r2,-128
 1007528:	10000e0e 	bge	r2,zero,1007564 <alt_erase_block_amd+0x174>
 100752c:	0005883a 	mov	r2,zero
      ret_code = -EIO;
    }
  }    
  
  return ret_code;
}
 1007530:	dfc00417 	ldw	ra,16(sp)
 1007534:	dc800317 	ldw	r18,12(sp)
 1007538:	dc400217 	ldw	r17,8(sp)
 100753c:	dc000117 	ldw	r16,4(sp)
 1007540:	dec00504 	addi	sp,sp,20
 1007544:	f800283a 	ret
    ret_code = -ETIMEDOUT;
  }
  else
  {
    value = IORD_8DIRECT((alt_u8*)flash->dev.base_addr + block_offset, 0);
    if (!(value & 0x80))
 1007548:	00bfe304 	movi	r2,-116
      ret_code = -EIO;
    }
  }    
  
  return ret_code;
}
 100754c:	dfc00417 	ldw	ra,16(sp)
 1007550:	dc800317 	ldw	r18,12(sp)
 1007554:	dc400217 	ldw	r17,8(sp)
 1007558:	dc000117 	ldw	r16,4(sp)
 100755c:	dec00504 	addi	sp,sp,20
 1007560:	f800283a 	ret
    ret_code = -ETIMEDOUT;
  }
  else
  {
    value = IORD_8DIRECT((alt_u8*)flash->dev.base_addr + block_offset, 0);
    if (!(value & 0x80))
 1007564:	00bffec4 	movi	r2,-5
 1007568:	003ff106 	br	1007530 <alt_erase_block_amd+0x140>

0100756c <alt_program_amd>:
 * then writes Addr, Data Addr, Data etc.
 */
int alt_program_amd(alt_flash_dev* flash_info, int block_offset, 
                int offset, const void* src_addr, 
                int length)
{
 100756c:	d8800017 	ldw	r2,0(sp)
  int ret_code = 0;
  alt_flash_cfi_dev* flash = (alt_flash_cfi_dev*)flash_info;
  
  
  ret_code = alt_flash_program_block( flash, offset, src_addr, length, 
 1007570:	300b883a 	mov	r5,r6
 1007574:	380d883a 	mov	r6,r7
 1007578:	100f883a 	mov	r7,r2
 100757c:	00804034 	movhi	r2,256
 1007580:	109d6304 	addi	r2,r2,30092
 1007584:	d8800015 	stw	r2,0(sp)
 1007588:	1003eb41 	jmpi	1003eb4 <alt_flash_program_block>

0100758c <alt_write_word_amd>:
}

static int alt_write_word_amd(  alt_flash_cfi_dev* flash, 
                                const int offset, 
                                const alt_u8* src_addr)
{
 100758c:	defffa04 	addi	sp,sp,-24
 1007590:	dc400215 	stw	r17,8(sp)
 1007594:	2023883a 	mov	r17,r4
  int ret_code = 0;
  alt_u8 value;
  (*flash->write_command)(flash->dev.base_addr, 0x555, (alt_u8)0xAA);
 1007598:	88803317 	ldw	r2,204(r17)
 100759c:	21000a17 	ldw	r4,40(r4)
}

static int alt_write_word_amd(  alt_flash_cfi_dev* flash, 
                                const int offset, 
                                const alt_u8* src_addr)
{
 10075a0:	dfc00515 	stw	ra,20(sp)
 10075a4:	dcc00415 	stw	r19,16(sp)
 10075a8:	dc800315 	stw	r18,12(sp)
 10075ac:	2827883a 	mov	r19,r5
 10075b0:	3025883a 	mov	r18,r6
 10075b4:	dc000115 	stw	r16,4(sp)
  int ret_code = 0;
  alt_u8 value;
  (*flash->write_command)(flash->dev.base_addr, 0x555, (alt_u8)0xAA);
 10075b8:	01415544 	movi	r5,1365
 10075bc:	01802a84 	movi	r6,170
 10075c0:	103ee83a 	callr	r2
  (*flash->write_command)(flash->dev.base_addr, 0x2AA, (alt_u8)0x55);
 10075c4:	89000a17 	ldw	r4,40(r17)
 10075c8:	88803317 	ldw	r2,204(r17)
 10075cc:	0140aa84 	movi	r5,682
 10075d0:	01801544 	movi	r6,85
 10075d4:	103ee83a 	callr	r2
  (*flash->write_command)(flash->dev.base_addr, 0x555, (alt_u8)0xA0);
 10075d8:	88803317 	ldw	r2,204(r17)
 10075dc:	89000a17 	ldw	r4,40(r17)
 10075e0:	01415544 	movi	r5,1365
 10075e4:	01802804 	movi	r6,160
 10075e8:	103ee83a 	callr	r2
  
  value = *src_addr;

  alt_write_value_to_flash(flash, offset, src_addr);
 10075ec:	900d883a 	mov	r6,r18
 10075f0:	8809883a 	mov	r4,r17
 10075f4:	980b883a 	mov	r5,r19
  alt_u8 value;
  (*flash->write_command)(flash->dev.base_addr, 0x555, (alt_u8)0xAA);
  (*flash->write_command)(flash->dev.base_addr, 0x2AA, (alt_u8)0x55);
  (*flash->write_command)(flash->dev.base_addr, 0x555, (alt_u8)0xA0);
  
  value = *src_addr;
 10075f8:	94000003 	ldbu	r16,0(r18)

  alt_write_value_to_flash(flash, offset, src_addr);
 10075fc:	100408c0 	call	100408c <alt_write_value_to_flash>
int alt_wait_for_command_to_complete_amd(alt_flash_cfi_dev* flash,
                                         int offset, 
                                          alt_u8 data)
{
  volatile alt_u8  value;
  int timeout = flash->write_timeout * 100;
 1007600:	89403017 	ldw	r5,192(r17)
 1007604:	01001904 	movi	r4,100
 1007608:	1000cc40 	call	1000cc4 <__mulsi3>
  int ret_code = 0;
  
  value = IORD_8DIRECT(flash->dev.base_addr, offset);
 100760c:	89400a17 	ldw	r5,40(r17)
int alt_wait_for_command_to_complete_amd(alt_flash_cfi_dev* flash,
                                         int offset, 
                                          alt_u8 data)
{
  volatile alt_u8  value;
  int timeout = flash->write_timeout * 100;
 1007610:	1025883a 	mov	r18,r2
  int ret_code = 0;
  
  value = IORD_8DIRECT(flash->dev.base_addr, offset);
 1007614:	9945883a 	add	r2,r19,r5
 1007618:	10c00023 	ldbuio	r3,0(r2)
 100761c:	d8c00005 	stb	r3,0(sp)
  while (timeout > 0)
 1007620:	04802b0e 	bge	zero,r18,10076d0 <alt_write_word_amd+0x144>
  {
    if (((value & 0x80 ) == (data &0x80)) ||
 1007624:	d8800003 	ldbu	r2,0(sp)
 1007628:	8400200c 	andi	r16,r16,128
 100762c:	1080200c 	andi	r2,r2,128
 1007630:	14000c1e 	bne	r2,r16,1007664 <alt_write_word_amd+0xd8>
 1007634:	00000e06 	br	1007670 <alt_write_word_amd+0xe4>
        (value & 0x20))
    {
      break;
    }
    usleep (1);
 1007638:	01000044 	movi	r4,1
 100763c:	1003c600 	call	1003c60 <usleep>
    timeout--;
    value = IORD_8DIRECT(flash->dev.base_addr, offset);
 1007640:	89400a17 	ldw	r5,40(r17)
        (value & 0x20))
    {
      break;
    }
    usleep (1);
    timeout--;
 1007644:	94bfffc4 	addi	r18,r18,-1
    value = IORD_8DIRECT(flash->dev.base_addr, offset);
 1007648:	9945883a 	add	r2,r19,r5
 100764c:	10c00023 	ldbuio	r3,0(r2)
 1007650:	d8c00005 	stb	r3,0(sp)
  volatile alt_u8  value;
  int timeout = flash->write_timeout * 100;
  int ret_code = 0;
  
  value = IORD_8DIRECT(flash->dev.base_addr, offset);
  while (timeout > 0)
 1007654:	90001426 	beq	r18,zero,10076a8 <alt_write_word_amd+0x11c>
  {
    if (((value & 0x80 ) == (data &0x80)) ||
 1007658:	d8800003 	ldbu	r2,0(sp)
 100765c:	1080200c 	andi	r2,r2,128
 1007660:	14000326 	beq	r2,r16,1007670 <alt_write_word_amd+0xe4>
 1007664:	d8800003 	ldbu	r2,0(sp)
 1007668:	1080080c 	andi	r2,r2,32
 100766c:	103ff226 	beq	r2,zero,1007638 <alt_write_word_amd+0xac>
  {
    ret_code = -ETIMEDOUT;
  }
  else
  {
    value = IORD_8DIRECT(flash->dev.base_addr, offset);
 1007670:	9945883a 	add	r2,r19,r5
 1007674:	10c00023 	ldbuio	r3,0(r2)
 1007678:	d8c00005 	stb	r3,0(sp)
    if ((value & 0x80) != (data&0x80))
 100767c:	d8800003 	ldbu	r2,0(sp)
 1007680:	1080200c 	andi	r2,r2,128
 1007684:	8080101e 	bne	r16,r2,10076c8 <alt_write_word_amd+0x13c>
 1007688:	0005883a 	mov	r2,zero
  ret_code = alt_wait_for_command_to_complete_amd(flash, 
                                                  offset,
                                                  value);
  return ret_code;
  
}
 100768c:	dfc00517 	ldw	ra,20(sp)
 1007690:	dcc00417 	ldw	r19,16(sp)
 1007694:	dc800317 	ldw	r18,12(sp)
 1007698:	dc400217 	ldw	r17,8(sp)
 100769c:	dc000117 	ldw	r16,4(sp)
 10076a0:	dec00604 	addi	sp,sp,24
 10076a4:	f800283a 	ret
    ret_code = -ETIMEDOUT;
  }
  else
  {
    value = IORD_8DIRECT(flash->dev.base_addr, offset);
    if ((value & 0x80) != (data&0x80))
 10076a8:	00bfe304 	movi	r2,-116
  ret_code = alt_wait_for_command_to_complete_amd(flash, 
                                                  offset,
                                                  value);
  return ret_code;
  
}
 10076ac:	dfc00517 	ldw	ra,20(sp)
 10076b0:	dcc00417 	ldw	r19,16(sp)
 10076b4:	dc800317 	ldw	r18,12(sp)
 10076b8:	dc400217 	ldw	r17,8(sp)
 10076bc:	dc000117 	ldw	r16,4(sp)
 10076c0:	dec00604 	addi	sp,sp,24
 10076c4:	f800283a 	ret
    ret_code = -ETIMEDOUT;
  }
  else
  {
    value = IORD_8DIRECT(flash->dev.base_addr, offset);
    if ((value & 0x80) != (data&0x80))
 10076c8:	00bffec4 	movi	r2,-5
 10076cc:	003fef06 	br	100768c <alt_write_word_amd+0x100>
    usleep (1);
    timeout--;
    value = IORD_8DIRECT(flash->dev.base_addr, offset);
  }
  
  if (timeout == 0)
 10076d0:	903ff526 	beq	r18,zero,10076a8 <alt_write_word_amd+0x11c>
 10076d4:	8400200c 	andi	r16,r16,128
 10076d8:	003fe506 	br	1007670 <alt_write_word_amd+0xe4>

010076dc <alt_unlock_block_intel>:
/*
* Private Intel specific functions
*/

static int alt_unlock_block_intel(alt_flash_cfi_dev* flash, int block_offset)
{
 10076dc:	defffb04 	addi	sp,sp,-20
 10076e0:	dc000015 	stw	r16,0(sp)
 10076e4:	2021883a 	mov	r16,r4


  /*
  * Is this block locked?
  */
  flash->write_native((alt_u8*)flash->dev.base_addr + block_offset, 0x90);
 10076e8:	21000a17 	ldw	r4,40(r4)
 10076ec:	80803517 	ldw	r2,212(r16)
/*
* Private Intel specific functions
*/

static int alt_unlock_block_intel(alt_flash_cfi_dev* flash, int block_offset)
{
 10076f0:	dcc00315 	stw	r19,12(sp)
 10076f4:	dc800215 	stw	r18,8(sp)
 10076f8:	dc400115 	stw	r17,4(sp)
 10076fc:	2825883a 	mov	r18,r5


  /*
  * Is this block locked?
  */
  flash->write_native((alt_u8*)flash->dev.base_addr + block_offset, 0x90);
 1007700:	2909883a 	add	r4,r5,r4
/*
* Private Intel specific functions
*/

static int alt_unlock_block_intel(alt_flash_cfi_dev* flash, int block_offset)
{
 1007704:	dfc00415 	stw	ra,16(sp)


  /*
  * Is this block locked?
  */
  flash->write_native((alt_u8*)flash->dev.base_addr + block_offset, 0x90);
 1007708:	01402404 	movi	r5,144
static int alt_unlock_block_intel(alt_flash_cfi_dev* flash, int block_offset)
{
  alt_u8  locked;
  alt_u8  status;
  int ret_code = 0;
  int timeout = flash->write_timeout * 100;
 100770c:	84c03017 	ldw	r19,192(r16)


  /*
  * Is this block locked?
  */
  flash->write_native((alt_u8*)flash->dev.base_addr + block_offset, 0x90);
 1007710:	103ee83a 	callr	r2
  locked = IORD_8DIRECT(flash->dev.base_addr, block_offset + 4);
 1007714:	81400a17 	ldw	r5,40(r16)
 1007718:	9163883a 	add	r17,r18,r5
 100771c:	88800123 	ldbuio	r2,4(r17)
  if (locked & 0x1)
 1007720:	1080004c 	andi	r2,r2,1
 1007724:	1005003a 	cmpeq	r2,r2,zero
 1007728:	10000d26 	beq	r2,zero,1007760 <alt_unlock_block_intel+0x84>

    if (timeout == 0)
    {
      ret_code = -ETIMEDOUT;
    }
    else if (status & 0x7f)
 100772c:	0023883a 	mov	r17,zero
  }

  /*
  * Back to Read Array mode
  */
  flash->write_native((alt_u8*)flash->dev.base_addr + block_offset, 0xFF);
 1007730:	80803517 	ldw	r2,212(r16)
 1007734:	9149883a 	add	r4,r18,r5
 1007738:	01403fc4 	movi	r5,255
 100773c:	103ee83a 	callr	r2

  return ret_code;
}
 1007740:	8805883a 	mov	r2,r17
 1007744:	dfc00417 	ldw	ra,16(sp)
 1007748:	dcc00317 	ldw	r19,12(sp)
 100774c:	dc800217 	ldw	r18,8(sp)
 1007750:	dc400117 	ldw	r17,4(sp)
 1007754:	dc000017 	ldw	r16,0(sp)
 1007758:	dec00504 	addi	sp,sp,20
 100775c:	f800283a 	ret
static int alt_unlock_block_intel(alt_flash_cfi_dev* flash, int block_offset)
{
  alt_u8  locked;
  alt_u8  status;
  int ret_code = 0;
  int timeout = flash->write_timeout * 100;
 1007760:	9809883a 	mov	r4,r19
 1007764:	01401904 	movi	r5,100
 1007768:	1000cc40 	call	1000cc4 <__mulsi3>
 100776c:	1027883a 	mov	r19,r2
  */
  flash->write_native((alt_u8*)flash->dev.base_addr + block_offset, 0x90);
  locked = IORD_8DIRECT(flash->dev.base_addr, block_offset + 4);
  if (locked & 0x1)
  {
    flash->write_native((alt_u8*)flash->dev.base_addr + block_offset, 0x60);
 1007770:	80803517 	ldw	r2,212(r16)
 1007774:	8809883a 	mov	r4,r17
 1007778:	01401804 	movi	r5,96
 100777c:	103ee83a 	callr	r2
    flash->write_native((alt_u8*)flash->dev.base_addr + block_offset, 0xD0);
 1007780:	81000a17 	ldw	r4,40(r16)
 1007784:	80803517 	ldw	r2,212(r16)
 1007788:	01403404 	movi	r5,208
 100778c:	9109883a 	add	r4,r18,r4
 1007790:	103ee83a 	callr	r2

    do
    {
      status = IORD_8DIRECT(flash->dev.base_addr, block_offset);
 1007794:	81400a17 	ldw	r5,40(r16)
 1007798:	9145883a 	add	r2,r18,r5
 100779c:	10c00023 	ldbuio	r3,0(r2)
      if (status & 0x80)
      {
        break;
      }
      timeout--;
      usleep(1);
 10077a0:	01000044 	movi	r4,1
    flash->write_native((alt_u8*)flash->dev.base_addr + block_offset, 0xD0);

    do
    {
      status = IORD_8DIRECT(flash->dev.base_addr, block_offset);
      if (status & 0x80)
 10077a4:	18803fcc 	andi	r2,r3,255
 10077a8:	1080201c 	xori	r2,r2,128
 10077ac:	10bfe004 	addi	r2,r2,-128
    flash->write_native((alt_u8*)flash->dev.base_addr + block_offset, 0x60);
    flash->write_native((alt_u8*)flash->dev.base_addr + block_offset, 0xD0);

    do
    {
      status = IORD_8DIRECT(flash->dev.base_addr, block_offset);
 10077b0:	1823883a 	mov	r17,r3
      if (status & 0x80)
 10077b4:	10000416 	blt	r2,zero,10077c8 <alt_unlock_block_intel+0xec>
      {
        break;
      }
      timeout--;
 10077b8:	9cffffc4 	addi	r19,r19,-1
      usleep(1);
 10077bc:	1003c600 	call	1003c60 <usleep>
    }while(timeout > 0);
 10077c0:	04fff416 	blt	zero,r19,1007794 <alt_unlock_block_intel+0xb8>
 10077c4:	81400a17 	ldw	r5,40(r16)

    if (timeout == 0)
 10077c8:	98000426 	beq	r19,zero,10077dc <alt_unlock_block_intel+0x100>
    {
      ret_code = -ETIMEDOUT;
    }
    else if (status & 0x7f)
 10077cc:	88801fcc 	andi	r2,r17,127
 10077d0:	103fd626 	beq	r2,zero,100772c <alt_unlock_block_intel+0x50>
 10077d4:	047ffec4 	movi	r17,-5
 10077d8:	003fd506 	br	1007730 <alt_unlock_block_intel+0x54>
      }
      timeout--;
      usleep(1);
    }while(timeout > 0);

    if (timeout == 0)
 10077dc:	047fe304 	movi	r17,-116
 10077e0:	003fd306 	br	1007730 <alt_unlock_block_intel+0x54>

010077e4 <alt_erase_block_intel>:
 * alt_erase_block_intel
 * 
 * Erase the selected erase block
 */
int alt_erase_block_intel(alt_flash_dev* flash_info, int block_offset)
{
 10077e4:	defffa04 	addi	sp,sp,-24
 10077e8:	dcc00415 	stw	r19,16(sp)
 10077ec:	dc800315 	stw	r18,12(sp)
 10077f0:	dc400215 	stw	r17,8(sp)
 10077f4:	dc000115 	stw	r16,4(sp)
 10077f8:	dfc00515 	stw	ra,20(sp)
 10077fc:	2023883a 	mov	r17,r4
 1007800:	2825883a 	mov	r18,r5
  int   ret_code = 0;
  alt_flash_cfi_dev* flash = (alt_flash_cfi_dev*)flash_info;
  volatile alt_u8  status;
  int   timeout = flash->erase_timeout;
 1007804:	24003117 	ldw	r16,196(r4)

  /*
  * If this block is locked then unlock it
  */
  ret_code = alt_unlock_block_intel(flash, block_offset);
 1007808:	10076dc0 	call	10076dc <alt_unlock_block_intel>
 100780c:	1027883a 	mov	r19,r2

  if (!ret_code)
 1007810:	10000826 	beq	r2,zero,1007834 <alt_erase_block_intel+0x50>
    /* Put the device back into read array mode */
    flash->write_native((alt_u8*)flash->dev.base_addr + block_offset, 0xFF);
  }
  
  return ret_code;
}
 1007814:	9805883a 	mov	r2,r19
 1007818:	dfc00517 	ldw	ra,20(sp)
 100781c:	dcc00417 	ldw	r19,16(sp)
 1007820:	dc800317 	ldw	r18,12(sp)
 1007824:	dc400217 	ldw	r17,8(sp)
 1007828:	dc000117 	ldw	r16,4(sp)
 100782c:	dec00604 	addi	sp,sp,24
 1007830:	f800283a 	ret
  ret_code = alt_unlock_block_intel(flash, block_offset);

  if (!ret_code)
  {

    flash->write_native((alt_u8*)flash->dev.base_addr + block_offset, 0x20);
 1007834:	89000a17 	ldw	r4,40(r17)
 1007838:	88803517 	ldw	r2,212(r17)
 100783c:	01400804 	movi	r5,32
 1007840:	9109883a 	add	r4,r18,r4
 1007844:	103ee83a 	callr	r2
    flash->write_native((alt_u8*)flash->dev.base_addr + block_offset, 0xD0);
 1007848:	89000a17 	ldw	r4,40(r17)
 100784c:	88803517 	ldw	r2,212(r17)
 1007850:	01403404 	movi	r5,208
 1007854:	9109883a 	add	r4,r18,r4
 1007858:	103ee83a 	callr	r2

    do
    {
      status = IORD_8DIRECT(flash->dev.base_addr, block_offset);
 100785c:	89400a17 	ldw	r5,40(r17)
 1007860:	914d883a 	add	r6,r18,r5
 1007864:	30c00023 	ldbuio	r3,0(r6)
      if (status & 0x80)
      {
        break;
      }
      usleep(1000);
 1007868:	0100fa04 	movi	r4,1000
    flash->write_native((alt_u8*)flash->dev.base_addr + block_offset, 0x20);
    flash->write_native((alt_u8*)flash->dev.base_addr + block_offset, 0xD0);

    do
    {
      status = IORD_8DIRECT(flash->dev.base_addr, block_offset);
 100786c:	d8c00005 	stb	r3,0(sp)
      if (status & 0x80)
 1007870:	d8800003 	ldbu	r2,0(sp)
 1007874:	10803fcc 	andi	r2,r2,255
 1007878:	1080201c 	xori	r2,r2,128
 100787c:	10bfe004 	addi	r2,r2,-128
 1007880:	10001116 	blt	r2,zero,10078c8 <alt_erase_block_intel+0xe4>
      {
        break;
      }
      usleep(1000);
      timeout -= 1000;
 1007884:	843f0604 	addi	r16,r16,-1000
      status = IORD_8DIRECT(flash->dev.base_addr, block_offset);
      if (status & 0x80)
      {
        break;
      }
      usleep(1000);
 1007888:	1003c600 	call	1003c60 <usleep>
      timeout -= 1000;
    }while(timeout > 0);
 100788c:	043ff316 	blt	zero,r16,100785c <alt_erase_block_intel+0x78>
 1007890:	89400a17 	ldw	r5,40(r17)
    }
    else if (status & 0x7f)
    {
      /* If we have an error of some kind bomb out */
      ret_code = -EIO;
      status = IORD_8DIRECT(flash->dev.base_addr, block_offset);
 1007894:	04ffe304 	movi	r19,-116
    }

    /* Put the device back into read array mode */
    flash->write_native((alt_u8*)flash->dev.base_addr + block_offset, 0xFF);
 1007898:	88803517 	ldw	r2,212(r17)
 100789c:	9149883a 	add	r4,r18,r5
 10078a0:	01403fc4 	movi	r5,255
 10078a4:	103ee83a 	callr	r2
  }
  
  return ret_code;
}
 10078a8:	9805883a 	mov	r2,r19
 10078ac:	dfc00517 	ldw	ra,20(sp)
 10078b0:	dcc00417 	ldw	r19,16(sp)
 10078b4:	dc800317 	ldw	r18,12(sp)
 10078b8:	dc400217 	ldw	r17,8(sp)
 10078bc:	dc000117 	ldw	r16,4(sp)
 10078c0:	dec00604 	addi	sp,sp,24
 10078c4:	f800283a 	ret
      }
      usleep(1000);
      timeout -= 1000;
    }while(timeout > 0);
    
    if (timeout <= 0)
 10078c8:	043ff20e 	bge	zero,r16,1007894 <alt_erase_block_intel+0xb0>
    {
      ret_code = -ETIMEDOUT;
    }
    else if (status & 0x7f)
 10078cc:	d8800003 	ldbu	r2,0(sp)
 10078d0:	10801fcc 	andi	r2,r2,127
 10078d4:	103ff026 	beq	r2,zero,1007898 <alt_erase_block_intel+0xb4>
    {
      /* If we have an error of some kind bomb out */
      ret_code = -EIO;
      status = IORD_8DIRECT(flash->dev.base_addr, block_offset);
 10078d8:	30800023 	ldbuio	r2,0(r6)
 10078dc:	04fffec4 	movi	r19,-5
 10078e0:	d8800005 	stb	r2,0(sp)
 10078e4:	003fec06 	br	1007898 <alt_erase_block_intel+0xb4>

010078e8 <alt_program_intel>:
 * Program a block (or part of one)
 */
int alt_program_intel(alt_flash_dev* flash_info, int block_offset, 
                int offset, const void* src_addr, 
                int length)
{
 10078e8:	defffb04 	addi	sp,sp,-20
 10078ec:	dd400215 	stw	r21,8(sp)
 10078f0:	dd400517 	ldw	r21,20(sp)
 10078f4:	ddc00315 	stw	r23,12(sp)
 10078f8:	dcc00115 	stw	r19,4(sp)
 10078fc:	302f883a 	mov	r23,r6
 1007900:	dc400015 	stw	r17,0(sp)
 1007904:	2027883a 	mov	r19,r4
 1007908:	3823883a 	mov	r17,r7
 100790c:	dfc00415 	stw	ra,16(sp)
  alt_flash_cfi_dev* flash = (alt_flash_cfi_dev*)flash_info;
  
   /*
  * If this block is locked then unlock it
  */
  ret_code = alt_unlock_block_intel(flash, block_offset);
 1007910:	10076dc0 	call	10076dc <alt_unlock_block_intel>

  if (!ret_code)
  {

    ret_code = alt_flash_program_block( flash, offset, src_addr, length, 
 1007914:	880d883a 	mov	r6,r17
 1007918:	9809883a 	mov	r4,r19
 100791c:	b80b883a 	mov	r5,r23
 1007920:	a80f883a 	mov	r7,r21
   /*
  * If this block is locked then unlock it
  */
  ret_code = alt_unlock_block_intel(flash, block_offset);

  if (!ret_code)
 1007924:	10000726 	beq	r2,zero,1007944 <alt_program_intel+0x5c>
    ret_code = alt_flash_program_block( flash, offset, src_addr, length, 
                                        alt_write_word_intel);
  }
  
  return ret_code;
}
 1007928:	dfc00417 	ldw	ra,16(sp)
 100792c:	ddc00317 	ldw	r23,12(sp)
 1007930:	dd400217 	ldw	r21,8(sp)
 1007934:	dcc00117 	ldw	r19,4(sp)
 1007938:	dc400017 	ldw	r17,0(sp)
 100793c:	dec00504 	addi	sp,sp,20
 1007940:	f800283a 	ret
  ret_code = alt_unlock_block_intel(flash, block_offset);

  if (!ret_code)
  {

    ret_code = alt_flash_program_block( flash, offset, src_addr, length, 
 1007944:	00804034 	movhi	r2,256
 1007948:	109e5b04 	addi	r2,r2,31084
 100794c:	d8800515 	stw	r2,20(sp)
                                        alt_write_word_intel);
  }
  
  return ret_code;
}
 1007950:	dfc00417 	ldw	ra,16(sp)
 1007954:	ddc00317 	ldw	r23,12(sp)
 1007958:	dd400217 	ldw	r21,8(sp)
 100795c:	dcc00117 	ldw	r19,4(sp)
 1007960:	dc400017 	ldw	r17,0(sp)
 1007964:	dec00504 	addi	sp,sp,20
  ret_code = alt_unlock_block_intel(flash, block_offset);

  if (!ret_code)
  {

    ret_code = alt_flash_program_block( flash, offset, src_addr, length, 
 1007968:	1003eb41 	jmpi	1003eb4 <alt_flash_program_block>

0100796c <alt_write_word_intel>:
 * offset bytes into the flash
 */
 
int alt_write_word_intel( alt_flash_cfi_dev* flash, 
                                  const int offset, const alt_u8* src_addr)
{ 
 100796c:	defffc04 	addi	sp,sp,-16
 1007970:	dc000015 	stw	r16,0(sp)
 1007974:	2021883a 	mov	r16,r4
  int ret_code = 0;
  alt_u8 status;
  (*flash->write_native)((alt_u8*)flash->dev.base_addr+offset, 0x40);
 1007978:	21000a17 	ldw	r4,40(r4)
 100797c:	80803517 	ldw	r2,212(r16)
 * offset bytes into the flash
 */
 
int alt_write_word_intel( alt_flash_cfi_dev* flash, 
                                  const int offset, const alt_u8* src_addr)
{ 
 1007980:	dfc00315 	stw	ra,12(sp)
  int ret_code = 0;
  alt_u8 status;
  (*flash->write_native)((alt_u8*)flash->dev.base_addr+offset, 0x40);
 1007984:	2909883a 	add	r4,r5,r4
 * offset bytes into the flash
 */
 
int alt_write_word_intel( alt_flash_cfi_dev* flash, 
                                  const int offset, const alt_u8* src_addr)
{ 
 1007988:	dc800215 	stw	r18,8(sp)
 100798c:	dc400115 	stw	r17,4(sp)
 1007990:	2825883a 	mov	r18,r5
  int ret_code = 0;
  alt_u8 status;
  (*flash->write_native)((alt_u8*)flash->dev.base_addr+offset, 0x40);
 1007994:	01401004 	movi	r5,64
 * offset bytes into the flash
 */
 
int alt_write_word_intel( alt_flash_cfi_dev* flash, 
                                  const int offset, const alt_u8* src_addr)
{ 
 1007998:	3023883a 	mov	r17,r6
  int ret_code = 0;
  alt_u8 status;
  (*flash->write_native)((alt_u8*)flash->dev.base_addr+offset, 0x40);
 100799c:	103ee83a 	callr	r2
  alt_write_value_to_flash(flash, offset, src_addr);
 10079a0:	880d883a 	mov	r6,r17
 10079a4:	8009883a 	mov	r4,r16
 10079a8:	900b883a 	mov	r5,r18
 10079ac:	100408c0 	call	100408c <alt_write_value_to_flash>
 10079b0:	81400a17 	ldw	r5,40(r16)
 10079b4:	9149883a 	add	r4,r18,r5

  do
  {
    status = IORD_8DIRECT(flash->dev.base_addr, offset);
 10079b8:	20800023 	ldbuio	r2,0(r4)
  }while(!(status & 0x80));
 10079bc:	10c03fcc 	andi	r3,r2,255
 10079c0:	18c0201c 	xori	r3,r3,128
 10079c4:	18ffe004 	addi	r3,r3,-128
 10079c8:	183ffb0e 	bge	r3,zero,10079b8 <alt_write_word_intel+0x4c>

  /* If we have an error of some kind bomb out */
  if (status & 0x7f)
 10079cc:	10801fcc 	andi	r2,r2,127
 10079d0:	10000c1e 	bne	r2,zero,1007a04 <alt_write_word_intel+0x98>
 10079d4:	0023883a 	mov	r17,zero
  {
    ret_code = -EIO;
  }

  /* Put the device back into read array mode */
  flash->write_native((alt_u8*)flash->dev.base_addr + offset, 0xFF);
 10079d8:	80803517 	ldw	r2,212(r16)
 10079dc:	9149883a 	add	r4,r18,r5
 10079e0:	01403fc4 	movi	r5,255
 10079e4:	103ee83a 	callr	r2
  
  return ret_code;
}
 10079e8:	8805883a 	mov	r2,r17
 10079ec:	dfc00317 	ldw	ra,12(sp)
 10079f0:	dc800217 	ldw	r18,8(sp)
 10079f4:	dc400117 	ldw	r17,4(sp)
 10079f8:	dc000017 	ldw	r16,0(sp)
 10079fc:	dec00404 	addi	sp,sp,16
 1007a00:	f800283a 	ret
  {
    status = IORD_8DIRECT(flash->dev.base_addr, offset);
  }while(!(status & 0x80));

  /* If we have an error of some kind bomb out */
  if (status & 0x7f)
 1007a04:	047ffec4 	movi	r17,-5
 1007a08:	003ff306 	br	10079d8 <alt_write_word_intel+0x6c>

01007a0c <alt_avalon_spi_command>:

int alt_avalon_spi_command(alt_u32 base, alt_u32 slave,
                           alt_u32 write_length, const alt_u8 * write_data,
                           alt_u32 read_length, alt_u8 * read_data,
                           alt_u32 flags)
{
 1007a0c:	deffff04 	addi	sp,sp,-4
 1007a10:	dbc00117 	ldw	r15,4(sp)
 1007a14:	da800217 	ldw	r10,8(sp)
  /* Warning: this function is not currently safe if called in a multi-threaded
   * environment, something above must perform locking to make it safe if more
   * than one thread intends to use it.
   */

  IOWR_ALTERA_AVALON_SPI_SLAVE_SEL(base, 1 << slave);
 1007a18:	00c00044 	movi	r3,1

int alt_avalon_spi_command(alt_u32 base, alt_u32 slave,
                           alt_u32 write_length, const alt_u8 * write_data,
                           alt_u32 read_length, alt_u8 * read_data,
                           alt_u32 flags)
{
 1007a1c:	dc000015 	stw	r16,0(sp)
  /* Warning: this function is not currently safe if called in a multi-threaded
   * environment, something above must perform locking to make it safe if more
   * than one thread intends to use it.
   */

  IOWR_ALTERA_AVALON_SPI_SLAVE_SEL(base, 1 << slave);
 1007a20:	194a983a 	sll	r5,r3,r5

int alt_avalon_spi_command(alt_u32 base, alt_u32 slave,
                           alt_u32 write_length, const alt_u8 * write_data,
                           alt_u32 read_length, alt_u8 * read_data,
                           alt_u32 flags)
{
 1007a24:	dc000317 	ldw	r16,12(sp)
  const alt_u8 * write_end = write_data + write_length;
 1007a28:	31db883a 	add	r13,r6,r7
  alt_u8 * read_end = read_data + read_length;
 1007a2c:	7a9d883a 	add	r14,r15,r10
  /* Warning: this function is not currently safe if called in a multi-threaded
   * environment, something above must perform locking to make it safe if more
   * than one thread intends to use it.
   */

  IOWR_ALTERA_AVALON_SPI_SLAVE_SEL(base, 1 << slave);
 1007a30:	21400535 	stwio	r5,20(r4)
  
  /* Set the SSO bit (force chipselect) only if the toggle flag is not set */
  if ((flags & ALT_AVALON_SPI_COMMAND_TOGGLE_SS_N) == 0) {
 1007a34:	8080008c 	andi	r2,r16,2
 1007a38:	10003a26 	beq	r2,zero,1007b24 <alt_avalon_spi_command+0x118>
  /*
   * Discard any stale data present in the RXDATA register, in case
   * previous communication was interrupted and stale data was left
   * behind.
   */
  IORD_ALTERA_AVALON_SPI_RXDATA(base);
 1007a3c:	20800037 	ldwio	r2,0(r4)
 1007a40:	180b883a 	mov	r5,r3
 1007a44:	22c00204 	addi	r11,r4,8
 1007a48:	7819883a 	mov	r12,r15
 1007a4c:	3013003a 	cmpeq	r9,r6,zero
  for ( ; ; )
  {
    
    do
    {
      status = IORD_ALTERA_AVALON_SPI_STATUS(base);
 1007a50:	58c00037 	ldwio	r3,0(r11)
    }
    while (((status & ALTERA_AVALON_SPI_STATUS_TRDY_MSK) == 0 || credits == 0) &&
            (status & ALTERA_AVALON_SPI_STATUS_RRDY_MSK) == 0);
 1007a54:	1880100c 	andi	r2,r3,64
 1007a58:	1011003a 	cmpeq	r8,r2,zero
 1007a5c:	4000161e 	bne	r8,zero,1007ab8 <alt_avalon_spi_command+0xac>
 1007a60:	28001526 	beq	r5,zero,1007ab8 <alt_avalon_spi_command+0xac>
 1007a64:	1880200c 	andi	r2,r3,128
 1007a68:	1007003a 	cmpeq	r3,r2,zero

    if ((status & ALTERA_AVALON_SPI_STATUS_TRDY_MSK) != 0 && credits > 0)
 1007a6c:	0140040e 	bge	zero,r5,1007a80 <alt_avalon_spi_command+0x74>
    {
      credits--;
 1007a70:	297fffc4 	addi	r5,r5,-1

      if (write_data < write_end)
 1007a74:	3b402436 	bltu	r7,r13,1007b08 <alt_avalon_spi_command+0xfc>
        IOWR_ALTERA_AVALON_SPI_TXDATA(base, *write_data++);
      else if (write_zeros > 0)
 1007a78:	6000271e 	bne	r12,zero,1007b18 <alt_avalon_spi_command+0x10c>
 1007a7c:	017f0004 	movi	r5,-1024
      }
      else
        credits = -1024;
    };

    if ((status & ALTERA_AVALON_SPI_STATUS_RRDY_MSK) != 0)
 1007a80:	183ff31e 	bne	r3,zero,1007a50 <alt_avalon_spi_command+0x44>
    {
      alt_u32 rxdata = IORD_ALTERA_AVALON_SPI_RXDATA(base);
 1007a84:	20800037 	ldwio	r2,0(r4)

      if (read_ignore > 0)
 1007a88:	4800111e 	bne	r9,zero,1007ad0 <alt_avalon_spi_command+0xc4>
        read_ignore--;
 1007a8c:	31bfffc4 	addi	r6,r6,-1
      else
        *read_data++ = (alt_u8)rxdata;
      credits++;

      if (read_ignore == 0 && read_data == read_end)
 1007a90:	3013003a 	cmpeq	r9,r6,zero

      if (read_ignore > 0)
        read_ignore--;
      else
        *read_data++ = (alt_u8)rxdata;
      credits++;
 1007a94:	29400044 	addi	r5,r5,1

      if (read_ignore == 0 && read_data == read_end)
 1007a98:	483fed26 	beq	r9,zero,1007a50 <alt_avalon_spi_command+0x44>
 1007a9c:	72801026 	beq	r14,r10,1007ae0 <alt_avalon_spi_command+0xd4>
  /*
   * Discard any stale data present in the RXDATA register, in case
   * previous communication was interrupted and stale data was left
   * behind.
   */
  IORD_ALTERA_AVALON_SPI_RXDATA(base);
 1007aa0:	000d883a 	mov	r6,zero
 1007aa4:	02400044 	movi	r9,1
  for ( ; ; )
  {
    
    do
    {
      status = IORD_ALTERA_AVALON_SPI_STATUS(base);
 1007aa8:	58c00037 	ldwio	r3,0(r11)
    }
    while (((status & ALTERA_AVALON_SPI_STATUS_TRDY_MSK) == 0 || credits == 0) &&
            (status & ALTERA_AVALON_SPI_STATUS_RRDY_MSK) == 0);
 1007aac:	1880100c 	andi	r2,r3,64
 1007ab0:	1011003a 	cmpeq	r8,r2,zero
 1007ab4:	403fea26 	beq	r8,zero,1007a60 <alt_avalon_spi_command+0x54>
 1007ab8:	1880200c 	andi	r2,r3,128
 1007abc:	1007003a 	cmpeq	r3,r2,zero
 1007ac0:	183fe31e 	bne	r3,zero,1007a50 <alt_avalon_spi_command+0x44>

    if ((status & ALTERA_AVALON_SPI_STATUS_TRDY_MSK) != 0 && credits > 0)
 1007ac4:	403fe926 	beq	r8,zero,1007a6c <alt_avalon_spi_command+0x60>
        credits = -1024;
    };

    if ((status & ALTERA_AVALON_SPI_STATUS_RRDY_MSK) != 0)
    {
      alt_u32 rxdata = IORD_ALTERA_AVALON_SPI_RXDATA(base);
 1007ac8:	20800037 	ldwio	r2,0(r4)

      if (read_ignore > 0)
 1007acc:	483fef26 	beq	r9,zero,1007a8c <alt_avalon_spi_command+0x80>
        read_ignore--;
      else
        *read_data++ = (alt_u8)rxdata;
 1007ad0:	50800005 	stb	r2,0(r10)
 1007ad4:	52800044 	addi	r10,r10,1
      credits++;
 1007ad8:	29400044 	addi	r5,r5,1

      if (read_ignore == 0 && read_data == read_end)
 1007adc:	72bff01e 	bne	r14,r10,1007aa0 <alt_avalon_spi_command+0x94>
  }

  /* Wait until the interface has finished transmitting */
  do
  {
    status = IORD_ALTERA_AVALON_SPI_STATUS(base);
 1007ae0:	58800037 	ldwio	r2,0(r11)
  }
  while ((status & ALTERA_AVALON_SPI_STATUS_TMT_MSK) == 0);
 1007ae4:	1080080c 	andi	r2,r2,32
 1007ae8:	103ffd26 	beq	r2,zero,1007ae0 <alt_avalon_spi_command+0xd4>

  /* Clear SSO (release chipselect) unless the caller is going to
   * keep using this chip
   */
  if ((flags & ALT_AVALON_SPI_COMMAND_MERGE) == 0)
 1007aec:	8080004c 	andi	r2,r16,1
 1007af0:	1000011e 	bne	r2,zero,1007af8 <alt_avalon_spi_command+0xec>
    IOWR_ALTERA_AVALON_SPI_CONTROL(base, 0);
 1007af4:	20000335 	stwio	zero,12(r4)

  return read_length;
}
 1007af8:	7805883a 	mov	r2,r15
 1007afc:	dc000017 	ldw	r16,0(sp)
 1007b00:	dec00104 	addi	sp,sp,4
 1007b04:	f800283a 	ret
    if ((status & ALTERA_AVALON_SPI_STATUS_TRDY_MSK) != 0 && credits > 0)
    {
      credits--;

      if (write_data < write_end)
        IOWR_ALTERA_AVALON_SPI_TXDATA(base, *write_data++);
 1007b08:	38800003 	ldbu	r2,0(r7)
 1007b0c:	39c00044 	addi	r7,r7,1
 1007b10:	20800135 	stwio	r2,4(r4)
 1007b14:	003fda06 	br	1007a80 <alt_avalon_spi_command+0x74>
      else if (write_zeros > 0)
      {
        write_zeros--;
 1007b18:	633fffc4 	addi	r12,r12,-1
        IOWR_ALTERA_AVALON_SPI_TXDATA(base, 0);
 1007b1c:	20000135 	stwio	zero,4(r4)
 1007b20:	003fd706 	br	1007a80 <alt_avalon_spi_command+0x74>

  IOWR_ALTERA_AVALON_SPI_SLAVE_SEL(base, 1 << slave);
  
  /* Set the SSO bit (force chipselect) only if the toggle flag is not set */
  if ((flags & ALT_AVALON_SPI_COMMAND_TOGGLE_SS_N) == 0) {
    IOWR_ALTERA_AVALON_SPI_CONTROL(base, ALTERA_AVALON_SPI_CONTROL_SSO_MSK);
 1007b24:	00810004 	movi	r2,1024
 1007b28:	20800335 	stwio	r2,12(r4)
 1007b2c:	003fc306 	br	1007a3c <alt_avalon_spi_command+0x30>

01007b30 <alt_find_dev>:
 * "name" must be an exact match for the devices registered name for a match to
 * be found.
 */
 
alt_dev* alt_find_dev(const char* name, alt_llist* llist)
{
 1007b30:	defffb04 	addi	sp,sp,-20
 1007b34:	dc000015 	stw	r16,0(sp)
  alt_dev* next = (alt_dev*) llist->next;
 1007b38:	2c000017 	ldw	r16,0(r5)
 * "name" must be an exact match for the devices registered name for a match to
 * be found.
 */
 
alt_dev* alt_find_dev(const char* name, alt_llist* llist)
{
 1007b3c:	dcc00315 	stw	r19,12(sp)
 1007b40:	dc400115 	stw	r17,4(sp)
 1007b44:	dfc00415 	stw	ra,16(sp)
 1007b48:	2823883a 	mov	r17,r5
 1007b4c:	dc800215 	stw	r18,8(sp)
 1007b50:	2027883a 	mov	r19,r4
  alt_dev* next = (alt_dev*) llist->next;
  alt_32 len;

  len  = strlen(name) + 1;
 1007b54:	1000db00 	call	1000db0 <strlen>
  /*
   * Check each list entry in turn, until a match is found, or we reach the
   * end of the list (i.e. next winds up pointing back to the list head).
   */ 

  while (next != (alt_dev*) llist)
 1007b58:	84401126 	beq	r16,r17,1007ba0 <alt_find_dev+0x70>
 1007b5c:	14800044 	addi	r18,r2,1
 1007b60:	00000206 	br	1007b6c <alt_find_dev+0x3c>
    {
      /* match found */

      return next;
    }
    next = (alt_dev*) next->llist.next;
 1007b64:	84000017 	ldw	r16,0(r16)
  /*
   * Check each list entry in turn, until a match is found, or we reach the
   * end of the list (i.e. next winds up pointing back to the list head).
   */ 

  while (next != (alt_dev*) llist)
 1007b68:	84400d26 	beq	r16,r17,1007ba0 <alt_find_dev+0x70>
    /* 
     * memcmp() is used here rather than strcmp() in order to reduce the size
     * of the executable.
     */

    if (!memcmp (next->name, name, len))
 1007b6c:	81000217 	ldw	r4,8(r16)
 1007b70:	980b883a 	mov	r5,r19
 1007b74:	900d883a 	mov	r6,r18
 1007b78:	1007d200 	call	1007d20 <memcmp>
 1007b7c:	103ff91e 	bne	r2,zero,1007b64 <alt_find_dev+0x34>
  }
  
  /* No match found */
  
  return NULL;
}
 1007b80:	8005883a 	mov	r2,r16
 1007b84:	dfc00417 	ldw	ra,16(sp)
 1007b88:	dcc00317 	ldw	r19,12(sp)
 1007b8c:	dc800217 	ldw	r18,8(sp)
 1007b90:	dc400117 	ldw	r17,4(sp)
 1007b94:	dc000017 	ldw	r16,0(sp)
 1007b98:	dec00504 	addi	sp,sp,20
 1007b9c:	f800283a 	ret
  /*
   * Check each list entry in turn, until a match is found, or we reach the
   * end of the list (i.e. next winds up pointing back to the list head).
   */ 

  while (next != (alt_dev*) llist)
 1007ba0:	0021883a 	mov	r16,zero
  }
  
  /* No match found */
  
  return NULL;
}
 1007ba4:	8005883a 	mov	r2,r16
 1007ba8:	dfc00417 	ldw	ra,16(sp)
 1007bac:	dcc00317 	ldw	r19,12(sp)
 1007bb0:	dc800217 	ldw	r18,8(sp)
 1007bb4:	dc400117 	ldw	r17,4(sp)
 1007bb8:	dc000017 	ldw	r16,0(sp)
 1007bbc:	dec00504 	addi	sp,sp,20
 1007bc0:	f800283a 	ret

01007bc4 <alt_find_file>:
 * either '/' or '\0' is the prefix of the filename. For example the filename:
 * "/myfilesystem/junk.txt" would match: "/myfilesystem", but not: "/myfile". 
 */
 
alt_dev* alt_find_file (const char* name)
{
 1007bc4:	defffa04 	addi	sp,sp,-24
  alt_dev* next = (alt_dev*) alt_fs_list.next;   
 1007bc8:	00804074 	movhi	r2,257
 1007bcc:	10a8ba04 	addi	r2,r2,-23832
 * either '/' or '\0' is the prefix of the filename. For example the filename:
 * "/myfilesystem/junk.txt" would match: "/myfilesystem", but not: "/myfile". 
 */
 
alt_dev* alt_find_file (const char* name)
{
 1007bd0:	dc000015 	stw	r16,0(sp)
  alt_dev* next = (alt_dev*) alt_fs_list.next;   
 1007bd4:	14000017 	ldw	r16,0(r2)
 * either '/' or '\0' is the prefix of the filename. For example the filename:
 * "/myfilesystem/junk.txt" would match: "/myfilesystem", but not: "/myfile". 
 */
 
alt_dev* alt_find_file (const char* name)
{
 1007bd8:	dd000415 	stw	r20,16(sp)
 1007bdc:	dc800215 	stw	r18,8(sp)
 1007be0:	dfc00515 	stw	ra,20(sp)
 1007be4:	dcc00315 	stw	r19,12(sp)
 1007be8:	dc400115 	stw	r17,4(sp)
  /*
   * Check each list entry in turn, until a match is found, or we reach the
   * end of the list (i.e. next winds up pointing back to the list head).
   */ 
 
  while (next != (alt_dev*) &alt_fs_list)
 1007bec:	1029883a 	mov	r20,r2
 * either '/' or '\0' is the prefix of the filename. For example the filename:
 * "/myfilesystem/junk.txt" would match: "/myfilesystem", but not: "/myfile". 
 */
 
alt_dev* alt_find_file (const char* name)
{
 1007bf0:	2025883a 	mov	r18,r4
  /*
   * Check each list entry in turn, until a match is found, or we reach the
   * end of the list (i.e. next winds up pointing back to the list head).
   */ 
 
  while (next != (alt_dev*) &alt_fs_list)
 1007bf4:	80801526 	beq	r16,r2,1007c4c <alt_find_file+0x88>
 1007bf8:	04c00bc4 	movi	r19,47
 1007bfc:	00000806 	br	1007c20 <alt_find_file+0x5c>
    if (next->name[len-1] == '/')
    {
      len -= 1;
    }

    if (((name[len] == '/') || (name[len] == '\0')) && 
 1007c00:	3485883a 	add	r2,r6,r18
 1007c04:	10800007 	ldb	r2,0(r2)
 1007c08:	14c00126 	beq	r2,r19,1007c10 <alt_find_file+0x4c>
 1007c0c:	1000021e 	bne	r2,zero,1007c18 <alt_find_file+0x54>
 1007c10:	1007d200 	call	1007d20 <memcmp>
 1007c14:	10000e26 	beq	r2,zero,1007c50 <alt_find_file+0x8c>
    {
      /* match found */

      return next;
    }
    next = (alt_dev*) next->llist.next;
 1007c18:	84000017 	ldw	r16,0(r16)
  /*
   * Check each list entry in turn, until a match is found, or we reach the
   * end of the list (i.e. next winds up pointing back to the list head).
   */ 
 
  while (next != (alt_dev*) &alt_fs_list)
 1007c1c:	85000b26 	beq	r16,r20,1007c4c <alt_find_file+0x88>
  {
    len = strlen(next->name);
 1007c20:	84400217 	ldw	r17,8(r16)
 1007c24:	8809883a 	mov	r4,r17
 1007c28:	1000db00 	call	1000db0 <strlen>
 1007c2c:	100d883a 	mov	r6,r2
    
    if (next->name[len-1] == '/')
 1007c30:	8885883a 	add	r2,r17,r2
 1007c34:	10ffffc7 	ldb	r3,-1(r2)
    {
      len -= 1;
    }

    if (((name[len] == '/') || (name[len] == '\0')) && 
 1007c38:	8809883a 	mov	r4,r17
 1007c3c:	900b883a 	mov	r5,r18
 
  while (next != (alt_dev*) &alt_fs_list)
  {
    len = strlen(next->name);
    
    if (next->name[len-1] == '/')
 1007c40:	1cffef1e 	bne	r3,r19,1007c00 <alt_find_file+0x3c>
    {
      len -= 1;
 1007c44:	31bfffc4 	addi	r6,r6,-1
 1007c48:	003fed06 	br	1007c00 <alt_find_file+0x3c>
  /*
   * Check each list entry in turn, until a match is found, or we reach the
   * end of the list (i.e. next winds up pointing back to the list head).
   */ 
 
  while (next != (alt_dev*) &alt_fs_list)
 1007c4c:	0021883a 	mov	r16,zero
  }
  
  /* No match found */
  
  return NULL;     
}
 1007c50:	8005883a 	mov	r2,r16
 1007c54:	dfc00517 	ldw	ra,20(sp)
 1007c58:	dd000417 	ldw	r20,16(sp)
 1007c5c:	dcc00317 	ldw	r19,12(sp)
 1007c60:	dc800217 	ldw	r18,8(sp)
 1007c64:	dc400117 	ldw	r17,4(sp)
 1007c68:	dc000017 	ldw	r16,0(sp)
 1007c6c:	dec00604 	addi	sp,sp,24
 1007c70:	f800283a 	ret

01007c74 <alt_get_fd>:
 * the offset of the file descriptor within the file descriptor array). A
 * negative value indicates failure.
 */

int alt_get_fd (alt_dev* dev)
{
 1007c74:	01404074 	movhi	r5,257
 1007c78:	29635b04 	addi	r5,r5,-29332
 1007c7c:	0007883a 	mov	r3,zero
 1007c80:	01c00804 	movi	r7,32
 1007c84:	280d883a 	mov	r6,r5
 1007c88:	00000306 	br	1007c98 <alt_get_fd+0x24>
   * indicates the highest file descriptor ever allocated. This is used to
   * improve efficency when searching the file descriptor list, and 
   * therefore reduce contention on the alt_fd_list_lock semaphore. 
   */

  for (i = 0; i < ALT_MAX_FD; i++)
 1007c8c:	18c00044 	addi	r3,r3,1
 1007c90:	31800304 	addi	r6,r6,12
 1007c94:	19c00d26 	beq	r3,r7,1007ccc <alt_get_fd+0x58>
  {
    if (!alt_fd_list[i].dev)
 1007c98:	28800017 	ldw	r2,0(r5)
   * indicates the highest file descriptor ever allocated. This is used to
   * improve efficency when searching the file descriptor list, and 
   * therefore reduce contention on the alt_fd_list_lock semaphore. 
   */

  for (i = 0; i < ALT_MAX_FD; i++)
 1007c9c:	29400304 	addi	r5,r5,12
  {
    if (!alt_fd_list[i].dev)
 1007ca0:	103ffa1e 	bne	r2,zero,1007c8c <alt_get_fd+0x18>
    {
      alt_fd_list[i].dev = dev;
      if (i > alt_max_fd)
 1007ca4:	01404074 	movhi	r5,257
 1007ca8:	2968be04 	addi	r5,r5,-23816
 1007cac:	28800017 	ldw	r2,0(r5)

  for (i = 0; i < ALT_MAX_FD; i++)
  {
    if (!alt_fd_list[i].dev)
    {
      alt_fd_list[i].dev = dev;
 1007cb0:	31000015 	stw	r4,0(r6)
      if (i > alt_max_fd)
 1007cb4:	10c0030e 	bge	r2,r3,1007cc4 <alt_get_fd+0x50>
      {
        alt_max_fd = i;
 1007cb8:	1805883a 	mov	r2,r3
 1007cbc:	28c00015 	stw	r3,0(r5)
 1007cc0:	f800283a 	ret
  for (i = 0; i < ALT_MAX_FD; i++)
  {
    if (!alt_fd_list[i].dev)
    {
      alt_fd_list[i].dev = dev;
      if (i > alt_max_fd)
 1007cc4:	1805883a 	mov	r2,r3
 1007cc8:	f800283a 	ret
   * indicates the highest file descriptor ever allocated. This is used to
   * improve efficency when searching the file descriptor list, and 
   * therefore reduce contention on the alt_fd_list_lock semaphore. 
   */

  for (i = 0; i < ALT_MAX_FD; i++)
 1007ccc:	00bffa04 	movi	r2,-24
   */

  ALT_SEM_POST(alt_fd_list_lock);

  return rc;
}
 1007cd0:	f800283a 	ret

01007cd4 <atexit>:
 1007cd4:	200b883a 	mov	r5,r4
 1007cd8:	000d883a 	mov	r6,zero
 1007cdc:	0009883a 	mov	r4,zero
 1007ce0:	000f883a 	mov	r7,zero
 1007ce4:	1007d941 	jmpi	1007d94 <__register_exitproc>

01007ce8 <exit>:
 1007ce8:	defffe04 	addi	sp,sp,-8
 1007cec:	000b883a 	mov	r5,zero
 1007cf0:	dc000015 	stw	r16,0(sp)
 1007cf4:	dfc00115 	stw	ra,4(sp)
 1007cf8:	2021883a 	mov	r16,r4
 1007cfc:	1007ecc0 	call	1007ecc <__call_exitprocs>
 1007d00:	00804074 	movhi	r2,257
 1007d04:	10a8b704 	addi	r2,r2,-23844
 1007d08:	11000017 	ldw	r4,0(r2)
 1007d0c:	20800f17 	ldw	r2,60(r4)
 1007d10:	10000126 	beq	r2,zero,1007d18 <exit+0x30>
 1007d14:	103ee83a 	callr	r2
 1007d18:	8009883a 	mov	r4,r16
 1007d1c:	10081c80 	call	10081c8 <_exit>

01007d20 <memcmp>:
 1007d20:	00c000c4 	movi	r3,3
 1007d24:	1980032e 	bgeu	r3,r6,1007d34 <memcmp+0x14>
 1007d28:	2144b03a 	or	r2,r4,r5
 1007d2c:	10c4703a 	and	r2,r2,r3
 1007d30:	10000f26 	beq	r2,zero,1007d70 <memcmp+0x50>
 1007d34:	31ffffc4 	addi	r7,r6,-1
 1007d38:	3000061e 	bne	r6,zero,1007d54 <memcmp+0x34>
 1007d3c:	00000a06 	br	1007d68 <memcmp+0x48>
 1007d40:	39ffffc4 	addi	r7,r7,-1
 1007d44:	00bfffc4 	movi	r2,-1
 1007d48:	21000044 	addi	r4,r4,1
 1007d4c:	29400044 	addi	r5,r5,1
 1007d50:	38800526 	beq	r7,r2,1007d68 <memcmp+0x48>
 1007d54:	20c00003 	ldbu	r3,0(r4)
 1007d58:	28800003 	ldbu	r2,0(r5)
 1007d5c:	18bff826 	beq	r3,r2,1007d40 <memcmp+0x20>
 1007d60:	1885c83a 	sub	r2,r3,r2
 1007d64:	f800283a 	ret
 1007d68:	0005883a 	mov	r2,zero
 1007d6c:	f800283a 	ret
 1007d70:	180f883a 	mov	r7,r3
 1007d74:	20c00017 	ldw	r3,0(r4)
 1007d78:	28800017 	ldw	r2,0(r5)
 1007d7c:	18bfed1e 	bne	r3,r2,1007d34 <memcmp+0x14>
 1007d80:	31bfff04 	addi	r6,r6,-4
 1007d84:	21000104 	addi	r4,r4,4
 1007d88:	29400104 	addi	r5,r5,4
 1007d8c:	39bff936 	bltu	r7,r6,1007d74 <memcmp+0x54>
 1007d90:	003fe806 	br	1007d34 <memcmp+0x14>

01007d94 <__register_exitproc>:
 1007d94:	defffa04 	addi	sp,sp,-24
 1007d98:	00804074 	movhi	r2,257
 1007d9c:	10a8b704 	addi	r2,r2,-23844
 1007da0:	dc000015 	stw	r16,0(sp)
 1007da4:	14000017 	ldw	r16,0(r2)
 1007da8:	dd000415 	stw	r20,16(sp)
 1007dac:	2829883a 	mov	r20,r5
 1007db0:	81405217 	ldw	r5,328(r16)
 1007db4:	dcc00315 	stw	r19,12(sp)
 1007db8:	dc800215 	stw	r18,8(sp)
 1007dbc:	dc400115 	stw	r17,4(sp)
 1007dc0:	dfc00515 	stw	ra,20(sp)
 1007dc4:	2023883a 	mov	r17,r4
 1007dc8:	3027883a 	mov	r19,r6
 1007dcc:	3825883a 	mov	r18,r7
 1007dd0:	28002526 	beq	r5,zero,1007e68 <__register_exitproc+0xd4>
 1007dd4:	29000117 	ldw	r4,4(r5)
 1007dd8:	008007c4 	movi	r2,31
 1007ddc:	11002716 	blt	r2,r4,1007e7c <__register_exitproc+0xe8>
 1007de0:	8800101e 	bne	r17,zero,1007e24 <__register_exitproc+0x90>
 1007de4:	2105883a 	add	r2,r4,r4
 1007de8:	1085883a 	add	r2,r2,r2
 1007dec:	20c00044 	addi	r3,r4,1
 1007df0:	1145883a 	add	r2,r2,r5
 1007df4:	0009883a 	mov	r4,zero
 1007df8:	15000215 	stw	r20,8(r2)
 1007dfc:	28c00115 	stw	r3,4(r5)
 1007e00:	2005883a 	mov	r2,r4
 1007e04:	dfc00517 	ldw	ra,20(sp)
 1007e08:	dd000417 	ldw	r20,16(sp)
 1007e0c:	dcc00317 	ldw	r19,12(sp)
 1007e10:	dc800217 	ldw	r18,8(sp)
 1007e14:	dc400117 	ldw	r17,4(sp)
 1007e18:	dc000017 	ldw	r16,0(sp)
 1007e1c:	dec00604 	addi	sp,sp,24
 1007e20:	f800283a 	ret
 1007e24:	29802204 	addi	r6,r5,136
 1007e28:	00800044 	movi	r2,1
 1007e2c:	110e983a 	sll	r7,r2,r4
 1007e30:	30c04017 	ldw	r3,256(r6)
 1007e34:	2105883a 	add	r2,r4,r4
 1007e38:	1085883a 	add	r2,r2,r2
 1007e3c:	1185883a 	add	r2,r2,r6
 1007e40:	19c6b03a 	or	r3,r3,r7
 1007e44:	14802015 	stw	r18,128(r2)
 1007e48:	14c00015 	stw	r19,0(r2)
 1007e4c:	00800084 	movi	r2,2
 1007e50:	30c04015 	stw	r3,256(r6)
 1007e54:	88bfe31e 	bne	r17,r2,1007de4 <__register_exitproc+0x50>
 1007e58:	30804117 	ldw	r2,260(r6)
 1007e5c:	11c4b03a 	or	r2,r2,r7
 1007e60:	30804115 	stw	r2,260(r6)
 1007e64:	003fdf06 	br	1007de4 <__register_exitproc+0x50>
 1007e68:	00804074 	movhi	r2,257
 1007e6c:	10a9a104 	addi	r2,r2,-22908
 1007e70:	100b883a 	mov	r5,r2
 1007e74:	80805215 	stw	r2,328(r16)
 1007e78:	003fd606 	br	1007dd4 <__register_exitproc+0x40>
 1007e7c:	00800034 	movhi	r2,0
 1007e80:	10800004 	addi	r2,r2,0
 1007e84:	1000021e 	bne	r2,zero,1007e90 <__register_exitproc+0xfc>
 1007e88:	013fffc4 	movi	r4,-1
 1007e8c:	003fdc06 	br	1007e00 <__register_exitproc+0x6c>
 1007e90:	01006404 	movi	r4,400
 1007e94:	103ee83a 	callr	r2
 1007e98:	1007883a 	mov	r3,r2
 1007e9c:	103ffa26 	beq	r2,zero,1007e88 <__register_exitproc+0xf4>
 1007ea0:	80805217 	ldw	r2,328(r16)
 1007ea4:	180b883a 	mov	r5,r3
 1007ea8:	18000115 	stw	zero,4(r3)
 1007eac:	18800015 	stw	r2,0(r3)
 1007eb0:	80c05215 	stw	r3,328(r16)
 1007eb4:	18006215 	stw	zero,392(r3)
 1007eb8:	18006315 	stw	zero,396(r3)
 1007ebc:	0009883a 	mov	r4,zero
 1007ec0:	883fc826 	beq	r17,zero,1007de4 <__register_exitproc+0x50>
 1007ec4:	003fd706 	br	1007e24 <__register_exitproc+0x90>

01007ec8 <register_fini>:
 1007ec8:	f800283a 	ret

01007ecc <__call_exitprocs>:
 1007ecc:	00804074 	movhi	r2,257
 1007ed0:	10a8b704 	addi	r2,r2,-23844
 1007ed4:	10800017 	ldw	r2,0(r2)
 1007ed8:	defff304 	addi	sp,sp,-52
 1007edc:	df000b15 	stw	fp,44(sp)
 1007ee0:	d8800115 	stw	r2,4(sp)
 1007ee4:	00800034 	movhi	r2,0
 1007ee8:	10800004 	addi	r2,r2,0
 1007eec:	1005003a 	cmpeq	r2,r2,zero
 1007ef0:	d8800215 	stw	r2,8(sp)
 1007ef4:	d8800117 	ldw	r2,4(sp)
 1007ef8:	dd400815 	stw	r21,32(sp)
 1007efc:	dd000715 	stw	r20,28(sp)
 1007f00:	10805204 	addi	r2,r2,328
 1007f04:	dfc00c15 	stw	ra,48(sp)
 1007f08:	ddc00a15 	stw	r23,40(sp)
 1007f0c:	dd800915 	stw	r22,36(sp)
 1007f10:	dcc00615 	stw	r19,24(sp)
 1007f14:	dc800515 	stw	r18,20(sp)
 1007f18:	dc400415 	stw	r17,16(sp)
 1007f1c:	dc000315 	stw	r16,12(sp)
 1007f20:	282b883a 	mov	r21,r5
 1007f24:	2039883a 	mov	fp,r4
 1007f28:	d8800015 	stw	r2,0(sp)
 1007f2c:	2829003a 	cmpeq	r20,r5,zero
 1007f30:	d8800117 	ldw	r2,4(sp)
 1007f34:	14405217 	ldw	r17,328(r2)
 1007f38:	88001026 	beq	r17,zero,1007f7c <__call_exitprocs+0xb0>
 1007f3c:	ddc00017 	ldw	r23,0(sp)
 1007f40:	88800117 	ldw	r2,4(r17)
 1007f44:	8c802204 	addi	r18,r17,136
 1007f48:	143fffc4 	addi	r16,r2,-1
 1007f4c:	80000916 	blt	r16,zero,1007f74 <__call_exitprocs+0xa8>
 1007f50:	05bfffc4 	movi	r22,-1
 1007f54:	a000151e 	bne	r20,zero,1007fac <__call_exitprocs+0xe0>
 1007f58:	8409883a 	add	r4,r16,r16
 1007f5c:	2105883a 	add	r2,r4,r4
 1007f60:	1485883a 	add	r2,r2,r18
 1007f64:	10c02017 	ldw	r3,128(r2)
 1007f68:	a8c01126 	beq	r21,r3,1007fb0 <__call_exitprocs+0xe4>
 1007f6c:	843fffc4 	addi	r16,r16,-1
 1007f70:	85bff81e 	bne	r16,r22,1007f54 <__call_exitprocs+0x88>
 1007f74:	d8800217 	ldw	r2,8(sp)
 1007f78:	10003126 	beq	r2,zero,1008040 <__call_exitprocs+0x174>
 1007f7c:	dfc00c17 	ldw	ra,48(sp)
 1007f80:	df000b17 	ldw	fp,44(sp)
 1007f84:	ddc00a17 	ldw	r23,40(sp)
 1007f88:	dd800917 	ldw	r22,36(sp)
 1007f8c:	dd400817 	ldw	r21,32(sp)
 1007f90:	dd000717 	ldw	r20,28(sp)
 1007f94:	dcc00617 	ldw	r19,24(sp)
 1007f98:	dc800517 	ldw	r18,20(sp)
 1007f9c:	dc400417 	ldw	r17,16(sp)
 1007fa0:	dc000317 	ldw	r16,12(sp)
 1007fa4:	dec00d04 	addi	sp,sp,52
 1007fa8:	f800283a 	ret
 1007fac:	8409883a 	add	r4,r16,r16
 1007fb0:	88c00117 	ldw	r3,4(r17)
 1007fb4:	2105883a 	add	r2,r4,r4
 1007fb8:	1445883a 	add	r2,r2,r17
 1007fbc:	18ffffc4 	addi	r3,r3,-1
 1007fc0:	11800217 	ldw	r6,8(r2)
 1007fc4:	1c001526 	beq	r3,r16,100801c <__call_exitprocs+0x150>
 1007fc8:	10000215 	stw	zero,8(r2)
 1007fcc:	303fe726 	beq	r6,zero,1007f6c <__call_exitprocs+0xa0>
 1007fd0:	00c00044 	movi	r3,1
 1007fd4:	1c06983a 	sll	r3,r3,r16
 1007fd8:	90804017 	ldw	r2,256(r18)
 1007fdc:	8cc00117 	ldw	r19,4(r17)
 1007fe0:	1884703a 	and	r2,r3,r2
 1007fe4:	10001426 	beq	r2,zero,1008038 <__call_exitprocs+0x16c>
 1007fe8:	90804117 	ldw	r2,260(r18)
 1007fec:	1884703a 	and	r2,r3,r2
 1007ff0:	10000c1e 	bne	r2,zero,1008024 <__call_exitprocs+0x158>
 1007ff4:	2105883a 	add	r2,r4,r4
 1007ff8:	1485883a 	add	r2,r2,r18
 1007ffc:	11400017 	ldw	r5,0(r2)
 1008000:	e009883a 	mov	r4,fp
 1008004:	303ee83a 	callr	r6
 1008008:	88800117 	ldw	r2,4(r17)
 100800c:	98bfc81e 	bne	r19,r2,1007f30 <__call_exitprocs+0x64>
 1008010:	b8800017 	ldw	r2,0(r23)
 1008014:	147fd526 	beq	r2,r17,1007f6c <__call_exitprocs+0xa0>
 1008018:	003fc506 	br	1007f30 <__call_exitprocs+0x64>
 100801c:	8c000115 	stw	r16,4(r17)
 1008020:	003fea06 	br	1007fcc <__call_exitprocs+0x100>
 1008024:	2105883a 	add	r2,r4,r4
 1008028:	1485883a 	add	r2,r2,r18
 100802c:	11000017 	ldw	r4,0(r2)
 1008030:	303ee83a 	callr	r6
 1008034:	003ff406 	br	1008008 <__call_exitprocs+0x13c>
 1008038:	303ee83a 	callr	r6
 100803c:	003ff206 	br	1008008 <__call_exitprocs+0x13c>
 1008040:	88800117 	ldw	r2,4(r17)
 1008044:	1000081e 	bne	r2,zero,1008068 <__call_exitprocs+0x19c>
 1008048:	89000017 	ldw	r4,0(r17)
 100804c:	20000726 	beq	r4,zero,100806c <__call_exitprocs+0x1a0>
 1008050:	b9000015 	stw	r4,0(r23)
 1008054:	8809883a 	mov	r4,r17
 1008058:	00000000 	call	0 <__alt_mem_sram_0>
 100805c:	bc400017 	ldw	r17,0(r23)
 1008060:	883fb71e 	bne	r17,zero,1007f40 <__call_exitprocs+0x74>
 1008064:	003fc506 	br	1007f7c <__call_exitprocs+0xb0>
 1008068:	89000017 	ldw	r4,0(r17)
 100806c:	882f883a 	mov	r23,r17
 1008070:	2023883a 	mov	r17,r4
 1008074:	883fb21e 	bne	r17,zero,1007f40 <__call_exitprocs+0x74>
 1008078:	003fc006 	br	1007f7c <__call_exitprocs+0xb0>

0100807c <udivmodsi4>:
 100807c:	29001b2e 	bgeu	r5,r4,10080ec <udivmodsi4+0x70>
 1008080:	28001a16 	blt	r5,zero,10080ec <udivmodsi4+0x70>
 1008084:	00800044 	movi	r2,1
 1008088:	0007883a 	mov	r3,zero
 100808c:	01c007c4 	movi	r7,31
 1008090:	00000306 	br	10080a0 <udivmodsi4+0x24>
 1008094:	19c01326 	beq	r3,r7,10080e4 <udivmodsi4+0x68>
 1008098:	18c00044 	addi	r3,r3,1
 100809c:	28000416 	blt	r5,zero,10080b0 <udivmodsi4+0x34>
 10080a0:	294b883a 	add	r5,r5,r5
 10080a4:	1085883a 	add	r2,r2,r2
 10080a8:	293ffa36 	bltu	r5,r4,1008094 <udivmodsi4+0x18>
 10080ac:	10000d26 	beq	r2,zero,10080e4 <udivmodsi4+0x68>
 10080b0:	0007883a 	mov	r3,zero
 10080b4:	21400236 	bltu	r4,r5,10080c0 <udivmodsi4+0x44>
 10080b8:	2149c83a 	sub	r4,r4,r5
 10080bc:	1886b03a 	or	r3,r3,r2
 10080c0:	1004d07a 	srli	r2,r2,1
 10080c4:	280ad07a 	srli	r5,r5,1
 10080c8:	103ffa1e 	bne	r2,zero,10080b4 <udivmodsi4+0x38>
 10080cc:	30000226 	beq	r6,zero,10080d8 <udivmodsi4+0x5c>
 10080d0:	2005883a 	mov	r2,r4
 10080d4:	f800283a 	ret
 10080d8:	1809883a 	mov	r4,r3
 10080dc:	2005883a 	mov	r2,r4
 10080e0:	f800283a 	ret
 10080e4:	0007883a 	mov	r3,zero
 10080e8:	003ff806 	br	10080cc <udivmodsi4+0x50>
 10080ec:	00800044 	movi	r2,1
 10080f0:	0007883a 	mov	r3,zero
 10080f4:	003fef06 	br	10080b4 <udivmodsi4+0x38>

010080f8 <__divsi3>:
 10080f8:	defffe04 	addi	sp,sp,-8
 10080fc:	dc000015 	stw	r16,0(sp)
 1008100:	dfc00115 	stw	ra,4(sp)
 1008104:	0021883a 	mov	r16,zero
 1008108:	20000c16 	blt	r4,zero,100813c <__divsi3+0x44>
 100810c:	000d883a 	mov	r6,zero
 1008110:	28000e16 	blt	r5,zero,100814c <__divsi3+0x54>
 1008114:	100807c0 	call	100807c <udivmodsi4>
 1008118:	1007883a 	mov	r3,r2
 100811c:	8005003a 	cmpeq	r2,r16,zero
 1008120:	1000011e 	bne	r2,zero,1008128 <__divsi3+0x30>
 1008124:	00c7c83a 	sub	r3,zero,r3
 1008128:	1805883a 	mov	r2,r3
 100812c:	dfc00117 	ldw	ra,4(sp)
 1008130:	dc000017 	ldw	r16,0(sp)
 1008134:	dec00204 	addi	sp,sp,8
 1008138:	f800283a 	ret
 100813c:	0109c83a 	sub	r4,zero,r4
 1008140:	04000044 	movi	r16,1
 1008144:	000d883a 	mov	r6,zero
 1008148:	283ff20e 	bge	r5,zero,1008114 <__divsi3+0x1c>
 100814c:	014bc83a 	sub	r5,zero,r5
 1008150:	8021003a 	cmpeq	r16,r16,zero
 1008154:	003fef06 	br	1008114 <__divsi3+0x1c>

01008158 <__modsi3>:
 1008158:	deffff04 	addi	sp,sp,-4
 100815c:	dfc00015 	stw	ra,0(sp)
 1008160:	01800044 	movi	r6,1
 1008164:	2807883a 	mov	r3,r5
 1008168:	20000416 	blt	r4,zero,100817c <__modsi3+0x24>
 100816c:	28000c16 	blt	r5,zero,10081a0 <__modsi3+0x48>
 1008170:	dfc00017 	ldw	ra,0(sp)
 1008174:	dec00104 	addi	sp,sp,4
 1008178:	100807c1 	jmpi	100807c <udivmodsi4>
 100817c:	0109c83a 	sub	r4,zero,r4
 1008180:	28000b16 	blt	r5,zero,10081b0 <__modsi3+0x58>
 1008184:	180b883a 	mov	r5,r3
 1008188:	01800044 	movi	r6,1
 100818c:	100807c0 	call	100807c <udivmodsi4>
 1008190:	0085c83a 	sub	r2,zero,r2
 1008194:	dfc00017 	ldw	ra,0(sp)
 1008198:	dec00104 	addi	sp,sp,4
 100819c:	f800283a 	ret
 10081a0:	014bc83a 	sub	r5,zero,r5
 10081a4:	dfc00017 	ldw	ra,0(sp)
 10081a8:	dec00104 	addi	sp,sp,4
 10081ac:	100807c1 	jmpi	100807c <udivmodsi4>
 10081b0:	0147c83a 	sub	r3,zero,r5
 10081b4:	003ff306 	br	1008184 <__modsi3+0x2c>

010081b8 <__udivsi3>:
 10081b8:	000d883a 	mov	r6,zero
 10081bc:	100807c1 	jmpi	100807c <udivmodsi4>

010081c0 <__umodsi3>:
 10081c0:	01800044 	movi	r6,1
 10081c4:	100807c1 	jmpi	100807c <udivmodsi4>

010081c8 <_exit>:
  __asm__ volatile ("\n0:\n\taddi %0,%0, -1\n\tbgt %0,zero,0b" : : "r" (ALT_CPU_FREQ/100) ); /* Delay for >30ms */

  __asm__ volatile ("break 2" : : "D02"(r2), "D03"(r3) ALT_GMON_DATA );

#else /* !DEBUG_STUB */
  if (r2) {
 10081c8:	20000226 	beq	r4,zero,10081d4 <_exit+0xc>
    ALT_SIM_FAIL();
 10081cc:	002af070 	cmpltui	zero,zero,43969
 10081d0:	003fff06 	br	10081d0 <_exit+0x8>
  } else {
    ALT_SIM_PASS();
 10081d4:	002af0b0 	cmpltui	zero,zero,43970
 10081d8:	003ffd06 	br	10081d0 <_exit+0x8>
 10081dc:	01007ec8 	cmpgei	r4,zero,507
